(dp1
S'output'
p2
S"<class 'urllib2.URLError'> <urlopen error [Errno 110] Connection timed out>"
p3
sS'layer'
p4
S'/home/prateek/web2py/applications/phyloShiny/controllers/reconciliotastic.py'
p5
sS'code'
p6
S'# -*- coding: utf-8 -*-\n# this file is released under public domain and you can use without limitations\n\n#########################################################################\n## This is a sample controller\n## - index is the default action of any application\n## - user is required for authentication and authorization\n## - download is for downloading files uploaded in the db (does streaming)\n## - call exposes all registered services (none by default)\n#########################################################################\nimport os\nimport socket\nimport urllib2\nfrom gluon import *\nfrom Bio import Phylo\t\nfrom Bio.Phylo import Newick\t\t\t\t\t \t\t#import biopython modules as per requirement \n\ndef index():\n    rootFolder = current.request.folder\n    folders = os.listdir(rootFolder+\'static/sample_data/\')\n\n    # Go through the subfolders within sample_data, only keep folders\n    # that match \'demo\'\n    folders = [x.split(\'_\',1)[1] for x in folders if x.split(\'_\')[0] == \'demo\']\n    folderLabels = [x.replace(\'_\', \' \') for x in folders]\n\n    # Return a list of tuples, like [ [\'Mammal_Hemoglobin\', \'Mammal Hemoglobin\'] , ... ]\n    # This lets us have nice display names in the <select> element in the view.\n    foldersAndLabels = zip(folders, folderLabels)\n    return dict(foldersAndLabels=foldersAndLabels)\n\ndef getFileName():\n    # Returns the absolute filename for the "input" gene tree\n    # file. Uses the treeFileName request parameter, as that\'s our\n    # main state-tracking value passed between the view and controller\n    # between each step.\n    rootFolder = current.request.folder\n    absoluteFileName = rootFolder+current.request.vars.treeFileName\n    return absoluteFileName\n\ndef getRelativeWebPath(suffix):\n    # Currently a no-op.\n    return suffix\n\ndef visualize():\n    # Visualize controller. Does some preprocessing before generating\n    # the HTML for viewing a given tree.\n\n    # Takes in the \'treeName\' and \'file\' params, and creates the URL\n    # which can be used to access / download the given tree file. This\n    # is only really necessary because the <applet> tag requires a\n    # parameter, which is then sent to Archaeopteryx, that requires\n    # the *entire* URL of the tree to load. With a non-applet based\n    # visualization this wouldn\'t be an issue.\n    treeFile = current.request.vars.treeName\n    suffix = current.request.vars.file\n\n    # Use the request http_host.\n    hostname = current.request.env.http_host\n\n    # Toggle to phylotastic URL if we detect a NESCENT socket host.\n    socket_hostname = socket.gethostname()\n    if \'phylotastic\' in socket_hostname.lower():\n        hostname = \'phylotastic.nescent.org\'\n\n    treeUrl = URL(\'static\', \'sample_data/demo_\'+treeFile+\'/input_genetree.nwk\'+suffix,\n                 scheme=\'http\', host=hostname)\n\n    return dict(treeUrl=treeUrl,\n                header=current.request.vars.header)\n\ndef getSpeciesList():\n    # Absolute file name of the input tree file.\n    absoluteFileName = getFileName()\n    # "Prefix", i.e. the input tree file without the ending\n    # \'.txt\'. This is used as the prefix for all generated output\n    # files\n    filePrefix = absoluteFileName[:-4]\n\n    shellCall = \'java -Xmx1024m -cp \'\n    shellCall += current.request.folder+\'static/lib/forester.jar \'\n    shellCall += \'org.forester.application.gene_tree_preprocess \'\n    shellCall += absoluteFileName\n    os.system(shellCall)\n\n    removedNodes = [l.strip() for l in open(filePrefix+\'_removed_nodes.txt\').readlines()]\n    keptNodes = [l.strip() for l in open(filePrefix+\'_species_present.txt\').readlines()]\n    \n    geneTreeFile = getRelativeWebPath(\'_preprocessed_gene_tree.phylo.xml\')\n\n    # Note: we always return the \'vizFile\' and \'vizLabel\' data values\n    # from each Ajax call, as they\'re used consistently by the\n    # front-end to generate visualization links.\n    return response.json( dict(vizFile = geneTreeFile,\n                               vizLabel = "Input Gene Tree",\n                               removedNodes = removedNodes, \n                               keptNodes = keptNodes))\n\ndef getPhylotasticTree():\n    absoluteFileName = getFileName()\n    filePrefix = absoluteFileName[:-4]\n\n    # Load the kept nodes and create the comma-delimited species\n    # string for sending to PTastic\n    speciesList = [l.strip() for l in open(filePrefix+\'_species_present.txt\').readlines()]\n    # Need underscores instead of spaces\n    speciesList = [x.replace(\' \', \'_\') for x in speciesList]\n    speciesString = \',\'.join(speciesList)\n\n    phylotasticUrlBase = \'http://phylotastic-wg.nescent.org/script/phylotastic.cgi?species=\'\n    speciesTreeUrl = phylotasticUrlBase+speciesString+\'&tree=mammals&format=newick\'\n    conn = urllib2.urlopen(speciesTreeUrl)\n    speciesTreeString = conn.read()\n    speciesTreeString = speciesTreeString.strip()\n\n    speciesTreeFilename = filePrefix+\'_species_tree.txt\'\n    open(speciesTreeFilename,\'w\').write(speciesTreeString)\n\n    # TODO: It would be nice here to count the number of species in\n    # the returned species tree, so we can let users know if PTastic\n    # found everything we searched for. This would require parsing the\n    # Newick and counting nodes, probably using something like\n    # BioPython rather than making an external call to Java again.\n    \n    got_nodes=countnodes()\n    #no. of non-terminal nodes received in got_nodes.Now can be printed or checked with user input value to test if all species received.\n    #then further we can maintain a textview in the frontend indicating the number of nodes(i.e. the number of species)\n\n    speciesTreeWebFile = getRelativeWebPath(\'_species_tree.txt\')\n\n    return response.json( dict(vizFile = speciesTreeWebFile,\n                               vizLabel = "Phylotastic Species Tree"\n                               ) )\n\ndef countnodes():\n\n    #setting a counter for counting nodes i.e.number of species in the species newick tree.\n    #I have referenced the link http://biopython.org/DIST/docs/tutorial/Tutorial.html#htoc182 to know the get_terminals() function\n\n    count=0\t\t\t\t\t\t\t\t\t#global counter to keep the count of the nodes\n    tree = Phylo.read("speciesTreeFilename", "newick")\t\t\t\t#tree reads the species labels in newick format\n    for node in tree.get_terminals(): \t\t\t\t\t#loop to traverse through these nodes\n    \tcount+=1\t\t\t\t\t\t\t\t\t#updating counter value\n    return count\t\t\t\t\t\t\t\t#counter value return\n\n\ndef reconcileTrees():\n    absoluteFileName = getFileName()\n    filePrefix = absoluteFileName[:-4]\n\n    geneTreeFile = filePrefix+\'_preprocessed_gene_tree.phylo.xml\'\n    speciesTreeFile = filePrefix+\'_species_tree.txt\'\n\n    shellCall = \'java -Xmx1024m -cp \'\n    shellCall += current.request.folder+\'static/lib/forester.jar \'\n    shellCall += \'org.forester.application.gsdi \'\n    shellCall += \'-m -q \'\n    shellCall += geneTreeFile\n    shellCall += \' \'+speciesTreeFile\n\n    os.system(shellCall)\n    \n    reconciledTreeWebFile = getRelativeWebPath(\'_preprocessed_gene_tree.phylo_gsdi_out.phylo.xml\')\n    \n    return response.json( dict(vizFile = reconciledTreeWebFile,\n                               vizLabel = "Reconciled Tree (red=duplication, green=speciation)"\n                               ) )\n\nresponse._vars=response._caller(getPhylotasticTree)\n'
p7
sS'snapshot'
p8
(dp9
S'exception'
p10
(dp11
S'__module__'
p12
S"'urllib2'"
p13
sS'__getslice__'
p14
S"<method-wrapper '__getslice__' of URLError object>"
p15
sS'__str__'
p16
S"<bound method URLError.__str__ of URLError(error(110, 'Connection timed out'),)>"
p17
sS'__reduce__'
p18
S'<built-in method __reduce__ of URLError object>'
p19
sS'__dict__'
p20
S"{'reason': error(110, 'Connection timed out')}"
p21
sS'__sizeof__'
p22
S'<built-in method __sizeof__ of URLError object>'
p23
sS'__weakref__'
p24
S'None'
p25
sS'__init__'
p26
S"<bound method URLError.__init__ of URLError(error(110, 'Connection timed out'),)>"
p27
sS'__setattr__'
p28
S"<method-wrapper '__setattr__' of URLError object>"
p29
sS'__reduce_ex__'
p30
S'<built-in method __reduce_ex__ of URLError object>'
p31
sS'__new__'
p32
S'<built-in method __new__ of type object>'
p33
sS'errno'
p34
S'None'
p35
sS'__format__'
p36
S'<built-in method __format__ of URLError object>'
p37
sS'__class__'
p38
S"<class 'urllib2.URLError'>"
p39
sS'filename'
p40
S'None'
p41
sS'__doc__'
p42
S'None'
p43
sS'__getitem__'
p44
S"<method-wrapper '__getitem__' of URLError object>"
p45
sS'__setstate__'
p46
S'<built-in method __setstate__ of URLError object>'
p47
sS'__getattribute__'
p48
S"<method-wrapper '__getattribute__' of URLError object>"
p49
sS'args'
p50
S"(error(110, 'Connection timed out'),)"
p51
sS'reason'
p52
S"error(110, 'Connection timed out')"
p53
sS'__subclasshook__'
p54
S'<built-in method __subclasshook__ of type object>'
p55
sS'__unicode__'
p56
S'<built-in method __unicode__ of URLError object>'
p57
sS'strerror'
p58
S'None'
p59
sS'__delattr__'
p60
S"<method-wrapper '__delattr__' of URLError object>"
p61
sS'__repr__'
p62
S"<method-wrapper '__repr__' of URLError object>"
p63
sS'__hash__'
p64
S"<method-wrapper '__hash__' of URLError object>"
p65
ssS'evalue'
p66
S'<urlopen error [Errno 110] Connection timed out>'
p67
sS'request'
p68
ccopy_reg
_reconstructor
p69
(cgluon.html
BEAUTIFY
p70
c__builtin__
object
p71
NtRp72
(dp73
S'attributes'
p74
(dp75
sS'components'
p76
(lp77
g69
(cgluon.html
TABLE
p78
g71
NtRp79
(dp80
g74
(dp81
S'level'
p82
I5
ssS'parent'
p83
Nsg76
(lp84
g69
(cgluon.html
TR
p85
g71
NtRp86
(dp87
g74
(dp88
sg83
g79
sg76
(lp89
g69
(cgluon.html
TD
p90
g71
NtRp91
(dp92
g74
(dp93
S'_style'
p94
S'font-weight:bold;vertical-align:top'
p95
ssg83
g86
sg76
(lp96
S'ajax'
p97
asbag69
(g90
g71
NtRp98
(dp99
g74
(dp100
S'_valign'
p101
S'top'
p102
ssg83
g86
sg76
(lp103
S':'
asbag69
(g90
g71
NtRp104
(dp105
g74
(dp106
sg83
g86
sg76
(lp107
g69
(g70
g71
NtRp108
(dp109
g74
(dp110
g82
I5
ssg83
g104
sg76
(lp111
S'True'
p112
asbasbasbag69
(g85
g71
NtRp113
(dp114
g74
(dp115
sg83
g79
sg76
(lp116
g69
(g90
g71
NtRp117
(dp118
g74
(dp119
g94
g95
ssg83
g113
sg76
(lp120
S'application'
p121
asbag69
(g90
g71
NtRp122
(dp123
g74
(dp124
g101
g102
ssg83
g113
sg76
(lp125
S':'
asbag69
(g90
g71
NtRp126
(dp127
g74
(dp128
sg83
g113
sg76
(lp129
g69
(g70
g71
NtRp130
(dp131
g74
(dp132
g82
I5
ssg83
g126
sg76
(lp133
S'phyloShiny'
p134
asbasbasbag69
(g85
g71
NtRp135
(dp136
g74
(dp137
sg83
g79
sg76
(lp138
g69
(g90
g71
NtRp139
(dp140
g74
(dp141
g94
g95
ssg83
g135
sg76
(lp142
g50
asbag69
(g90
g71
NtRp143
(dp144
g74
(dp145
g101
g102
ssg83
g135
sg76
(lp146
S':'
asbag69
(g90
g71
NtRp147
(dp148
g74
(dp149
sg83
g135
sg76
(lp150
g69
(g70
g71
NtRp151
(dp152
g74
(dp153
g82
I5
ssg83
g147
sg76
(lp154
g69
(g78
g71
NtRp155
(dp156
g74
(dp157
g82
I4
ssg83
Nsg76
(lp158
sbasbasbasbag69
(g85
g71
NtRp159
(dp160
g74
(dp161
sg83
g79
sg76
(lp162
g69
(g90
g71
NtRp163
(dp164
g74
(dp165
g94
g95
ssg83
g159
sg76
(lp166
S'body'
p167
asbag69
(g90
g71
NtRp168
(dp169
g74
(dp170
g101
g102
ssg83
g159
sg76
(lp171
S':'
asbag69
(g90
g71
NtRp172
(dp173
g74
(dp174
sg83
g159
sg76
(lp175
g69
(g70
g71
NtRp176
(dp177
g74
(dp178
g82
I5
ssg83
g172
sg76
(lp179
S'<cStringIO.StringO object at 0xab3222e0>'
p180
asbasbasbag69
(g85
g71
NtRp181
(dp182
g74
(dp183
sg83
g79
sg76
(lp184
g69
(g90
g71
NtRp185
(dp186
g74
(dp187
g94
g95
ssg83
g181
sg76
(lp188
S'client'
p189
asbag69
(g90
g71
NtRp190
(dp191
g74
(dp192
g101
g102
ssg83
g181
sg76
(lp193
S':'
asbag69
(g90
g71
NtRp194
(dp195
g74
(dp196
sg83
g181
sg76
(lp197
g69
(g70
g71
NtRp198
(dp199
g74
(dp200
g82
I5
ssg83
g194
sg76
(lp201
S'127.0.0.1'
p202
asbasbasbag69
(g85
g71
NtRp203
(dp204
g74
(dp205
sg83
g79
sg76
(lp206
g69
(g90
g71
NtRp207
(dp208
g74
(dp209
g94
g95
ssg83
g203
sg76
(lp210
S'controller'
p211
asbag69
(g90
g71
NtRp212
(dp213
g74
(dp214
g101
g102
ssg83
g203
sg76
(lp215
S':'
asbag69
(g90
g71
NtRp216
(dp217
g74
(dp218
sg83
g203
sg76
(lp219
g69
(g70
g71
NtRp220
(dp221
g74
(dp222
g82
I5
ssg83
g216
sg76
(lp223
S'reconciliotastic'
p224
asbasbasbag69
(g85
g71
NtRp225
(dp226
g74
(dp227
sg83
g79
sg76
(lp228
g69
(g90
g71
NtRp229
(dp230
g74
(dp231
g94
g95
ssg83
g225
sg76
(lp232
S'cookies'
p233
asbag69
(g90
g71
NtRp234
(dp235
g74
(dp236
g101
g102
ssg83
g225
sg76
(lp237
S':'
asbag69
(g90
g71
NtRp238
(dp239
g74
(dp240
sg83
g225
sg76
(lp241
g69
(g70
g71
NtRp242
(dp243
g74
(dp244
g82
I5
ssg83
g238
sg76
(lp245
g69
(g78
g71
NtRp246
(dp247
g74
(dp248
g82
I4
ssg83
Nsg76
(lp249
g69
(g85
g71
NtRp250
(dp251
g74
(dp252
sg83
g246
sg76
(lp253
g69
(g90
g71
NtRp254
(dp255
g74
(dp256
g94
g95
ssg83
g250
sg76
(lp257
S'session_id_phyloshiny'
p258
asbag69
(g90
g71
NtRp259
(dp260
g74
(dp261
g101
g102
ssg83
g250
sg76
(lp262
S':'
asbag69
(g90
g71
NtRp263
(dp264
g74
(dp265
sg83
g250
sg76
(lp266
g69
(g70
g71
NtRp267
(dp268
g74
(dp269
g82
I4
ssg83
g263
sg76
(lp270
g69
(g78
g71
NtRp271
(dp272
g74
(dp273
g82
I3
ssg83
Nsg76
(lp274
g69
(g85
g71
NtRp275
(dp276
g74
(dp277
sg83
g271
sg76
(lp278
g69
(g90
g71
NtRp279
(dp280
g74
(dp281
g94
g95
ssg83
g275
sg76
(lp282
S'comment'
p283
asbag69
(g90
g71
NtRp284
(dp285
g74
(dp286
g101
g102
ssg83
g275
sg76
(lp287
S':'
asbag69
(g90
g71
NtRp288
(dp289
g74
(dp290
sg83
g275
sg76
(lp291
g69
(g70
g71
NtRp292
(dp293
g74
(dp294
g82
I3
ssg83
g288
sg76
(lp295
S''
asbasbasbag69
(g85
g71
NtRp296
(dp297
g74
(dp298
sg83
g271
sg76
(lp299
g69
(g90
g71
NtRp300
(dp301
g74
(dp302
g94
g95
ssg83
g296
sg76
(lp303
S'domain'
p304
asbag69
(g90
g71
NtRp305
(dp306
g74
(dp307
g101
g102
ssg83
g296
sg76
(lp308
S':'
asbag69
(g90
g71
NtRp309
(dp310
g74
(dp311
sg83
g296
sg76
(lp312
g69
(g70
g71
NtRp313
(dp314
g74
(dp315
g82
I3
ssg83
g309
sg76
(lp316
S''
asbasbasbag69
(g85
g71
NtRp317
(dp318
g74
(dp319
sg83
g271
sg76
(lp320
g69
(g90
g71
NtRp321
(dp322
g74
(dp323
g94
g95
ssg83
g317
sg76
(lp324
S'expires'
p325
asbag69
(g90
g71
NtRp326
(dp327
g74
(dp328
g101
g102
ssg83
g317
sg76
(lp329
S':'
asbag69
(g90
g71
NtRp330
(dp331
g74
(dp332
sg83
g317
sg76
(lp333
g69
(g70
g71
NtRp334
(dp335
g74
(dp336
g82
I3
ssg83
g330
sg76
(lp337
S''
asbasbasbag69
(g85
g71
NtRp338
(dp339
g74
(dp340
sg83
g271
sg76
(lp341
g69
(g90
g71
NtRp342
(dp343
g74
(dp344
g94
g95
ssg83
g338
sg76
(lp345
S'httponly'
p346
asbag69
(g90
g71
NtRp347
(dp348
g74
(dp349
g101
g102
ssg83
g338
sg76
(lp350
S':'
asbag69
(g90
g71
NtRp351
(dp352
g74
(dp353
sg83
g338
sg76
(lp354
g69
(g70
g71
NtRp355
(dp356
g74
(dp357
g82
I3
ssg83
g351
sg76
(lp358
S''
asbasbasbag69
(g85
g71
NtRp359
(dp360
g74
(dp361
sg83
g271
sg76
(lp362
g69
(g90
g71
NtRp363
(dp364
g74
(dp365
g94
g95
ssg83
g359
sg76
(lp366
S'max-age'
p367
asbag69
(g90
g71
NtRp368
(dp369
g74
(dp370
g101
g102
ssg83
g359
sg76
(lp371
S':'
asbag69
(g90
g71
NtRp372
(dp373
g74
(dp374
sg83
g359
sg76
(lp375
g69
(g70
g71
NtRp376
(dp377
g74
(dp378
g82
I3
ssg83
g372
sg76
(lp379
S''
asbasbasbag69
(g85
g71
NtRp380
(dp381
g74
(dp382
sg83
g271
sg76
(lp383
g69
(g90
g71
NtRp384
(dp385
g74
(dp386
g94
g95
ssg83
g380
sg76
(lp387
S'path'
p388
asbag69
(g90
g71
NtRp389
(dp390
g74
(dp391
g101
g102
ssg83
g380
sg76
(lp392
S':'
asbag69
(g90
g71
NtRp393
(dp394
g74
(dp395
sg83
g380
sg76
(lp396
g69
(g70
g71
NtRp397
(dp398
g74
(dp399
g82
I3
ssg83
g393
sg76
(lp400
S''
asbasbasbag69
(g85
g71
NtRp401
(dp402
g74
(dp403
sg83
g271
sg76
(lp404
g69
(g90
g71
NtRp405
(dp406
g74
(dp407
g94
g95
ssg83
g401
sg76
(lp408
S'secure'
p409
asbag69
(g90
g71
NtRp410
(dp411
g74
(dp412
g101
g102
ssg83
g401
sg76
(lp413
S':'
asbag69
(g90
g71
NtRp414
(dp415
g74
(dp416
sg83
g401
sg76
(lp417
g69
(g70
g71
NtRp418
(dp419
g74
(dp420
g82
I3
ssg83
g414
sg76
(lp421
S''
asbasbasbag69
(g85
g71
NtRp422
(dp423
g74
(dp424
sg83
g271
sg76
(lp425
g69
(g90
g71
NtRp426
(dp427
g74
(dp428
g94
g95
ssg83
g422
sg76
(lp429
S'version'
p430
asbag69
(g90
g71
NtRp431
(dp432
g74
(dp433
g101
g102
ssg83
g422
sg76
(lp434
S':'
asbag69
(g90
g71
NtRp435
(dp436
g74
(dp437
sg83
g422
sg76
(lp438
g69
(g70
g71
NtRp439
(dp440
g74
(dp441
g82
I3
ssg83
g435
sg76
(lp442
S''
asbasbasbasbasbasbasbasbasbasbasbag69
(g85
g71
NtRp443
(dp444
g74
(dp445
sg83
g79
sg76
(lp446
g69
(g90
g71
NtRp447
(dp448
g74
(dp449
g94
g95
ssg83
g443
sg76
(lp450
S'env'
p451
asbag69
(g90
g71
NtRp452
(dp453
g74
(dp454
g101
g102
ssg83
g443
sg76
(lp455
S':'
asbag69
(g90
g71
NtRp456
(dp457
g74
(dp458
sg83
g443
sg76
(lp459
g69
(g70
g71
NtRp460
(dp461
g74
(dp462
g82
I5
ssg83
g456
sg76
(lp463
g69
(g78
g71
NtRp464
(dp465
g74
(dp466
g82
I4
ssg83
Nsg76
(lp467
g69
(g85
g71
NtRp468
(dp469
g74
(dp470
sg83
g464
sg76
(lp471
g69
(g90
g71
NtRp472
(dp473
g74
(dp474
g94
g95
ssg83
g468
sg76
(lp475
S'app_folders'
p476
asbag69
(g90
g71
NtRp477
(dp478
g74
(dp479
g101
g102
ssg83
g468
sg76
(lp480
S':'
asbag69
(g90
g71
NtRp481
(dp482
g74
(dp483
sg83
g468
sg76
(lp484
g69
(g70
g71
NtRp485
(dp486
g74
(dp487
g82
I4
ssg83
g481
sg76
(lp488
S"set(['/home/prateek/web2py/applications/phyloShiny/', '/home/prateek/web2py/applications/welcome/'])"
p489
asbasbasbag69
(g85
g71
NtRp490
(dp491
g74
(dp492
sg83
g464
sg76
(lp493
g69
(g90
g71
NtRp494
(dp495
g74
(dp496
g94
g95
ssg83
g490
sg76
(lp497
S'applications_parent'
p498
asbag69
(g90
g71
NtRp499
(dp500
g74
(dp501
g101
g102
ssg83
g490
sg76
(lp502
S':'
asbag69
(g90
g71
NtRp503
(dp504
g74
(dp505
sg83
g490
sg76
(lp506
g69
(g70
g71
NtRp507
(dp508
g74
(dp509
g82
I4
ssg83
g503
sg76
(lp510
S'/home/prateek/web2py'
p511
asbasbasbag69
(g85
g71
NtRp512
(dp513
g74
(dp514
sg83
g464
sg76
(lp515
g69
(g90
g71
NtRp516
(dp517
g74
(dp518
g94
g95
ssg83
g512
sg76
(lp519
S'cmd_args'
p520
asbag69
(g90
g71
NtRp521
(dp522
g74
(dp523
g101
g102
ssg83
g512
sg76
(lp524
S':'
asbag69
(g90
g71
NtRp525
(dp526
g74
(dp527
sg83
g512
sg76
(lp528
g69
(g70
g71
NtRp529
(dp530
g74
(dp531
g82
I4
ssg83
g525
sg76
(lp532
g69
(g78
g71
NtRp533
(dp534
g74
(dp535
g82
I3
ssg83
Nsg76
(lp536
sbasbasbasbag69
(g85
g71
NtRp537
(dp538
g74
(dp539
sg83
g464
sg76
(lp540
g69
(g90
g71
NtRp541
(dp542
g74
(dp543
g94
g95
ssg83
g537
sg76
(lp544
S'cmd_options'
p545
asbag69
(g90
g71
NtRp546
(dp547
g74
(dp548
g101
g102
ssg83
g537
sg76
(lp549
S':'
asbag69
(g90
g71
NtRp550
(dp551
g74
(dp552
sg83
g537
sg76
(lp553
g69
(g70
g71
NtRp554
(dp555
g74
(dp556
g82
I4
ssg83
g550
sg76
(lp557
S"<Values at 0x8e875ec: {'verbose': False, 'ip': '127.0.0.1', 'shutdown_timeout': 5, 'taskbar': False, 'port': 8000, 'maxthreads': None, 'softcron': False, 'server_name': 'prateek-Inspiron-N5110', 'bpython': False, 'nogui': False, 'nocron': False, 'extcron': False, 'debuglevel': 30, 'test': None, 'folder': '/home/prateek/web2py', 'config': '', 'import_models': False, 'winservice': '', 'shell': None, 'run': '', 'log_filename': 'httpserver.log', 'args': [''], 'socket_timeout': 1, 'profiler_filename': None, 'ssl_private_key': '', 'password': '<ask>', 'request_queue_size': 5, 'ssl_certificate': '', 'cronjob': False, 'plain': False, 'quiet': False, 'interfaces': None, 'minthreads': None, 'timeout': 10, 'numthreads': None, 'nobanner': False, 'pid_filename': 'httpserver.pid'}>"
p558
asbasbasbag69
(g85
g71
NtRp559
(dp560
g74
(dp561
sg83
g464
sg76
(lp562
g69
(g90
g71
NtRp563
(dp564
g74
(dp565
g94
g95
ssg83
g559
sg76
(lp566
S'db_sessions'
p567
asbag69
(g90
g71
NtRp568
(dp569
g74
(dp570
g101
g102
ssg83
g559
sg76
(lp571
S':'
asbag69
(g90
g71
NtRp572
(dp573
g74
(dp574
sg83
g559
sg76
(lp575
g69
(g70
g71
NtRp576
(dp577
g74
(dp578
g82
I4
ssg83
g572
sg76
(lp579
S'set([])'
p580
asbasbasbag69
(g85
g71
NtRp581
(dp582
g74
(dp583
sg83
g464
sg76
(lp584
g69
(g90
g71
NtRp585
(dp586
g74
(dp587
g94
g95
ssg83
g581
sg76
(lp588
S'debugging'
p589
asbag69
(g90
g71
NtRp590
(dp591
g74
(dp592
g101
g102
ssg83
g581
sg76
(lp593
S':'
asbag69
(g90
g71
NtRp594
(dp595
g74
(dp596
sg83
g581
sg76
(lp597
g69
(g70
g71
NtRp598
(dp599
g74
(dp600
g82
I4
ssg83
g594
sg76
(lp601
S'False'
p602
asbasbasbag69
(g85
g71
NtRp603
(dp604
g74
(dp605
sg83
g464
sg76
(lp606
g69
(g90
g71
NtRp607
(dp608
g74
(dp609
g94
g95
ssg83
g603
sg76
(lp610
S'gluon_parent'
p611
asbag69
(g90
g71
NtRp612
(dp613
g74
(dp614
g101
g102
ssg83
g603
sg76
(lp615
S':'
asbag69
(g90
g71
NtRp616
(dp617
g74
(dp618
sg83
g603
sg76
(lp619
g69
(g70
g71
NtRp620
(dp621
g74
(dp622
g82
I4
ssg83
g616
sg76
(lp623
S'/usr/share/web2py'
p624
asbasbasbag69
(g85
g71
NtRp625
(dp626
g74
(dp627
sg83
g464
sg76
(lp628
g69
(g90
g71
NtRp629
(dp630
g74
(dp631
g94
g95
ssg83
g625
sg76
(lp632
S'http_accept'
p633
asbag69
(g90
g71
NtRp634
(dp635
g74
(dp636
g101
g102
ssg83
g625
sg76
(lp637
S':'
asbag69
(g90
g71
NtRp638
(dp639
g74
(dp640
sg83
g625
sg76
(lp641
g69
(g70
g71
NtRp642
(dp643
g74
(dp644
g82
I4
ssg83
g638
sg76
(lp645
S'*/*'
p646
asbasbasbag69
(g85
g71
NtRp647
(dp648
g74
(dp649
sg83
g464
sg76
(lp650
g69
(g90
g71
NtRp651
(dp652
g74
(dp653
g94
g95
ssg83
g647
sg76
(lp654
S'http_accept_encoding'
p655
asbag69
(g90
g71
NtRp656
(dp657
g74
(dp658
g101
g102
ssg83
g647
sg76
(lp659
S':'
asbag69
(g90
g71
NtRp660
(dp661
g74
(dp662
sg83
g647
sg76
(lp663
g69
(g70
g71
NtRp664
(dp665
g74
(dp666
g82
I4
ssg83
g660
sg76
(lp667
S'gzip, deflate'
p668
asbasbasbag69
(g85
g71
NtRp669
(dp670
g74
(dp671
sg83
g464
sg76
(lp672
g69
(g90
g71
NtRp673
(dp674
g74
(dp675
g94
g95
ssg83
g669
sg76
(lp676
S'http_accept_language'
p677
asbag69
(g90
g71
NtRp678
(dp679
g74
(dp680
g101
g102
ssg83
g669
sg76
(lp681
S':'
asbag69
(g90
g71
NtRp682
(dp683
g74
(dp684
sg83
g669
sg76
(lp685
g69
(g70
g71
NtRp686
(dp687
g74
(dp688
g82
I4
ssg83
g682
sg76
(lp689
S'en-US,en;q=0.5'
p690
asbasbasbag69
(g85
g71
NtRp691
(dp692
g74
(dp693
sg83
g464
sg76
(lp694
g69
(g90
g71
NtRp695
(dp696
g74
(dp697
g94
g95
ssg83
g691
sg76
(lp698
S'http_connection'
p699
asbag69
(g90
g71
NtRp700
(dp701
g74
(dp702
g101
g102
ssg83
g691
sg76
(lp703
S':'
asbag69
(g90
g71
NtRp704
(dp705
g74
(dp706
sg83
g691
sg76
(lp707
g69
(g70
g71
NtRp708
(dp709
g74
(dp710
g82
I4
ssg83
g704
sg76
(lp711
S'keep-alive'
p712
asbasbasbag69
(g85
g71
NtRp713
(dp714
g74
(dp715
sg83
g464
sg76
(lp716
g69
(g90
g71
NtRp717
(dp718
g74
(dp719
g94
g95
ssg83
g713
sg76
(lp720
S'http_cookie'
p721
asbag69
(g90
g71
NtRp722
(dp723
g74
(dp724
g101
g102
ssg83
g713
sg76
(lp725
S':'
asbag69
(g90
g71
NtRp726
(dp727
g74
(dp728
sg83
g713
sg76
(lp729
g69
(g70
g71
NtRp730
(dp731
g74
(dp732
g82
I4
ssg83
g726
sg76
(lp733
S'session_id_phyloshiny=127.0.0.1-9965d6dd-a56e-48f6-b9ba-4a88a04ac5f7'
p734
asbasbasbag69
(g85
g71
NtRp735
(dp736
g74
(dp737
sg83
g464
sg76
(lp738
g69
(g90
g71
NtRp739
(dp740
g74
(dp741
g94
g95
ssg83
g735
sg76
(lp742
S'http_host'
p743
asbag69
(g90
g71
NtRp744
(dp745
g74
(dp746
g101
g102
ssg83
g735
sg76
(lp747
S':'
asbag69
(g90
g71
NtRp748
(dp749
g74
(dp750
sg83
g735
sg76
(lp751
g69
(g70
g71
NtRp752
(dp753
g74
(dp754
g82
I4
ssg83
g748
sg76
(lp755
S'127.0.0.1:8000'
p756
asbasbasbag69
(g85
g71
NtRp757
(dp758
g74
(dp759
sg83
g464
sg76
(lp760
g69
(g90
g71
NtRp761
(dp762
g74
(dp763
g94
g95
ssg83
g757
sg76
(lp764
S'http_referer'
p765
asbag69
(g90
g71
NtRp766
(dp767
g74
(dp768
g101
g102
ssg83
g757
sg76
(lp769
S':'
asbag69
(g90
g71
NtRp770
(dp771
g74
(dp772
sg83
g757
sg76
(lp773
g69
(g70
g71
NtRp774
(dp775
g74
(dp776
g82
I4
ssg83
g770
sg76
(lp777
S'http://127.0.0.1:8000/phyloShiny/reconciliotastic/index'
p778
asbasbasbag69
(g85
g71
NtRp779
(dp780
g74
(dp781
sg83
g464
sg76
(lp782
g69
(g90
g71
NtRp783
(dp784
g74
(dp785
g94
g95
ssg83
g779
sg76
(lp786
S'http_user_agent'
p787
asbag69
(g90
g71
NtRp788
(dp789
g74
(dp790
g101
g102
ssg83
g779
sg76
(lp791
S':'
asbag69
(g90
g71
NtRp792
(dp793
g74
(dp794
sg83
g779
sg76
(lp795
g69
(g70
g71
NtRp796
(dp797
g74
(dp798
g82
I4
ssg83
g792
sg76
(lp799
S'Mozilla/5.0 (X11; Ubuntu; Linux i686; rv:20.0) Gecko/20100101 Firefox/20.0'
p800
asbasbasbag69
(g85
g71
NtRp801
(dp802
g74
(dp803
sg83
g464
sg76
(lp804
g69
(g90
g71
NtRp805
(dp806
g74
(dp807
g94
g95
ssg83
g801
sg76
(lp808
S'http_x_requested_with'
p809
asbag69
(g90
g71
NtRp810
(dp811
g74
(dp812
g101
g102
ssg83
g801
sg76
(lp813
S':'
asbag69
(g90
g71
NtRp814
(dp815
g74
(dp816
sg83
g801
sg76
(lp817
g69
(g70
g71
NtRp818
(dp819
g74
(dp820
g82
I4
ssg83
g814
sg76
(lp821
S'XMLHttpRequest'
p822
asbasbasbag69
(g85
g71
NtRp823
(dp824
g74
(dp825
sg83
g464
sg76
(lp826
g69
(g90
g71
NtRp827
(dp828
g74
(dp829
g94
g95
ssg83
g823
sg76
(lp830
S'is_jython'
p831
asbag69
(g90
g71
NtRp832
(dp833
g74
(dp834
g101
g102
ssg83
g823
sg76
(lp835
S':'
asbag69
(g90
g71
NtRp836
(dp837
g74
(dp838
sg83
g823
sg76
(lp839
g69
(g70
g71
NtRp840
(dp841
g74
(dp842
g82
I4
ssg83
g836
sg76
(lp843
g602
asbasbasbag69
(g85
g71
NtRp844
(dp845
g74
(dp846
sg83
g464
sg76
(lp847
g69
(g90
g71
NtRp848
(dp849
g74
(dp850
g94
g95
ssg83
g844
sg76
(lp851
S'is_pypy'
p852
asbag69
(g90
g71
NtRp853
(dp854
g74
(dp855
g101
g102
ssg83
g844
sg76
(lp856
S':'
asbag69
(g90
g71
NtRp857
(dp858
g74
(dp859
sg83
g844
sg76
(lp860
g69
(g70
g71
NtRp861
(dp862
g74
(dp863
g82
I4
ssg83
g857
sg76
(lp864
g602
asbasbasbag69
(g85
g71
NtRp865
(dp866
g74
(dp867
sg83
g464
sg76
(lp868
g69
(g90
g71
NtRp869
(dp870
g74
(dp871
g94
g95
ssg83
g865
sg76
(lp872
S'path_info'
p873
asbag69
(g90
g71
NtRp874
(dp875
g74
(dp876
g101
g102
ssg83
g865
sg76
(lp877
S':'
asbag69
(g90
g71
NtRp878
(dp879
g74
(dp880
sg83
g865
sg76
(lp881
g69
(g70
g71
NtRp882
(dp883
g74
(dp884
g82
I4
ssg83
g878
sg76
(lp885
S'/phyloShiny/reconciliotastic/getPhylotasticTree'
p886
asbasbasbag69
(g85
g71
NtRp887
(dp888
g74
(dp889
sg83
g464
sg76
(lp890
g69
(g90
g71
NtRp891
(dp892
g74
(dp893
g94
g95
ssg83
g887
sg76
(lp894
S'query_string'
p895
asbag69
(g90
g71
NtRp896
(dp897
g74
(dp898
g101
g102
ssg83
g887
sg76
(lp899
S':'
asbag69
(g90
g71
NtRp900
(dp901
g74
(dp902
sg83
g887
sg76
(lp903
g69
(g70
g71
NtRp904
(dp905
g74
(dp906
g82
I4
ssg83
g900
sg76
(lp907
S'treeFileName=static%2Fsample_data%2Fdemo_Mammal_Hemoglobin_Pruned%2Finput_genetree.nwk.txt'
p908
asbasbasbag69
(g85
g71
NtRp909
(dp910
g74
(dp911
sg83
g464
sg76
(lp912
g69
(g90
g71
NtRp913
(dp914
g74
(dp915
g94
g95
ssg83
g909
sg76
(lp916
S'remote_addr'
p917
asbag69
(g90
g71
NtRp918
(dp919
g74
(dp920
g101
g102
ssg83
g909
sg76
(lp921
S':'
asbag69
(g90
g71
NtRp922
(dp923
g74
(dp924
sg83
g909
sg76
(lp925
g69
(g70
g71
NtRp926
(dp927
g74
(dp928
g82
I4
ssg83
g922
sg76
(lp929
g202
asbasbasbag69
(g85
g71
NtRp930
(dp931
g74
(dp932
sg83
g464
sg76
(lp933
g69
(g90
g71
NtRp934
(dp935
g74
(dp936
g94
g95
ssg83
g930
sg76
(lp937
S'remote_port'
p938
asbag69
(g90
g71
NtRp939
(dp940
g74
(dp941
g101
g102
ssg83
g930
sg76
(lp942
S':'
asbag69
(g90
g71
NtRp943
(dp944
g74
(dp945
sg83
g930
sg76
(lp946
g69
(g70
g71
NtRp947
(dp948
g74
(dp949
g82
I4
ssg83
g943
sg76
(lp950
S'38871'
p951
asbasbasbag69
(g85
g71
NtRp952
(dp953
g74
(dp954
sg83
g464
sg76
(lp955
g69
(g90
g71
NtRp956
(dp957
g74
(dp958
g94
g95
ssg83
g952
sg76
(lp959
S'request_method'
p960
asbag69
(g90
g71
NtRp961
(dp962
g74
(dp963
g101
g102
ssg83
g952
sg76
(lp964
S':'
asbag69
(g90
g71
NtRp965
(dp966
g74
(dp967
sg83
g952
sg76
(lp968
g69
(g70
g71
NtRp969
(dp970
g74
(dp971
g82
I4
ssg83
g965
sg76
(lp972
S'GET'
p973
asbasbasbag69
(g85
g71
NtRp974
(dp975
g74
(dp976
sg83
g464
sg76
(lp977
g69
(g90
g71
NtRp978
(dp979
g74
(dp980
g94
g95
ssg83
g974
sg76
(lp981
S'script_name'
p982
asbag69
(g90
g71
NtRp983
(dp984
g74
(dp985
g101
g102
ssg83
g974
sg76
(lp986
S':'
asbag69
(g90
g71
NtRp987
(dp988
g74
(dp989
sg83
g974
sg76
(lp990
g69
(g70
g71
NtRp991
(dp992
g74
(dp993
g82
I4
ssg83
g987
sg76
(lp994
S''
asbasbasbag69
(g85
g71
NtRp995
(dp996
g74
(dp997
sg83
g464
sg76
(lp998
g69
(g90
g71
NtRp999
(dp1000
g74
(dp1001
g94
g95
ssg83
g995
sg76
(lp1002
S'server_name'
p1003
asbag69
(g90
g71
NtRp1004
(dp1005
g74
(dp1006
g101
g102
ssg83
g995
sg76
(lp1007
S':'
asbag69
(g90
g71
NtRp1008
(dp1009
g74
(dp1010
sg83
g995
sg76
(lp1011
g69
(g70
g71
NtRp1012
(dp1013
g74
(dp1014
g82
I4
ssg83
g1008
sg76
(lp1015
S'prateek-Inspiron-N5110'
p1016
asbasbasbag69
(g85
g71
NtRp1017
(dp1018
g74
(dp1019
sg83
g464
sg76
(lp1020
g69
(g90
g71
NtRp1021
(dp1022
g74
(dp1023
g94
g95
ssg83
g1017
sg76
(lp1024
S'server_port'
p1025
asbag69
(g90
g71
NtRp1026
(dp1027
g74
(dp1028
g101
g102
ssg83
g1017
sg76
(lp1029
S':'
asbag69
(g90
g71
NtRp1030
(dp1031
g74
(dp1032
sg83
g1017
sg76
(lp1033
g69
(g70
g71
NtRp1034
(dp1035
g74
(dp1036
g82
I4
ssg83
g1030
sg76
(lp1037
S'8000'
p1038
asbasbasbag69
(g85
g71
NtRp1039
(dp1040
g74
(dp1041
sg83
g464
sg76
(lp1042
g69
(g90
g71
NtRp1043
(dp1044
g74
(dp1045
g94
g95
ssg83
g1039
sg76
(lp1046
S'server_protocol'
p1047
asbag69
(g90
g71
NtRp1048
(dp1049
g74
(dp1050
g101
g102
ssg83
g1039
sg76
(lp1051
S':'
asbag69
(g90
g71
NtRp1052
(dp1053
g74
(dp1054
sg83
g1039
sg76
(lp1055
g69
(g70
g71
NtRp1056
(dp1057
g74
(dp1058
g82
I4
ssg83
g1052
sg76
(lp1059
S'HTTP/1.1'
p1060
asbasbasbag69
(g85
g71
NtRp1061
(dp1062
g74
(dp1063
sg83
g464
sg76
(lp1064
g69
(g90
g71
NtRp1065
(dp1066
g74
(dp1067
g94
g95
ssg83
g1061
sg76
(lp1068
S'server_software'
p1069
asbag69
(g90
g71
NtRp1070
(dp1071
g74
(dp1072
g101
g102
ssg83
g1061
sg76
(lp1073
S':'
asbag69
(g90
g71
NtRp1074
(dp1075
g74
(dp1076
sg83
g1061
sg76
(lp1077
g69
(g70
g71
NtRp1078
(dp1079
g74
(dp1080
g82
I4
ssg83
g1074
sg76
(lp1081
S'Rocket 1.2.4'
p1082
asbasbasbag69
(g85
g71
NtRp1083
(dp1084
g74
(dp1085
sg83
g464
sg76
(lp1086
g69
(g90
g71
NtRp1087
(dp1088
g74
(dp1089
g94
g95
ssg83
g1083
sg76
(lp1090
S'web2py_crontype'
p1091
asbag69
(g90
g71
NtRp1092
(dp1093
g74
(dp1094
g101
g102
ssg83
g1083
sg76
(lp1095
S':'
asbag69
(g90
g71
NtRp1096
(dp1097
g74
(dp1098
sg83
g1083
sg76
(lp1099
g69
(g70
g71
NtRp1100
(dp1101
g74
(dp1102
g82
I4
ssg83
g1096
sg76
(lp1103
S'hard'
p1104
asbasbasbag69
(g85
g71
NtRp1105
(dp1106
g74
(dp1107
sg83
g464
sg76
(lp1108
g69
(g90
g71
NtRp1109
(dp1110
g74
(dp1111
g94
g95
ssg83
g1105
sg76
(lp1112
S'web2py_path'
p1113
asbag69
(g90
g71
NtRp1114
(dp1115
g74
(dp1116
g101
g102
ssg83
g1105
sg76
(lp1117
S':'
asbag69
(g90
g71
NtRp1118
(dp1119
g74
(dp1120
sg83
g1105
sg76
(lp1121
g69
(g70
g71
NtRp1122
(dp1123
g74
(dp1124
g82
I4
ssg83
g1118
sg76
(lp1125
g511
asbasbasbag69
(g85
g71
NtRp1126
(dp1127
g74
(dp1128
sg83
g464
sg76
(lp1129
g69
(g90
g71
NtRp1130
(dp1131
g74
(dp1132
g94
g95
ssg83
g1126
sg76
(lp1133
S'web2py_version'
p1134
asbag69
(g90
g71
NtRp1135
(dp1136
g74
(dp1137
g101
g102
ssg83
g1126
sg76
(lp1138
S':'
asbag69
(g90
g71
NtRp1139
(dp1140
g74
(dp1141
sg83
g1126
sg76
(lp1142
g69
(g70
g71
NtRp1143
(dp1144
g74
(dp1145
g82
I4
ssg83
g1139
sg76
(lp1146
g69
(g78
g71
NtRp1147
(dp1148
g74
(dp1149
g82
I3
ssg83
Nsg76
(lp1150
g69
(g85
g71
NtRp1151
(dp1152
g74
(dp1153
sg83
g1147
sg76
(lp1154
g69
(g90
g71
NtRp1155
(dp1156
g74
(dp1157
sg83
g1151
sg76
(lp1158
g69
(g70
g71
NtRp1159
(dp1160
g74
(dp1161
g82
I3
ssg83
g1155
sg76
(lp1162
S'1'
asbasbasbag69
(g85
g71
NtRp1163
(dp1164
g74
(dp1165
sg83
g1147
sg76
(lp1166
g69
(g90
g71
NtRp1167
(dp1168
g74
(dp1169
sg83
g1163
sg76
(lp1170
g69
(g70
g71
NtRp1171
(dp1172
g74
(dp1173
g82
I3
ssg83
g1167
sg76
(lp1174
S'99'
p1175
asbasbasbag69
(g85
g71
NtRp1176
(dp1177
g74
(dp1178
sg83
g1147
sg76
(lp1179
g69
(g90
g71
NtRp1180
(dp1181
g74
(dp1182
sg83
g1176
sg76
(lp1183
g69
(g70
g71
NtRp1184
(dp1185
g74
(dp1186
g82
I3
ssg83
g1180
sg76
(lp1187
S'4'
asbasbasbag69
(g85
g71
NtRp1188
(dp1189
g74
(dp1190
sg83
g1147
sg76
(lp1191
g69
(g90
g71
NtRp1192
(dp1193
g74
(dp1194
sg83
g1188
sg76
(lp1195
g69
(g70
g71
NtRp1196
(dp1197
g74
(dp1198
g82
I3
ssg83
g1192
sg76
(lp1199
S'datetime.datetime(2011, 12, 14, 14, 46, 14)'
p1200
asbasbasbag69
(g85
g71
NtRp1201
(dp1202
g74
(dp1203
sg83
g1147
sg76
(lp1204
g69
(g90
g71
NtRp1205
(dp1206
g74
(dp1207
sg83
g1201
sg76
(lp1208
g69
(g70
g71
NtRp1209
(dp1210
g74
(dp1211
g82
I3
ssg83
g1205
sg76
(lp1212
S'stable'
p1213
asbasbasbasbasbasbasbag69
(g85
g71
NtRp1214
(dp1215
g74
(dp1216
sg83
g464
sg76
(lp1217
g69
(g90
g71
NtRp1218
(dp1219
g74
(dp1220
g94
g95
ssg83
g1214
sg76
(lp1221
S'wsgi_errors'
p1222
asbag69
(g90
g71
NtRp1223
(dp1224
g74
(dp1225
g101
g102
ssg83
g1214
sg76
(lp1226
S':'
asbag69
(g90
g71
NtRp1227
(dp1228
g74
(dp1229
sg83
g1214
sg76
(lp1230
g69
(g70
g71
NtRp1231
(dp1232
g74
(dp1233
g82
I4
ssg83
g1227
sg76
(lp1234
S"<open file '<stderr>', mode 'w' at 0xb73210d0>"
p1235
asbasbasbag69
(g85
g71
NtRp1236
(dp1237
g74
(dp1238
sg83
g464
sg76
(lp1239
g69
(g90
g71
NtRp1240
(dp1241
g74
(dp1242
g94
g95
ssg83
g1236
sg76
(lp1243
S'wsgi_file_wrapper'
p1244
asbag69
(g90
g71
NtRp1245
(dp1246
g74
(dp1247
g101
g102
ssg83
g1236
sg76
(lp1248
S':'
asbag69
(g90
g71
NtRp1249
(dp1250
g74
(dp1251
sg83
g1236
sg76
(lp1252
g69
(g70
g71
NtRp1253
(dp1254
g74
(dp1255
g82
I4
ssg83
g1249
sg76
(lp1256
S'<class wsgiref.util.FileWrapper at 0x8c4f23c>'
p1257
asbasbasbag69
(g85
g71
NtRp1258
(dp1259
g74
(dp1260
sg83
g464
sg76
(lp1261
g69
(g90
g71
NtRp1262
(dp1263
g74
(dp1264
g94
g95
ssg83
g1258
sg76
(lp1265
S'wsgi_input'
p1266
asbag69
(g90
g71
NtRp1267
(dp1268
g74
(dp1269
g101
g102
ssg83
g1258
sg76
(lp1270
S':'
asbag69
(g90
g71
NtRp1271
(dp1272
g74
(dp1273
sg83
g1258
sg76
(lp1274
g69
(g70
g71
NtRp1275
(dp1276
g74
(dp1277
g82
I4
ssg83
g1271
sg76
(lp1278
S'<socket._fileobject object at 0xab755f6c>'
p1279
asbasbasbag69
(g85
g71
NtRp1280
(dp1281
g74
(dp1282
sg83
g464
sg76
(lp1283
g69
(g90
g71
NtRp1284
(dp1285
g74
(dp1286
g94
g95
ssg83
g1280
sg76
(lp1287
S'wsgi_multiprocess'
p1288
asbag69
(g90
g71
NtRp1289
(dp1290
g74
(dp1291
g101
g102
ssg83
g1280
sg76
(lp1292
S':'
asbag69
(g90
g71
NtRp1293
(dp1294
g74
(dp1295
sg83
g1280
sg76
(lp1296
g69
(g70
g71
NtRp1297
(dp1298
g74
(dp1299
g82
I4
ssg83
g1293
sg76
(lp1300
g602
asbasbasbag69
(g85
g71
NtRp1301
(dp1302
g74
(dp1303
sg83
g464
sg76
(lp1304
g69
(g90
g71
NtRp1305
(dp1306
g74
(dp1307
g94
g95
ssg83
g1301
sg76
(lp1308
S'wsgi_multithread'
p1309
asbag69
(g90
g71
NtRp1310
(dp1311
g74
(dp1312
g101
g102
ssg83
g1301
sg76
(lp1313
S':'
asbag69
(g90
g71
NtRp1314
(dp1315
g74
(dp1316
sg83
g1301
sg76
(lp1317
g69
(g70
g71
NtRp1318
(dp1319
g74
(dp1320
g82
I4
ssg83
g1314
sg76
(lp1321
g112
asbasbasbag69
(g85
g71
NtRp1322
(dp1323
g74
(dp1324
sg83
g464
sg76
(lp1325
g69
(g90
g71
NtRp1326
(dp1327
g74
(dp1328
g94
g95
ssg83
g1322
sg76
(lp1329
S'wsgi_run_once'
p1330
asbag69
(g90
g71
NtRp1331
(dp1332
g74
(dp1333
g101
g102
ssg83
g1322
sg76
(lp1334
S':'
asbag69
(g90
g71
NtRp1335
(dp1336
g74
(dp1337
sg83
g1322
sg76
(lp1338
g69
(g70
g71
NtRp1339
(dp1340
g74
(dp1341
g82
I4
ssg83
g1335
sg76
(lp1342
g602
asbasbasbag69
(g85
g71
NtRp1343
(dp1344
g74
(dp1345
sg83
g464
sg76
(lp1346
g69
(g90
g71
NtRp1347
(dp1348
g74
(dp1349
g94
g95
ssg83
g1343
sg76
(lp1350
S'wsgi_url_scheme'
p1351
asbag69
(g90
g71
NtRp1352
(dp1353
g74
(dp1354
g101
g102
ssg83
g1343
sg76
(lp1355
S':'
asbag69
(g90
g71
NtRp1356
(dp1357
g74
(dp1358
sg83
g1343
sg76
(lp1359
g69
(g70
g71
NtRp1360
(dp1361
g74
(dp1362
g82
I4
ssg83
g1356
sg76
(lp1363
S'http'
p1364
asbasbasbag69
(g85
g71
NtRp1365
(dp1366
g74
(dp1367
sg83
g464
sg76
(lp1368
g69
(g90
g71
NtRp1369
(dp1370
g74
(dp1371
g94
g95
ssg83
g1365
sg76
(lp1372
S'wsgi_version'
p1373
asbag69
(g90
g71
NtRp1374
(dp1375
g74
(dp1376
g101
g102
ssg83
g1365
sg76
(lp1377
S':'
asbag69
(g90
g71
NtRp1378
(dp1379
g74
(dp1380
sg83
g1365
sg76
(lp1381
g69
(g70
g71
NtRp1382
(dp1383
g74
(dp1384
g82
I4
ssg83
g1378
sg76
(lp1385
g69
(g78
g71
NtRp1386
(dp1387
g74
(dp1388
g82
I3
ssg83
Nsg76
(lp1389
g69
(g85
g71
NtRp1390
(dp1391
g74
(dp1392
sg83
g1386
sg76
(lp1393
g69
(g90
g71
NtRp1394
(dp1395
g74
(dp1396
sg83
g1390
sg76
(lp1397
g69
(g70
g71
NtRp1398
(dp1399
g74
(dp1400
g82
I3
ssg83
g1394
sg76
(lp1401
S'1'
asbasbasbag69
(g85
g71
NtRp1402
(dp1403
g74
(dp1404
sg83
g1386
sg76
(lp1405
g69
(g90
g71
NtRp1406
(dp1407
g74
(dp1408
sg83
g1402
sg76
(lp1409
g69
(g70
g71
NtRp1410
(dp1411
g74
(dp1412
g82
I3
ssg83
g1406
sg76
(lp1413
S'0'
asbasbasbasbasbasbasbasbasbasbasbag69
(g85
g71
NtRp1414
(dp1415
g74
(dp1416
sg83
g79
sg76
(lp1417
g69
(g90
g71
NtRp1418
(dp1419
g74
(dp1420
g94
g95
ssg83
g1414
sg76
(lp1421
S'extension'
p1422
asbag69
(g90
g71
NtRp1423
(dp1424
g74
(dp1425
g101
g102
ssg83
g1414
sg76
(lp1426
S':'
asbag69
(g90
g71
NtRp1427
(dp1428
g74
(dp1429
sg83
g1414
sg76
(lp1430
g69
(g70
g71
NtRp1431
(dp1432
g74
(dp1433
g82
I5
ssg83
g1427
sg76
(lp1434
S'html'
p1435
asbasbasbag69
(g85
g71
NtRp1436
(dp1437
g74
(dp1438
sg83
g79
sg76
(lp1439
g69
(g90
g71
NtRp1440
(dp1441
g74
(dp1442
g94
g95
ssg83
g1436
sg76
(lp1443
S'folder'
p1444
asbag69
(g90
g71
NtRp1445
(dp1446
g74
(dp1447
g101
g102
ssg83
g1436
sg76
(lp1448
S':'
asbag69
(g90
g71
NtRp1449
(dp1450
g74
(dp1451
sg83
g1436
sg76
(lp1452
g69
(g70
g71
NtRp1453
(dp1454
g74
(dp1455
g82
I5
ssg83
g1449
sg76
(lp1456
S'/home/prateek/web2py/applications/phyloShiny/'
p1457
asbasbasbag69
(g85
g71
NtRp1458
(dp1459
g74
(dp1460
sg83
g79
sg76
(lp1461
g69
(g90
g71
NtRp1462
(dp1463
g74
(dp1464
g94
g95
ssg83
g1458
sg76
(lp1465
S'function'
p1466
asbag69
(g90
g71
NtRp1467
(dp1468
g74
(dp1469
g101
g102
ssg83
g1458
sg76
(lp1470
S':'
asbag69
(g90
g71
NtRp1471
(dp1472
g74
(dp1473
sg83
g1458
sg76
(lp1474
g69
(g70
g71
NtRp1475
(dp1476
g74
(dp1477
g82
I5
ssg83
g1471
sg76
(lp1478
S'getPhylotasticTree'
p1479
asbasbasbag69
(g85
g71
NtRp1480
(dp1481
g74
(dp1482
sg83
g79
sg76
(lp1483
g69
(g90
g71
NtRp1484
(dp1485
g74
(dp1486
g94
g95
ssg83
g1480
sg76
(lp1487
S'get_vars'
p1488
asbag69
(g90
g71
NtRp1489
(dp1490
g74
(dp1491
g101
g102
ssg83
g1480
sg76
(lp1492
S':'
asbag69
(g90
g71
NtRp1493
(dp1494
g74
(dp1495
sg83
g1480
sg76
(lp1496
g69
(g70
g71
NtRp1497
(dp1498
g74
(dp1499
g82
I5
ssg83
g1493
sg76
(lp1500
g69
(g78
g71
NtRp1501
(dp1502
g74
(dp1503
g82
I4
ssg83
Nsg76
(lp1504
g69
(g85
g71
NtRp1505
(dp1506
g74
(dp1507
sg83
g1501
sg76
(lp1508
g69
(g90
g71
NtRp1509
(dp1510
g74
(dp1511
g94
g95
ssg83
g1505
sg76
(lp1512
S'treeFileName'
p1513
asbag69
(g90
g71
NtRp1514
(dp1515
g74
(dp1516
g101
g102
ssg83
g1505
sg76
(lp1517
S':'
asbag69
(g90
g71
NtRp1518
(dp1519
g74
(dp1520
sg83
g1505
sg76
(lp1521
g69
(g70
g71
NtRp1522
(dp1523
g74
(dp1524
g82
I4
ssg83
g1518
sg76
(lp1525
S'static/sample_data/demo_Mammal_Hemoglobin_Pruned/input_genetree.nwk.txt'
p1526
asbasbasbasbasbasbasbag69
(g85
g71
NtRp1527
(dp1528
g74
(dp1529
sg83
g79
sg76
(lp1530
g69
(g90
g71
NtRp1531
(dp1532
g74
(dp1533
g94
g95
ssg83
g1527
sg76
(lp1534
S'global_settings'
p1535
asbag69
(g90
g71
NtRp1536
(dp1537
g74
(dp1538
g101
g102
ssg83
g1527
sg76
(lp1539
S':'
asbag69
(g90
g71
NtRp1540
(dp1541
g74
(dp1542
sg83
g1527
sg76
(lp1543
g69
(g70
g71
NtRp1544
(dp1545
g74
(dp1546
g82
I5
ssg83
g1540
sg76
(lp1547
g69
(g78
g71
NtRp1548
(dp1549
g74
(dp1550
g82
I4
ssg83
Nsg76
(lp1551
g69
(g85
g71
NtRp1552
(dp1553
g74
(dp1554
sg83
g1548
sg76
(lp1555
g69
(g90
g71
NtRp1556
(dp1557
g74
(dp1558
g94
g95
ssg83
g1552
sg76
(lp1559
g476
asbag69
(g90
g71
NtRp1560
(dp1561
g74
(dp1562
g101
g102
ssg83
g1552
sg76
(lp1563
S':'
asbag69
(g90
g71
NtRp1564
(dp1565
g74
(dp1566
sg83
g1552
sg76
(lp1567
g69
(g70
g71
NtRp1568
(dp1569
g74
(dp1570
g82
I4
ssg83
g1564
sg76
(lp1571
S"set(['/home/prateek/web2py/applications/phyloShiny/', '/home/prateek/web2py/applications/welcome/'])"
p1572
asbasbasbag69
(g85
g71
NtRp1573
(dp1574
g74
(dp1575
sg83
g1548
sg76
(lp1576
g69
(g90
g71
NtRp1577
(dp1578
g74
(dp1579
g94
g95
ssg83
g1573
sg76
(lp1580
g498
asbag69
(g90
g71
NtRp1581
(dp1582
g74
(dp1583
g101
g102
ssg83
g1573
sg76
(lp1584
S':'
asbag69
(g90
g71
NtRp1585
(dp1586
g74
(dp1587
sg83
g1573
sg76
(lp1588
g69
(g70
g71
NtRp1589
(dp1590
g74
(dp1591
g82
I4
ssg83
g1585
sg76
(lp1592
g511
asbasbasbag69
(g85
g71
NtRp1593
(dp1594
g74
(dp1595
sg83
g1548
sg76
(lp1596
g69
(g90
g71
NtRp1597
(dp1598
g74
(dp1599
g94
g95
ssg83
g1593
sg76
(lp1600
g520
asbag69
(g90
g71
NtRp1601
(dp1602
g74
(dp1603
g101
g102
ssg83
g1593
sg76
(lp1604
S':'
asbag69
(g90
g71
NtRp1605
(dp1606
g74
(dp1607
sg83
g1593
sg76
(lp1608
g69
(g70
g71
NtRp1609
(dp1610
g74
(dp1611
g82
I4
ssg83
g1605
sg76
(lp1612
g69
(g78
g71
NtRp1613
(dp1614
g74
(dp1615
g82
I3
ssg83
Nsg76
(lp1616
sbasbasbasbag69
(g85
g71
NtRp1617
(dp1618
g74
(dp1619
sg83
g1548
sg76
(lp1620
g69
(g90
g71
NtRp1621
(dp1622
g74
(dp1623
g94
g95
ssg83
g1617
sg76
(lp1624
g545
asbag69
(g90
g71
NtRp1625
(dp1626
g74
(dp1627
g101
g102
ssg83
g1617
sg76
(lp1628
S':'
asbag69
(g90
g71
NtRp1629
(dp1630
g74
(dp1631
sg83
g1617
sg76
(lp1632
g69
(g70
g71
NtRp1633
(dp1634
g74
(dp1635
g82
I4
ssg83
g1629
sg76
(lp1636
S"<Values at 0x8e875ec: {'verbose': False, 'ip': '127.0.0.1', 'shutdown_timeout': 5, 'taskbar': False, 'port': 8000, 'maxthreads': None, 'softcron': False, 'server_name': 'prateek-Inspiron-N5110', 'bpython': False, 'nogui': False, 'nocron': False, 'extcron': False, 'debuglevel': 30, 'test': None, 'folder': '/home/prateek/web2py', 'config': '', 'import_models': False, 'winservice': '', 'shell': None, 'run': '', 'log_filename': 'httpserver.log', 'args': [''], 'socket_timeout': 1, 'profiler_filename': None, 'ssl_private_key': '', 'password': '<ask>', 'request_queue_size': 5, 'ssl_certificate': '', 'cronjob': False, 'plain': False, 'quiet': False, 'interfaces': None, 'minthreads': None, 'timeout': 10, 'numthreads': None, 'nobanner': False, 'pid_filename': 'httpserver.pid'}>"
p1637
asbasbasbag69
(g85
g71
NtRp1638
(dp1639
g74
(dp1640
sg83
g1548
sg76
(lp1641
g69
(g90
g71
NtRp1642
(dp1643
g74
(dp1644
g94
g95
ssg83
g1638
sg76
(lp1645
g567
asbag69
(g90
g71
NtRp1646
(dp1647
g74
(dp1648
g101
g102
ssg83
g1638
sg76
(lp1649
S':'
asbag69
(g90
g71
NtRp1650
(dp1651
g74
(dp1652
sg83
g1638
sg76
(lp1653
g69
(g70
g71
NtRp1654
(dp1655
g74
(dp1656
g82
I4
ssg83
g1650
sg76
(lp1657
S'set([])'
p1658
asbasbasbag69
(g85
g71
NtRp1659
(dp1660
g74
(dp1661
sg83
g1548
sg76
(lp1662
g69
(g90
g71
NtRp1663
(dp1664
g74
(dp1665
g94
g95
ssg83
g1659
sg76
(lp1666
g589
asbag69
(g90
g71
NtRp1667
(dp1668
g74
(dp1669
g101
g102
ssg83
g1659
sg76
(lp1670
S':'
asbag69
(g90
g71
NtRp1671
(dp1672
g74
(dp1673
sg83
g1659
sg76
(lp1674
g69
(g70
g71
NtRp1675
(dp1676
g74
(dp1677
g82
I4
ssg83
g1671
sg76
(lp1678
g602
asbasbasbag69
(g85
g71
NtRp1679
(dp1680
g74
(dp1681
sg83
g1548
sg76
(lp1682
g69
(g90
g71
NtRp1683
(dp1684
g74
(dp1685
g94
g95
ssg83
g1679
sg76
(lp1686
g611
asbag69
(g90
g71
NtRp1687
(dp1688
g74
(dp1689
g101
g102
ssg83
g1679
sg76
(lp1690
S':'
asbag69
(g90
g71
NtRp1691
(dp1692
g74
(dp1693
sg83
g1679
sg76
(lp1694
g69
(g70
g71
NtRp1695
(dp1696
g74
(dp1697
g82
I4
ssg83
g1691
sg76
(lp1698
g624
asbasbasbag69
(g85
g71
NtRp1699
(dp1700
g74
(dp1701
sg83
g1548
sg76
(lp1702
g69
(g90
g71
NtRp1703
(dp1704
g74
(dp1705
g94
g95
ssg83
g1699
sg76
(lp1706
g831
asbag69
(g90
g71
NtRp1707
(dp1708
g74
(dp1709
g101
g102
ssg83
g1699
sg76
(lp1710
S':'
asbag69
(g90
g71
NtRp1711
(dp1712
g74
(dp1713
sg83
g1699
sg76
(lp1714
g69
(g70
g71
NtRp1715
(dp1716
g74
(dp1717
g82
I4
ssg83
g1711
sg76
(lp1718
g602
asbasbasbag69
(g85
g71
NtRp1719
(dp1720
g74
(dp1721
sg83
g1548
sg76
(lp1722
g69
(g90
g71
NtRp1723
(dp1724
g74
(dp1725
g94
g95
ssg83
g1719
sg76
(lp1726
g852
asbag69
(g90
g71
NtRp1727
(dp1728
g74
(dp1729
g101
g102
ssg83
g1719
sg76
(lp1730
S':'
asbag69
(g90
g71
NtRp1731
(dp1732
g74
(dp1733
sg83
g1719
sg76
(lp1734
g69
(g70
g71
NtRp1735
(dp1736
g74
(dp1737
g82
I4
ssg83
g1731
sg76
(lp1738
g602
asbasbasbag69
(g85
g71
NtRp1739
(dp1740
g74
(dp1741
sg83
g1548
sg76
(lp1742
g69
(g90
g71
NtRp1743
(dp1744
g74
(dp1745
g94
g95
ssg83
g1739
sg76
(lp1746
g1091
asbag69
(g90
g71
NtRp1747
(dp1748
g74
(dp1749
g101
g102
ssg83
g1739
sg76
(lp1750
S':'
asbag69
(g90
g71
NtRp1751
(dp1752
g74
(dp1753
sg83
g1739
sg76
(lp1754
g69
(g70
g71
NtRp1755
(dp1756
g74
(dp1757
g82
I4
ssg83
g1751
sg76
(lp1758
g1104
asbasbasbag69
(g85
g71
NtRp1759
(dp1760
g74
(dp1761
sg83
g1548
sg76
(lp1762
g69
(g90
g71
NtRp1763
(dp1764
g74
(dp1765
g94
g95
ssg83
g1759
sg76
(lp1766
g1134
asbag69
(g90
g71
NtRp1767
(dp1768
g74
(dp1769
g101
g102
ssg83
g1759
sg76
(lp1770
S':'
asbag69
(g90
g71
NtRp1771
(dp1772
g74
(dp1773
sg83
g1759
sg76
(lp1774
g69
(g70
g71
NtRp1775
(dp1776
g74
(dp1777
g82
I4
ssg83
g1771
sg76
(lp1778
g69
(g78
g71
NtRp1779
(dp1780
g74
(dp1781
g82
I3
ssg83
Nsg76
(lp1782
g69
(g85
g71
NtRp1783
(dp1784
g74
(dp1785
sg83
g1779
sg76
(lp1786
g69
(g90
g71
NtRp1787
(dp1788
g74
(dp1789
sg83
g1783
sg76
(lp1790
g69
(g70
g71
NtRp1791
(dp1792
g74
(dp1793
g82
I3
ssg83
g1787
sg76
(lp1794
S'1'
asbasbasbag69
(g85
g71
NtRp1795
(dp1796
g74
(dp1797
sg83
g1779
sg76
(lp1798
g69
(g90
g71
NtRp1799
(dp1800
g74
(dp1801
sg83
g1795
sg76
(lp1802
g69
(g70
g71
NtRp1803
(dp1804
g74
(dp1805
g82
I3
ssg83
g1799
sg76
(lp1806
S'99'
p1807
asbasbasbag69
(g85
g71
NtRp1808
(dp1809
g74
(dp1810
sg83
g1779
sg76
(lp1811
g69
(g90
g71
NtRp1812
(dp1813
g74
(dp1814
sg83
g1808
sg76
(lp1815
g69
(g70
g71
NtRp1816
(dp1817
g74
(dp1818
g82
I3
ssg83
g1812
sg76
(lp1819
S'4'
asbasbasbag69
(g85
g71
NtRp1820
(dp1821
g74
(dp1822
sg83
g1779
sg76
(lp1823
g69
(g90
g71
NtRp1824
(dp1825
g74
(dp1826
sg83
g1820
sg76
(lp1827
g69
(g70
g71
NtRp1828
(dp1829
g74
(dp1830
g82
I3
ssg83
g1824
sg76
(lp1831
S'datetime.datetime(2011, 12, 14, 14, 46, 14)'
p1832
asbasbasbag69
(g85
g71
NtRp1833
(dp1834
g74
(dp1835
sg83
g1779
sg76
(lp1836
g69
(g90
g71
NtRp1837
(dp1838
g74
(dp1839
sg83
g1833
sg76
(lp1840
g69
(g70
g71
NtRp1841
(dp1842
g74
(dp1843
g82
I3
ssg83
g1837
sg76
(lp1844
g1213
asbasbasbasbasbasbasbasbasbasbasbag69
(g85
g71
NtRp1845
(dp1846
g74
(dp1847
sg83
g79
sg76
(lp1848
g69
(g90
g71
NtRp1849
(dp1850
g74
(dp1851
g94
g95
ssg83
g1845
sg76
(lp1852
S'is_https'
p1853
asbag69
(g90
g71
NtRp1854
(dp1855
g74
(dp1856
g101
g102
ssg83
g1845
sg76
(lp1857
S':'
asbag69
(g90
g71
NtRp1858
(dp1859
g74
(dp1860
sg83
g1845
sg76
(lp1861
g69
(g70
g71
NtRp1862
(dp1863
g74
(dp1864
g82
I5
ssg83
g1858
sg76
(lp1865
g602
asbasbasbag69
(g85
g71
NtRp1866
(dp1867
g74
(dp1868
sg83
g79
sg76
(lp1869
g69
(g90
g71
NtRp1870
(dp1871
g74
(dp1872
g94
g95
ssg83
g1866
sg76
(lp1873
S'is_local'
p1874
asbag69
(g90
g71
NtRp1875
(dp1876
g74
(dp1877
g101
g102
ssg83
g1866
sg76
(lp1878
S':'
asbag69
(g90
g71
NtRp1879
(dp1880
g74
(dp1881
sg83
g1866
sg76
(lp1882
g69
(g70
g71
NtRp1883
(dp1884
g74
(dp1885
g82
I5
ssg83
g1879
sg76
(lp1886
g112
asbasbasbag69
(g85
g71
NtRp1887
(dp1888
g74
(dp1889
sg83
g79
sg76
(lp1890
g69
(g90
g71
NtRp1891
(dp1892
g74
(dp1893
g94
g95
ssg83
g1887
sg76
(lp1894
S'is_restful'
p1895
asbag69
(g90
g71
NtRp1896
(dp1897
g74
(dp1898
g101
g102
ssg83
g1887
sg76
(lp1899
S':'
asbag69
(g90
g71
NtRp1900
(dp1901
g74
(dp1902
sg83
g1887
sg76
(lp1903
g69
(g70
g71
NtRp1904
(dp1905
g74
(dp1906
g82
I5
ssg83
g1900
sg76
(lp1907
g602
asbasbasbag69
(g85
g71
NtRp1908
(dp1909
g74
(dp1910
sg83
g79
sg76
(lp1911
g69
(g90
g71
NtRp1912
(dp1913
g74
(dp1914
g94
g95
ssg83
g1908
sg76
(lp1915
S'now'
p1916
asbag69
(g90
g71
NtRp1917
(dp1918
g74
(dp1919
g101
g102
ssg83
g1908
sg76
(lp1920
S':'
asbag69
(g90
g71
NtRp1921
(dp1922
g74
(dp1923
sg83
g1908
sg76
(lp1924
g69
(g70
g71
NtRp1925
(dp1926
g74
(dp1927
g82
I5
ssg83
g1921
sg76
(lp1928
S'datetime.datetime(2013, 5, 16, 14, 15, 33, 79419)'
p1929
asbasbasbag69
(g85
g71
NtRp1930
(dp1931
g74
(dp1932
sg83
g79
sg76
(lp1933
g69
(g90
g71
NtRp1934
(dp1935
g74
(dp1936
g94
g95
ssg83
g1930
sg76
(lp1937
S'post_vars'
p1938
asbag69
(g90
g71
NtRp1939
(dp1940
g74
(dp1941
g101
g102
ssg83
g1930
sg76
(lp1942
S':'
asbag69
(g90
g71
NtRp1943
(dp1944
g74
(dp1945
sg83
g1930
sg76
(lp1946
g69
(g70
g71
NtRp1947
(dp1948
g74
(dp1949
g82
I5
ssg83
g1943
sg76
(lp1950
g69
(g78
g71
NtRp1951
(dp1952
g74
(dp1953
g82
I4
ssg83
Nsg76
(lp1954
sbasbasbasbag69
(g85
g71
NtRp1955
(dp1956
g74
(dp1957
sg83
g79
sg76
(lp1958
g69
(g90
g71
NtRp1959
(dp1960
g74
(dp1961
g94
g95
ssg83
g1955
sg76
(lp1962
S'url'
p1963
asbag69
(g90
g71
NtRp1964
(dp1965
g74
(dp1966
g101
g102
ssg83
g1955
sg76
(lp1967
S':'
asbag69
(g90
g71
NtRp1968
(dp1969
g74
(dp1970
sg83
g1955
sg76
(lp1971
g69
(g70
g71
NtRp1972
(dp1973
g74
(dp1974
g82
I5
ssg83
g1968
sg76
(lp1975
S'/phyloShiny/reconciliotastic/getPhylotasticTree'
p1976
asbasbasbag69
(g85
g71
NtRp1977
(dp1978
g74
(dp1979
sg83
g79
sg76
(lp1980
g69
(g90
g71
NtRp1981
(dp1982
g74
(dp1983
g94
g95
ssg83
g1977
sg76
(lp1984
S'utcnow'
p1985
asbag69
(g90
g71
NtRp1986
(dp1987
g74
(dp1988
g101
g102
ssg83
g1977
sg76
(lp1989
S':'
asbag69
(g90
g71
NtRp1990
(dp1991
g74
(dp1992
sg83
g1977
sg76
(lp1993
g69
(g70
g71
NtRp1994
(dp1995
g74
(dp1996
g82
I5
ssg83
g1990
sg76
(lp1997
S'datetime.datetime(2013, 5, 16, 8, 45, 33, 79477)'
p1998
asbasbasbag69
(g85
g71
NtRp1999
(dp2000
g74
(dp2001
sg83
g79
sg76
(lp2002
g69
(g90
g71
NtRp2003
(dp2004
g74
(dp2005
g94
g95
ssg83
g1999
sg76
(lp2006
S'uuid'
p2007
asbag69
(g90
g71
NtRp2008
(dp2009
g74
(dp2010
g101
g102
ssg83
g1999
sg76
(lp2011
S':'
asbag69
(g90
g71
NtRp2012
(dp2013
g74
(dp2014
sg83
g1999
sg76
(lp2015
g69
(g70
g71
NtRp2016
(dp2017
g74
(dp2018
g82
I5
ssg83
g2012
sg76
(lp2019
S'phyloShiny/127.0.0.1.2013-05-16.14-15-33.d6a4f609-4722-4a8d-aab9-1e44c32e364e'
p2020
asbasbasbag69
(g85
g71
NtRp2021
(dp2022
g74
(dp2023
sg83
g79
sg76
(lp2024
g69
(g90
g71
NtRp2025
(dp2026
g74
(dp2027
g94
g95
ssg83
g2021
sg76
(lp2028
S'vars'
p2029
asbag69
(g90
g71
NtRp2030
(dp2031
g74
(dp2032
g101
g102
ssg83
g2021
sg76
(lp2033
S':'
asbag69
(g90
g71
NtRp2034
(dp2035
g74
(dp2036
sg83
g2021
sg76
(lp2037
g69
(g70
g71
NtRp2038
(dp2039
g74
(dp2040
g82
I5
ssg83
g2034
sg76
(lp2041
g69
(g78
g71
NtRp2042
(dp2043
g74
(dp2044
g82
I4
ssg83
Nsg76
(lp2045
g69
(g85
g71
NtRp2046
(dp2047
g74
(dp2048
sg83
g2042
sg76
(lp2049
g69
(g90
g71
NtRp2050
(dp2051
g74
(dp2052
g94
g95
ssg83
g2046
sg76
(lp2053
g1513
asbag69
(g90
g71
NtRp2054
(dp2055
g74
(dp2056
g101
g102
ssg83
g2046
sg76
(lp2057
S':'
asbag69
(g90
g71
NtRp2058
(dp2059
g74
(dp2060
sg83
g2046
sg76
(lp2061
g69
(g70
g71
NtRp2062
(dp2063
g74
(dp2064
g82
I4
ssg83
g2058
sg76
(lp2065
g1526
asbasbasbasbasbasbasbag69
(g85
g71
NtRp2066
(dp2067
g74
(dp2068
sg83
g79
sg76
(lp2069
g69
(g90
g71
NtRp2070
(dp2071
g74
(dp2072
g94
g95
ssg83
g2066
sg76
(lp2073
S'wsgi'
p2074
asbag69
(g90
g71
NtRp2075
(dp2076
g74
(dp2077
g101
g102
ssg83
g2066
sg76
(lp2078
S':'
asbag69
(g90
g71
NtRp2079
(dp2080
g74
(dp2081
sg83
g2066
sg76
(lp2082
g69
(g70
g71
NtRp2083
(dp2084
g74
(dp2085
g82
I5
ssg83
g2079
sg76
(lp2086
g69
(g78
g71
NtRp2087
(dp2088
g74
(dp2089
g82
I4
ssg83
Nsg76
(lp2090
g69
(g85
g71
NtRp2091
(dp2092
g74
(dp2093
sg83
g2087
sg76
(lp2094
g69
(g90
g71
NtRp2095
(dp2096
g74
(dp2097
g94
g95
ssg83
g2091
sg76
(lp2098
S'environ'
p2099
asbag69
(g90
g71
NtRp2100
(dp2101
g74
(dp2102
g101
g102
ssg83
g2091
sg76
(lp2103
S':'
asbag69
(g90
g71
NtRp2104
(dp2105
g74
(dp2106
sg83
g2091
sg76
(lp2107
g69
(g70
g71
NtRp2108
(dp2109
g74
(dp2110
g82
I4
ssg83
g2104
sg76
(lp2111
g69
(g78
g71
NtRp2112
(dp2113
g74
(dp2114
g82
I3
ssg83
Nsg76
(lp2115
g69
(g85
g71
NtRp2116
(dp2117
g74
(dp2118
sg83
g2112
sg76
(lp2119
g69
(g90
g71
NtRp2120
(dp2121
g74
(dp2122
g94
g95
ssg83
g2116
sg76
(lp2123
S'HTTP_ACCEPT'
p2124
asbag69
(g90
g71
NtRp2125
(dp2126
g74
(dp2127
g101
g102
ssg83
g2116
sg76
(lp2128
S':'
asbag69
(g90
g71
NtRp2129
(dp2130
g74
(dp2131
sg83
g2116
sg76
(lp2132
g69
(g70
g71
NtRp2133
(dp2134
g74
(dp2135
g82
I3
ssg83
g2129
sg76
(lp2136
g646
asbasbasbag69
(g85
g71
NtRp2137
(dp2138
g74
(dp2139
sg83
g2112
sg76
(lp2140
g69
(g90
g71
NtRp2141
(dp2142
g74
(dp2143
g94
g95
ssg83
g2137
sg76
(lp2144
S'HTTP_ACCEPT_ENCODING'
p2145
asbag69
(g90
g71
NtRp2146
(dp2147
g74
(dp2148
g101
g102
ssg83
g2137
sg76
(lp2149
S':'
asbag69
(g90
g71
NtRp2150
(dp2151
g74
(dp2152
sg83
g2137
sg76
(lp2153
g69
(g70
g71
NtRp2154
(dp2155
g74
(dp2156
g82
I3
ssg83
g2150
sg76
(lp2157
g668
asbasbasbag69
(g85
g71
NtRp2158
(dp2159
g74
(dp2160
sg83
g2112
sg76
(lp2161
g69
(g90
g71
NtRp2162
(dp2163
g74
(dp2164
g94
g95
ssg83
g2158
sg76
(lp2165
S'HTTP_ACCEPT_LANGUAGE'
p2166
asbag69
(g90
g71
NtRp2167
(dp2168
g74
(dp2169
g101
g102
ssg83
g2158
sg76
(lp2170
S':'
asbag69
(g90
g71
NtRp2171
(dp2172
g74
(dp2173
sg83
g2158
sg76
(lp2174
g69
(g70
g71
NtRp2175
(dp2176
g74
(dp2177
g82
I3
ssg83
g2171
sg76
(lp2178
g690
asbasbasbag69
(g85
g71
NtRp2179
(dp2180
g74
(dp2181
sg83
g2112
sg76
(lp2182
g69
(g90
g71
NtRp2183
(dp2184
g74
(dp2185
g94
g95
ssg83
g2179
sg76
(lp2186
S'HTTP_CONNECTION'
p2187
asbag69
(g90
g71
NtRp2188
(dp2189
g74
(dp2190
g101
g102
ssg83
g2179
sg76
(lp2191
S':'
asbag69
(g90
g71
NtRp2192
(dp2193
g74
(dp2194
sg83
g2179
sg76
(lp2195
g69
(g70
g71
NtRp2196
(dp2197
g74
(dp2198
g82
I3
ssg83
g2192
sg76
(lp2199
g712
asbasbasbag69
(g85
g71
NtRp2200
(dp2201
g74
(dp2202
sg83
g2112
sg76
(lp2203
g69
(g90
g71
NtRp2204
(dp2205
g74
(dp2206
g94
g95
ssg83
g2200
sg76
(lp2207
S'HTTP_COOKIE'
p2208
asbag69
(g90
g71
NtRp2209
(dp2210
g74
(dp2211
g101
g102
ssg83
g2200
sg76
(lp2212
S':'
asbag69
(g90
g71
NtRp2213
(dp2214
g74
(dp2215
sg83
g2200
sg76
(lp2216
g69
(g70
g71
NtRp2217
(dp2218
g74
(dp2219
g82
I3
ssg83
g2213
sg76
(lp2220
g734
asbasbasbag69
(g85
g71
NtRp2221
(dp2222
g74
(dp2223
sg83
g2112
sg76
(lp2224
g69
(g90
g71
NtRp2225
(dp2226
g74
(dp2227
g94
g95
ssg83
g2221
sg76
(lp2228
S'HTTP_HOST'
p2229
asbag69
(g90
g71
NtRp2230
(dp2231
g74
(dp2232
g101
g102
ssg83
g2221
sg76
(lp2233
S':'
asbag69
(g90
g71
NtRp2234
(dp2235
g74
(dp2236
sg83
g2221
sg76
(lp2237
g69
(g70
g71
NtRp2238
(dp2239
g74
(dp2240
g82
I3
ssg83
g2234
sg76
(lp2241
g756
asbasbasbag69
(g85
g71
NtRp2242
(dp2243
g74
(dp2244
sg83
g2112
sg76
(lp2245
g69
(g90
g71
NtRp2246
(dp2247
g74
(dp2248
g94
g95
ssg83
g2242
sg76
(lp2249
S'HTTP_REFERER'
p2250
asbag69
(g90
g71
NtRp2251
(dp2252
g74
(dp2253
g101
g102
ssg83
g2242
sg76
(lp2254
S':'
asbag69
(g90
g71
NtRp2255
(dp2256
g74
(dp2257
sg83
g2242
sg76
(lp2258
g69
(g70
g71
NtRp2259
(dp2260
g74
(dp2261
g82
I3
ssg83
g2255
sg76
(lp2262
g778
asbasbasbag69
(g85
g71
NtRp2263
(dp2264
g74
(dp2265
sg83
g2112
sg76
(lp2266
g69
(g90
g71
NtRp2267
(dp2268
g74
(dp2269
g94
g95
ssg83
g2263
sg76
(lp2270
S'HTTP_USER_AGENT'
p2271
asbag69
(g90
g71
NtRp2272
(dp2273
g74
(dp2274
g101
g102
ssg83
g2263
sg76
(lp2275
S':'
asbag69
(g90
g71
NtRp2276
(dp2277
g74
(dp2278
sg83
g2263
sg76
(lp2279
g69
(g70
g71
NtRp2280
(dp2281
g74
(dp2282
g82
I3
ssg83
g2276
sg76
(lp2283
g800
asbasbasbag69
(g85
g71
NtRp2284
(dp2285
g74
(dp2286
sg83
g2112
sg76
(lp2287
g69
(g90
g71
NtRp2288
(dp2289
g74
(dp2290
g94
g95
ssg83
g2284
sg76
(lp2291
S'HTTP_X_REQUESTED_WITH'
p2292
asbag69
(g90
g71
NtRp2293
(dp2294
g74
(dp2295
g101
g102
ssg83
g2284
sg76
(lp2296
S':'
asbag69
(g90
g71
NtRp2297
(dp2298
g74
(dp2299
sg83
g2284
sg76
(lp2300
g69
(g70
g71
NtRp2301
(dp2302
g74
(dp2303
g82
I3
ssg83
g2297
sg76
(lp2304
g822
asbasbasbag69
(g85
g71
NtRp2305
(dp2306
g74
(dp2307
sg83
g2112
sg76
(lp2308
g69
(g90
g71
NtRp2309
(dp2310
g74
(dp2311
g94
g95
ssg83
g2305
sg76
(lp2312
S'PATH_INFO'
p2313
asbag69
(g90
g71
NtRp2314
(dp2315
g74
(dp2316
g101
g102
ssg83
g2305
sg76
(lp2317
S':'
asbag69
(g90
g71
NtRp2318
(dp2319
g74
(dp2320
sg83
g2305
sg76
(lp2321
g69
(g70
g71
NtRp2322
(dp2323
g74
(dp2324
g82
I3
ssg83
g2318
sg76
(lp2325
g886
asbasbasbag69
(g85
g71
NtRp2326
(dp2327
g74
(dp2328
sg83
g2112
sg76
(lp2329
g69
(g90
g71
NtRp2330
(dp2331
g74
(dp2332
g94
g95
ssg83
g2326
sg76
(lp2333
S'QUERY_STRING'
p2334
asbag69
(g90
g71
NtRp2335
(dp2336
g74
(dp2337
g101
g102
ssg83
g2326
sg76
(lp2338
S':'
asbag69
(g90
g71
NtRp2339
(dp2340
g74
(dp2341
sg83
g2326
sg76
(lp2342
g69
(g70
g71
NtRp2343
(dp2344
g74
(dp2345
g82
I3
ssg83
g2339
sg76
(lp2346
g908
asbasbasbag69
(g85
g71
NtRp2347
(dp2348
g74
(dp2349
sg83
g2112
sg76
(lp2350
g69
(g90
g71
NtRp2351
(dp2352
g74
(dp2353
g94
g95
ssg83
g2347
sg76
(lp2354
S'REMOTE_ADDR'
p2355
asbag69
(g90
g71
NtRp2356
(dp2357
g74
(dp2358
g101
g102
ssg83
g2347
sg76
(lp2359
S':'
asbag69
(g90
g71
NtRp2360
(dp2361
g74
(dp2362
sg83
g2347
sg76
(lp2363
g69
(g70
g71
NtRp2364
(dp2365
g74
(dp2366
g82
I3
ssg83
g2360
sg76
(lp2367
g202
asbasbasbag69
(g85
g71
NtRp2368
(dp2369
g74
(dp2370
sg83
g2112
sg76
(lp2371
g69
(g90
g71
NtRp2372
(dp2373
g74
(dp2374
g94
g95
ssg83
g2368
sg76
(lp2375
S'REMOTE_PORT'
p2376
asbag69
(g90
g71
NtRp2377
(dp2378
g74
(dp2379
g101
g102
ssg83
g2368
sg76
(lp2380
S':'
asbag69
(g90
g71
NtRp2381
(dp2382
g74
(dp2383
sg83
g2368
sg76
(lp2384
g69
(g70
g71
NtRp2385
(dp2386
g74
(dp2387
g82
I3
ssg83
g2381
sg76
(lp2388
g951
asbasbasbag69
(g85
g71
NtRp2389
(dp2390
g74
(dp2391
sg83
g2112
sg76
(lp2392
g69
(g90
g71
NtRp2393
(dp2394
g74
(dp2395
g94
g95
ssg83
g2389
sg76
(lp2396
S'REQUEST_METHOD'
p2397
asbag69
(g90
g71
NtRp2398
(dp2399
g74
(dp2400
g101
g102
ssg83
g2389
sg76
(lp2401
S':'
asbag69
(g90
g71
NtRp2402
(dp2403
g74
(dp2404
sg83
g2389
sg76
(lp2405
g69
(g70
g71
NtRp2406
(dp2407
g74
(dp2408
g82
I3
ssg83
g2402
sg76
(lp2409
g973
asbasbasbag69
(g85
g71
NtRp2410
(dp2411
g74
(dp2412
sg83
g2112
sg76
(lp2413
g69
(g90
g71
NtRp2414
(dp2415
g74
(dp2416
g94
g95
ssg83
g2410
sg76
(lp2417
S'SCRIPT_NAME'
p2418
asbag69
(g90
g71
NtRp2419
(dp2420
g74
(dp2421
g101
g102
ssg83
g2410
sg76
(lp2422
S':'
asbag69
(g90
g71
NtRp2423
(dp2424
g74
(dp2425
sg83
g2410
sg76
(lp2426
g69
(g70
g71
NtRp2427
(dp2428
g74
(dp2429
g82
I3
ssg83
g2423
sg76
(lp2430
S''
asbasbasbag69
(g85
g71
NtRp2431
(dp2432
g74
(dp2433
sg83
g2112
sg76
(lp2434
g69
(g90
g71
NtRp2435
(dp2436
g74
(dp2437
g94
g95
ssg83
g2431
sg76
(lp2438
S'SERVER_NAME'
p2439
asbag69
(g90
g71
NtRp2440
(dp2441
g74
(dp2442
g101
g102
ssg83
g2431
sg76
(lp2443
S':'
asbag69
(g90
g71
NtRp2444
(dp2445
g74
(dp2446
sg83
g2431
sg76
(lp2447
g69
(g70
g71
NtRp2448
(dp2449
g74
(dp2450
g82
I3
ssg83
g2444
sg76
(lp2451
g1016
asbasbasbag69
(g85
g71
NtRp2452
(dp2453
g74
(dp2454
sg83
g2112
sg76
(lp2455
g69
(g90
g71
NtRp2456
(dp2457
g74
(dp2458
g94
g95
ssg83
g2452
sg76
(lp2459
S'SERVER_PORT'
p2460
asbag69
(g90
g71
NtRp2461
(dp2462
g74
(dp2463
g101
g102
ssg83
g2452
sg76
(lp2464
S':'
asbag69
(g90
g71
NtRp2465
(dp2466
g74
(dp2467
sg83
g2452
sg76
(lp2468
g69
(g70
g71
NtRp2469
(dp2470
g74
(dp2471
g82
I3
ssg83
g2465
sg76
(lp2472
g1038
asbasbasbag69
(g85
g71
NtRp2473
(dp2474
g74
(dp2475
sg83
g2112
sg76
(lp2476
g69
(g90
g71
NtRp2477
(dp2478
g74
(dp2479
g94
g95
ssg83
g2473
sg76
(lp2480
S'SERVER_PROTOCOL'
p2481
asbag69
(g90
g71
NtRp2482
(dp2483
g74
(dp2484
g101
g102
ssg83
g2473
sg76
(lp2485
S':'
asbag69
(g90
g71
NtRp2486
(dp2487
g74
(dp2488
sg83
g2473
sg76
(lp2489
g69
(g70
g71
NtRp2490
(dp2491
g74
(dp2492
g82
I3
ssg83
g2486
sg76
(lp2493
g1060
asbasbasbag69
(g85
g71
NtRp2494
(dp2495
g74
(dp2496
sg83
g2112
sg76
(lp2497
g69
(g90
g71
NtRp2498
(dp2499
g74
(dp2500
g94
g95
ssg83
g2494
sg76
(lp2501
S'SERVER_SOFTWARE'
p2502
asbag69
(g90
g71
NtRp2503
(dp2504
g74
(dp2505
g101
g102
ssg83
g2494
sg76
(lp2506
S':'
asbag69
(g90
g71
NtRp2507
(dp2508
g74
(dp2509
sg83
g2494
sg76
(lp2510
g69
(g70
g71
NtRp2511
(dp2512
g74
(dp2513
g82
I3
ssg83
g2507
sg76
(lp2514
g1082
asbasbasbag69
(g85
g71
NtRp2515
(dp2516
g74
(dp2517
sg83
g2112
sg76
(lp2518
g69
(g90
g71
NtRp2519
(dp2520
g74
(dp2521
g94
g95
ssg83
g2515
sg76
(lp2522
S'wsgi.errors'
p2523
asbag69
(g90
g71
NtRp2524
(dp2525
g74
(dp2526
g101
g102
ssg83
g2515
sg76
(lp2527
S':'
asbag69
(g90
g71
NtRp2528
(dp2529
g74
(dp2530
sg83
g2515
sg76
(lp2531
g69
(g70
g71
NtRp2532
(dp2533
g74
(dp2534
g82
I3
ssg83
g2528
sg76
(lp2535
S"<open file '<stderr>', mode 'w' at 0xb73210d0>"
p2536
asbasbasbag69
(g85
g71
NtRp2537
(dp2538
g74
(dp2539
sg83
g2112
sg76
(lp2540
g69
(g90
g71
NtRp2541
(dp2542
g74
(dp2543
g94
g95
ssg83
g2537
sg76
(lp2544
S'wsgi.file_wrapper'
p2545
asbag69
(g90
g71
NtRp2546
(dp2547
g74
(dp2548
g101
g102
ssg83
g2537
sg76
(lp2549
S':'
asbag69
(g90
g71
NtRp2550
(dp2551
g74
(dp2552
sg83
g2537
sg76
(lp2553
g69
(g70
g71
NtRp2554
(dp2555
g74
(dp2556
g82
I3
ssg83
g2550
sg76
(lp2557
S'<class wsgiref.util.FileWrapper at 0x8c4f23c>'
p2558
asbasbasbag69
(g85
g71
NtRp2559
(dp2560
g74
(dp2561
sg83
g2112
sg76
(lp2562
g69
(g90
g71
NtRp2563
(dp2564
g74
(dp2565
g94
g95
ssg83
g2559
sg76
(lp2566
S'wsgi.input'
p2567
asbag69
(g90
g71
NtRp2568
(dp2569
g74
(dp2570
g101
g102
ssg83
g2559
sg76
(lp2571
S':'
asbag69
(g90
g71
NtRp2572
(dp2573
g74
(dp2574
sg83
g2559
sg76
(lp2575
g69
(g70
g71
NtRp2576
(dp2577
g74
(dp2578
g82
I3
ssg83
g2572
sg76
(lp2579
S'<cStringIO.StringO object at 0xab3222e0>'
p2580
asbasbasbag69
(g85
g71
NtRp2581
(dp2582
g74
(dp2583
sg83
g2112
sg76
(lp2584
g69
(g90
g71
NtRp2585
(dp2586
g74
(dp2587
g94
g95
ssg83
g2581
sg76
(lp2588
S'wsgi.multiprocess'
p2589
asbag69
(g90
g71
NtRp2590
(dp2591
g74
(dp2592
g101
g102
ssg83
g2581
sg76
(lp2593
S':'
asbag69
(g90
g71
NtRp2594
(dp2595
g74
(dp2596
sg83
g2581
sg76
(lp2597
g69
(g70
g71
NtRp2598
(dp2599
g74
(dp2600
g82
I3
ssg83
g2594
sg76
(lp2601
g602
asbasbasbag69
(g85
g71
NtRp2602
(dp2603
g74
(dp2604
sg83
g2112
sg76
(lp2605
g69
(g90
g71
NtRp2606
(dp2607
g74
(dp2608
g94
g95
ssg83
g2602
sg76
(lp2609
S'wsgi.multithread'
p2610
asbag69
(g90
g71
NtRp2611
(dp2612
g74
(dp2613
g101
g102
ssg83
g2602
sg76
(lp2614
S':'
asbag69
(g90
g71
NtRp2615
(dp2616
g74
(dp2617
sg83
g2602
sg76
(lp2618
g69
(g70
g71
NtRp2619
(dp2620
g74
(dp2621
g82
I3
ssg83
g2615
sg76
(lp2622
g112
asbasbasbag69
(g85
g71
NtRp2623
(dp2624
g74
(dp2625
sg83
g2112
sg76
(lp2626
g69
(g90
g71
NtRp2627
(dp2628
g74
(dp2629
g94
g95
ssg83
g2623
sg76
(lp2630
S'wsgi.run_once'
p2631
asbag69
(g90
g71
NtRp2632
(dp2633
g74
(dp2634
g101
g102
ssg83
g2623
sg76
(lp2635
S':'
asbag69
(g90
g71
NtRp2636
(dp2637
g74
(dp2638
sg83
g2623
sg76
(lp2639
g69
(g70
g71
NtRp2640
(dp2641
g74
(dp2642
g82
I3
ssg83
g2636
sg76
(lp2643
g602
asbasbasbag69
(g85
g71
NtRp2644
(dp2645
g74
(dp2646
sg83
g2112
sg76
(lp2647
g69
(g90
g71
NtRp2648
(dp2649
g74
(dp2650
g94
g95
ssg83
g2644
sg76
(lp2651
S'wsgi.url_scheme'
p2652
asbag69
(g90
g71
NtRp2653
(dp2654
g74
(dp2655
g101
g102
ssg83
g2644
sg76
(lp2656
S':'
asbag69
(g90
g71
NtRp2657
(dp2658
g74
(dp2659
sg83
g2644
sg76
(lp2660
g69
(g70
g71
NtRp2661
(dp2662
g74
(dp2663
g82
I3
ssg83
g2657
sg76
(lp2664
g1364
asbasbasbag69
(g85
g71
NtRp2665
(dp2666
g74
(dp2667
sg83
g2112
sg76
(lp2668
g69
(g90
g71
NtRp2669
(dp2670
g74
(dp2671
g94
g95
ssg83
g2665
sg76
(lp2672
S'wsgi.version'
p2673
asbag69
(g90
g71
NtRp2674
(dp2675
g74
(dp2676
g101
g102
ssg83
g2665
sg76
(lp2677
S':'
asbag69
(g90
g71
NtRp2678
(dp2679
g74
(dp2680
sg83
g2665
sg76
(lp2681
g69
(g70
g71
NtRp2682
(dp2683
g74
(dp2684
g82
I3
ssg83
g2678
sg76
(lp2685
S'1'
asbasbasbasbasbasbasbasbasbasbasbasbasbsS'frames'
p2686
(lp2687
(dp2688
S'file'
p2689
S'/usr/lib/pymodules/python2.7/gluon/restricted.py'
p2690
sS'dump'
p2691
(dp2692
S'environment'
p2693
S"{'A': <class 'gluon.html.A'>, 'Auth': <class 'gluon.tools.Auth'>, 'B': <class 'gluon.html.B'>, 'BEAUTIFY': <class 'gluon.html.BEAUTIFY'>, 'BODY': <class 'gluon.html.BODY'>, 'BR': <class 'gluon.html.BR'>, 'BUTTON': <class 'gluon.html.BUTTON'>, 'CAT': <class 'gluon.html.CAT'>, 'CENTER': <class 'gluon.html.CENTER'>, 'CLEANUP': <class 'gluon.validators.CLEANUP'>, ...}"
p2694
sS'ccode'
p2695
S'<code object <module> at 0xab51b698, file "/home...oShiny/controllers/reconciliotastic.py", line 11>'
p2696
ssS'lnum'
p2697
I204
sS'lines'
p2698
(dp2699
I199
S'    try:'
p2700
sI200
S'        if type(code) == types.CodeType:'
p2701
sI201
S'            ccode = code'
p2702
sI202
S'        else:'
p2703
sI203
S'            ccode = compile2(code,layer)'
p2704
sI204
S'        exec ccode in environment'
p2705
sI205
S'    except HTTP:'
p2706
sI206
S'        raise'
p2707
sI207
S'    except RestrictedError:'
p2708
sI208
S'        # do not encapsulate (obfuscate) the original RestrictedError'
p2709
ssS'call'
p2710
S"(code='# -*- coding: utf-8 -*-\\n# this file is released ...ponse._vars=response._caller(getPhylotasticTree)\\n', environment={'A': <class 'gluon.html.A'>, 'Auth': <class 'gluon.tools.Auth'>, 'B': <class 'gluon.html.B'>, 'BEAUTIFY': <class 'gluon.html.BEAUTIFY'>, 'BODY': <class 'gluon.html.BODY'>, 'BR': <class 'gluon.html.BR'>, 'BUTTON': <class 'gluon.html.BUTTON'>, 'CAT': <class 'gluon.html.CAT'>, 'CENTER': <class 'gluon.html.CENTER'>, 'CLEANUP': <class 'gluon.validators.CLEANUP'>, ...}, layer='/home/prateek/web2py/applications/phyloShiny/controllers/reconciliotastic.py')"
p2711
sS'func'
p2712
S'restricted'
p2713
sa(dp2714
g2689
S'/home/prateek/web2py/applications/phyloShiny/controllers/reconciliotastic.py'
p2715
sg2691
(dp2716
sg2697
I169
sg2698
(dp2717
I160
S''
sI161
S'    os.system(shellCall)'
p2718
sI162
S''
sI163
S"    reconciledTreeWebFile = getRelativeWebPath('_preprocessed_gene_tree.phylo_gsdi_out.phylo.xml')"
p2719
sI164
S''
sI165
S'    return response.json( dict(vizFile = reconciledTreeWebFile,'
p2720
sI166
S'                               vizLabel = "Reconciled Tree (red=duplication, green=speciation)"'
p2721
sI167
S'                               ) )'
p2722
sI158
S'    shellCall += geneTreeFile'
p2723
sI159
S"    shellCall += ' '+speciesTreeFile"
p2724
ssg2710
S'()'
p2725
sg2712
S'<module>'
p2726
sa(dp2727
g2689
S'/usr/lib/pymodules/python2.7/gluon/globals.py'
p2728
sg2691
(dp2729
S'self'
p2730
S'undefined'
p2731
sS'f'
S'<function getPhylotasticTree>'
p2732
ssg2697
I172
sg2698
(dp2733
I167
S'        self.meta = Storage()      # used by web2py_ajax.html'
p2734
sI168
S'        self.menu = []             # used by the default view layout'
p2735
sI169
S'        self.files = []            # used by web2py_ajax.html'
p2736
sI170
S'        self.generic_patterns = [] # patterns to allow generic views'
p2737
sI171
S'        self._vars = None'
p2738
sI172
S'        self._caller = lambda f: f()'
p2739
sI173
S'        self._view_environment = None'
p2740
sI174
S'        self._custom_commit = None'
p2741
sI175
S'        self._custom_rollback = None'
p2742
sI176
S''
ssg2710
S'(f=<function getPhylotasticTree>)'
p2743
sg2712
S'<lambda>'
p2744
sa(dp2745
g2689
S'/home/prateek/web2py/applications/phyloShiny/controllers/reconciliotastic.py'
p2746
sg2691
(dp2747
S'urllib2.urlopen'
p2748
S'<function urlopen>'
p2749
sS'global urllib2'
p2750
S"<module 'urllib2' from '/usr/lib/python2.7/urllib2.pyc'>"
p2751
sS'conn'
p2752
g2731
sS'speciesTreeUrl'
p2753
S"'http://phylotastic-wg.nescent.org/script/phylota...,Oryctolagus_cuniculus&tree=mammals&format=newick'"
p2754
ssg2697
I112
sg2698
(dp2755
I107
S"    speciesList = [x.replace(' ', '_') for x in speciesList]"
p2756
sI108
S"    speciesString = ','.join(speciesList)"
p2757
sI109
S''
sI110
S"    phylotasticUrlBase = 'http://phylotastic-wg.nescent.org/script/phylotastic.cgi?species='"
p2758
sI111
S"    speciesTreeUrl = phylotasticUrlBase+speciesString+'&tree=mammals&format=newick'"
p2759
sI112
S'    conn = urllib2.urlopen(speciesTreeUrl)'
p2760
sI113
S'    speciesTreeString = conn.read()'
p2761
sI114
S'    speciesTreeString = speciesTreeString.strip()'
p2762
sI115
S''
sI116
S"    speciesTreeFilename = filePrefix+'_species_tree.txt'"
p2763
ssg2710
S'()'
p2764
sg2712
S'getPhylotasticTree'
p2765
sa(dp2766
g2689
S'/usr/lib/python2.7/urllib2.py'
p2767
sg2691
(dp2768
S'_opener.open'
p2769
S'<bound method OpenerDirector.open of <urllib2.OpenerDirector instance>>'
p2770
sS'url'
p2771
S"'http://phylotastic-wg.nescent.org/script/phylota...,Oryctolagus_cuniculus&tree=mammals&format=newick'"
p2772
sS'data'
p2773
S'None'
p2774
sS'global _opener'
p2775
S'<urllib2.OpenerDirector instance>'
p2776
sS'timeout'
p2777
S'<object object>'
p2778
ssg2697
I126
sg2698
(dp2779
I128
S'def install_opener(opener):'
p2780
sI129
S'    global _opener'
p2781
sI130
S'    _opener = opener'
p2782
sI121
S'_opener = None'
p2783
sI122
S'def urlopen(url, data=None, timeout=socket._GLOBAL_DEFAULT_TIMEOUT):'
p2784
sI123
S'    global _opener'
p2785
sI124
S'    if _opener is None:'
p2786
sI125
S'        _opener = build_opener()'
p2787
sI126
S'    return _opener.open(url, data, timeout)'
p2788
sI127
S''
ssg2710
S"(url='http://phylotastic-wg.nescent.org/script/phylota...,Oryctolagus_cuniculus&tree=mammals&format=newick', data=None, timeout=<object object>)"
p2789
sg2712
S'urlopen'
p2790
sa(dp2791
g2689
S'/usr/lib/python2.7/urllib2.py'
p2792
sg2691
(dp2793
S'self'
p2794
S'<urllib2.OpenerDirector instance>'
p2795
sS'req'
p2796
S'<urllib2.Request instance>'
p2797
sS'data'
p2798
S'None'
p2799
sS'response'
p2800
g2731
sS'self._open'
p2801
S'<bound method OpenerDirector._open of <urllib2.OpenerDirector instance>>'
p2802
ssg2697
I400
sg2698
(dp2803
I395
S'        meth_name = protocol+"_request"'
p2804
sI396
S'        for processor in self.process_request.get(protocol, []):'
p2805
sI397
S'            meth = getattr(processor, meth_name)'
p2806
sI398
S'            req = meth(req)'
p2807
sI399
S''
sI400
S'        response = self._open(req, data)'
p2808
sI401
S''
sI402
S'        # post-process response'
p2809
sI403
S'        meth_name = protocol+"_response"'
p2810
sI404
S'        for processor in self.process_response.get(protocol, []):'
p2811
ssg2710
S"(self=<urllib2.OpenerDirector instance>, fullurl='http://phylotastic-wg.nescent.org/script/phylota...,Oryctolagus_cuniculus&tree=mammals&format=newick', data=None, timeout=<object object>)"
p2812
sg2712
S'open'
p2813
sa(dp2814
g2689
S'/usr/lib/python2.7/urllib2.py'
p2815
sg2691
(dp2816
S'req'
p2817
S'<urllib2.Request instance>'
p2818
ssg2697
I418
sg2698
(dp2819
I416
S'        protocol = req.get_type()'
p2820
sI417
S'        result = self._call_chain(self.handle_open, protocol, protocol +'
p2821
sI418
S"                                  '_open', req)"
p2822
sI419
S'        if result:'
p2823
sI420
S'            return result'
p2824
sI421
S''
sI422
S"        return self._call_chain(self.handle_open, 'unknown',"
p2825
sI413
S'        if result:'
p2826
sI414
S'            return result'
p2827
sI415
S''
ssg2710
S'(self=<urllib2.OpenerDirector instance>, req=<urllib2.Request instance>, data=None)'
p2828
sg2712
S'_open'
p2829
sa(dp2830
g2689
S'/usr/lib/python2.7/urllib2.py'
p2831
sg2691
(dp2832
S'args'
p2833
S'(<urllib2.Request instance>,)'
p2834
sS'result'
p2835
g2731
sS'func'
p2836
S'<bound method HTTPHandler.http_open of <urllib2.HTTPHandler instance>>'
p2837
ssg2697
I378
sg2698
(dp2838
I373
S'        # could.  Otherwise, they return the response.'
p2839
sI374
S'        handlers = chain.get(kind, ())'
p2840
sI375
S'        for handler in handlers:'
p2841
sI376
S'            func = getattr(handler, meth_name)'
p2842
sI377
S''
sI378
S'            result = func(*args)'
p2843
sI379
S'            if result is not None:'
p2844
sI380
S'                return result'
p2845
sI381
S''
sI382
S'    def open(self, fullurl, data=None, timeout=socket._GLOBAL_DEFAULT_TIMEOUT):'
p2846
ssg2710
S"(self=<urllib2.OpenerDirector instance>, chain={'file': [<urllib2.FileHandler instance>], 'ftp': [<urllib2.FTPHandler instance>], 'http': [<urllib2.HTTPHandler instance>], 'https': [<urllib2.HTTPSHandler instance>], 'unknown': [<urllib2.UnknownHandler instance>]}, kind='http', meth_name='http_open', *args=(<urllib2.Request instance>,))"
p2847
sg2712
S'_call_chain'
p2848
sa(dp2849
g2689
S'/usr/lib/python2.7/urllib2.py'
p2850
sg2691
(dp2851
S'self'
p2852
S'<urllib2.HTTPHandler instance>'
p2853
sS'req'
p2854
S'<urllib2.Request instance>'
p2855
sS'global httplib'
p2856
S"<module 'httplib' from '/usr/lib/python2.7/httplib.pyc'>"
p2857
sS'self.do_open'
p2858
S'<bound method HTTPHandler.do_open of <urllib2.HTTPHandler instance>>'
p2859
sS'httplib.HTTPConnection'
p2860
S'<class httplib.HTTPConnection>'
p2861
ssg2697
I1207
sg2698
(dp2862
I1202
S''
sI1203
S''
sI1204
S'class HTTPHandler(AbstractHTTPHandler):'
p2863
sI1205
S''
sI1206
S'    def http_open(self, req):'
p2864
sI1207
S'        return self.do_open(httplib.HTTPConnection, req)'
p2865
sI1208
S''
sI1209
S'    http_request = AbstractHTTPHandler.do_request_'
p2866
sI1210
S''
sI1211
S"if hasattr(httplib, 'HTTPS'):"
p2867
ssg2710
S'(self=<urllib2.HTTPHandler instance>, req=<urllib2.Request instance>)'
p2868
sg2712
S'http_open'
p2869
sa(dp2870
g2689
S'/usr/lib/python2.7/urllib2.py'
p2871
sg2691
(dp2872
S'err'
p2873
S"error(110, 'Connection timed out')"
p2874
sS'global URLError'
p2875
S"<class 'urllib2.URLError'>"
p2876
ssg2697
I1177
sg2698
(dp2877
I1172
S''
sI1173
S'        try:'
p2878
sI1174
S'            h.request(req.get_method(), req.get_selector(), req.data, headers)'
p2879
sI1175
S'        except socket.error, err: # XXX what error?'
p2880
sI1176
S'            h.close()'
p2881
sI1177
S'            raise URLError(err)'
p2882
sI1178
S'        else:'
p2883
sI1179
S'            try:'
p2884
sI1180
S'                r = h.getresponse(buffering=True)'
p2885
sI1181
S'            except TypeError: # buffering kw not supported'
p2886
ssg2710
S'(self=<urllib2.HTTPHandler instance>, http_class=<class httplib.HTTPConnection>, req=<urllib2.Request instance>)'
p2887
sg2712
S'do_open'
p2888
sasS'pyver'
p2889
S'Python 2.7.3: /usr/bin/python'
p2890
sS'session'
p2891
g69
(g70
g71
NtRp2892
(dp2893
g74
(dp2894
sg76
(lp2895
g69
(g78
g71
NtRp2896
(dp2897
g74
(dp2898
g82
I5
ssg83
Nsg76
(lp2899
sbasbsS'etype'
p2900
S"<class 'urllib2.URLError'>"
p2901
sS'date'
p2902
S'Thu May 16 14:16:36 2013'
p2903
sS'response'
p2904
g69
(g70
g71
NtRp2905
(dp2906
g74
(dp2907
sg76
(lp2908
g69
(g78
g71
NtRp2909
(dp2910
g74
(dp2911
g82
I5
ssg83
Nsg76
(lp2912
g69
(g85
g71
NtRp2913
(dp2914
g74
(dp2915
sg83
g2909
sg76
(lp2916
g69
(g90
g71
NtRp2917
(dp2918
g74
(dp2919
g94
g95
ssg83
g2913
sg76
(lp2920
g167
asbag69
(g90
g71
NtRp2921
(dp2922
g74
(dp2923
g101
g102
ssg83
g2913
sg76
(lp2924
S':'
asbag69
(g90
g71
NtRp2925
(dp2926
g74
(dp2927
sg83
g2913
sg76
(lp2928
g69
(g70
g71
NtRp2929
(dp2930
g74
(dp2931
g82
I5
ssg83
g2925
sg76
(lp2932
S'<cStringIO.StringO object at 0xab3697c0>'
p2933
asbasbasbag69
(g85
g71
NtRp2934
(dp2935
g74
(dp2936
sg83
g2909
sg76
(lp2937
g69
(g90
g71
NtRp2938
(dp2939
g74
(dp2940
g94
g95
ssg83
g2934
sg76
(lp2941
g233
asbag69
(g90
g71
NtRp2942
(dp2943
g74
(dp2944
g101
g102
ssg83
g2934
sg76
(lp2945
S':'
asbag69
(g90
g71
NtRp2946
(dp2947
g74
(dp2948
sg83
g2934
sg76
(lp2949
g69
(g70
g71
NtRp2950
(dp2951
g74
(dp2952
g82
I5
ssg83
g2946
sg76
(lp2953
g69
(g78
g71
NtRp2954
(dp2955
g74
(dp2956
g82
I4
ssg83
Nsg76
(lp2957
g69
(g85
g71
NtRp2958
(dp2959
g74
(dp2960
sg83
g2954
sg76
(lp2961
g69
(g90
g71
NtRp2962
(dp2963
g74
(dp2964
g94
g95
ssg83
g2958
sg76
(lp2965
S'session_id_phyloshiny'
p2966
asbag69
(g90
g71
NtRp2967
(dp2968
g74
(dp2969
g101
g102
ssg83
g2958
sg76
(lp2970
S':'
asbag69
(g90
g71
NtRp2971
(dp2972
g74
(dp2973
sg83
g2958
sg76
(lp2974
g69
(g70
g71
NtRp2975
(dp2976
g74
(dp2977
g82
I4
ssg83
g2971
sg76
(lp2978
g69
(g78
g71
NtRp2979
(dp2980
g74
(dp2981
g82
I3
ssg83
Nsg76
(lp2982
g69
(g85
g71
NtRp2983
(dp2984
g74
(dp2985
sg83
g2979
sg76
(lp2986
g69
(g90
g71
NtRp2987
(dp2988
g74
(dp2989
g94
g95
ssg83
g2983
sg76
(lp2990
g283
asbag69
(g90
g71
NtRp2991
(dp2992
g74
(dp2993
g101
g102
ssg83
g2983
sg76
(lp2994
S':'
asbag69
(g90
g71
NtRp2995
(dp2996
g74
(dp2997
sg83
g2983
sg76
(lp2998
g69
(g70
g71
NtRp2999
(dp3000
g74
(dp3001
g82
I3
ssg83
g2995
sg76
(lp3002
S''
asbasbasbag69
(g85
g71
NtRp3003
(dp3004
g74
(dp3005
sg83
g2979
sg76
(lp3006
g69
(g90
g71
NtRp3007
(dp3008
g74
(dp3009
g94
g95
ssg83
g3003
sg76
(lp3010
g304
asbag69
(g90
g71
NtRp3011
(dp3012
g74
(dp3013
g101
g102
ssg83
g3003
sg76
(lp3014
S':'
asbag69
(g90
g71
NtRp3015
(dp3016
g74
(dp3017
sg83
g3003
sg76
(lp3018
g69
(g70
g71
NtRp3019
(dp3020
g74
(dp3021
g82
I3
ssg83
g3015
sg76
(lp3022
S''
asbasbasbag69
(g85
g71
NtRp3023
(dp3024
g74
(dp3025
sg83
g2979
sg76
(lp3026
g69
(g90
g71
NtRp3027
(dp3028
g74
(dp3029
g94
g95
ssg83
g3023
sg76
(lp3030
g325
asbag69
(g90
g71
NtRp3031
(dp3032
g74
(dp3033
g101
g102
ssg83
g3023
sg76
(lp3034
S':'
asbag69
(g90
g71
NtRp3035
(dp3036
g74
(dp3037
sg83
g3023
sg76
(lp3038
g69
(g70
g71
NtRp3039
(dp3040
g74
(dp3041
g82
I3
ssg83
g3035
sg76
(lp3042
S''
asbasbasbag69
(g85
g71
NtRp3043
(dp3044
g74
(dp3045
sg83
g2979
sg76
(lp3046
g69
(g90
g71
NtRp3047
(dp3048
g74
(dp3049
g94
g95
ssg83
g3043
sg76
(lp3050
g346
asbag69
(g90
g71
NtRp3051
(dp3052
g74
(dp3053
g101
g102
ssg83
g3043
sg76
(lp3054
S':'
asbag69
(g90
g71
NtRp3055
(dp3056
g74
(dp3057
sg83
g3043
sg76
(lp3058
g69
(g70
g71
NtRp3059
(dp3060
g74
(dp3061
g82
I3
ssg83
g3055
sg76
(lp3062
S''
asbasbasbag69
(g85
g71
NtRp3063
(dp3064
g74
(dp3065
sg83
g2979
sg76
(lp3066
g69
(g90
g71
NtRp3067
(dp3068
g74
(dp3069
g94
g95
ssg83
g3063
sg76
(lp3070
g367
asbag69
(g90
g71
NtRp3071
(dp3072
g74
(dp3073
g101
g102
ssg83
g3063
sg76
(lp3074
S':'
asbag69
(g90
g71
NtRp3075
(dp3076
g74
(dp3077
sg83
g3063
sg76
(lp3078
g69
(g70
g71
NtRp3079
(dp3080
g74
(dp3081
g82
I3
ssg83
g3075
sg76
(lp3082
S''
asbasbasbag69
(g85
g71
NtRp3083
(dp3084
g74
(dp3085
sg83
g2979
sg76
(lp3086
g69
(g90
g71
NtRp3087
(dp3088
g74
(dp3089
g94
g95
ssg83
g3083
sg76
(lp3090
g388
asbag69
(g90
g71
NtRp3091
(dp3092
g74
(dp3093
g101
g102
ssg83
g3083
sg76
(lp3094
S':'
asbag69
(g90
g71
NtRp3095
(dp3096
g74
(dp3097
sg83
g3083
sg76
(lp3098
g69
(g70
g71
NtRp3099
(dp3100
g74
(dp3101
g82
I3
ssg83
g3095
sg76
(lp3102
S'/'
asbasbasbag69
(g85
g71
NtRp3103
(dp3104
g74
(dp3105
sg83
g2979
sg76
(lp3106
g69
(g90
g71
NtRp3107
(dp3108
g74
(dp3109
g94
g95
ssg83
g3103
sg76
(lp3110
g409
asbag69
(g90
g71
NtRp3111
(dp3112
g74
(dp3113
g101
g102
ssg83
g3103
sg76
(lp3114
S':'
asbag69
(g90
g71
NtRp3115
(dp3116
g74
(dp3117
sg83
g3103
sg76
(lp3118
g69
(g70
g71
NtRp3119
(dp3120
g74
(dp3121
g82
I3
ssg83
g3115
sg76
(lp3122
S''
asbasbasbag69
(g85
g71
NtRp3123
(dp3124
g74
(dp3125
sg83
g2979
sg76
(lp3126
g69
(g90
g71
NtRp3127
(dp3128
g74
(dp3129
g94
g95
ssg83
g3123
sg76
(lp3130
g430
asbag69
(g90
g71
NtRp3131
(dp3132
g74
(dp3133
g101
g102
ssg83
g3123
sg76
(lp3134
S':'
asbag69
(g90
g71
NtRp3135
(dp3136
g74
(dp3137
sg83
g3123
sg76
(lp3138
g69
(g70
g71
NtRp3139
(dp3140
g74
(dp3141
g82
I3
ssg83
g3135
sg76
(lp3142
S''
asbasbasbasbasbasbasbasbasbasbasbag69
(g85
g71
NtRp3143
(dp3144
g74
(dp3145
sg83
g2909
sg76
(lp3146
g69
(g90
g71
NtRp3147
(dp3148
g74
(dp3149
g94
g95
ssg83
g3143
sg76
(lp3150
S'files'
p3151
asbag69
(g90
g71
NtRp3152
(dp3153
g74
(dp3154
g101
g102
ssg83
g3143
sg76
(lp3155
S':'
asbag69
(g90
g71
NtRp3156
(dp3157
g74
(dp3158
sg83
g3143
sg76
(lp3159
g69
(g70
g71
NtRp3160
(dp3161
g74
(dp3162
g82
I5
ssg83
g3156
sg76
(lp3163
g69
(g78
g71
NtRp3164
(dp3165
g74
(dp3166
g82
I4
ssg83
Nsg76
(lp3167
sbasbasbasbag69
(g85
g71
NtRp3168
(dp3169
g74
(dp3170
sg83
g2909
sg76
(lp3171
g69
(g90
g71
NtRp3172
(dp3173
g74
(dp3174
g94
g95
ssg83
g3168
sg76
(lp3175
S'flash'
p3176
asbag69
(g90
g71
NtRp3177
(dp3178
g74
(dp3179
g101
g102
ssg83
g3168
sg76
(lp3180
S':'
asbag69
(g90
g71
NtRp3181
(dp3182
g74
(dp3183
sg83
g3168
sg76
(lp3184
g69
(g70
g71
NtRp3185
(dp3186
g74
(dp3187
g82
I5
ssg83
g3181
sg76
(lp3188
S''
asbasbasbag69
(g85
g71
NtRp3189
(dp3190
g74
(dp3191
sg83
g2909
sg76
(lp3192
g69
(g90
g71
NtRp3193
(dp3194
g74
(dp3195
g94
g95
ssg83
g3189
sg76
(lp3196
S'generic_patterns'
p3197
asbag69
(g90
g71
NtRp3198
(dp3199
g74
(dp3200
g101
g102
ssg83
g3189
sg76
(lp3201
S':'
asbag69
(g90
g71
NtRp3202
(dp3203
g74
(dp3204
sg83
g3189
sg76
(lp3205
g69
(g70
g71
NtRp3206
(dp3207
g74
(dp3208
g82
I5
ssg83
g3202
sg76
(lp3209
g69
(g78
g71
NtRp3210
(dp3211
g74
(dp3212
g82
I4
ssg83
Nsg76
(lp3213
g69
(g85
g71
NtRp3214
(dp3215
g74
(dp3216
sg83
g3210
sg76
(lp3217
g69
(g90
g71
NtRp3218
(dp3219
g74
(dp3220
sg83
g3214
sg76
(lp3221
g69
(g70
g71
NtRp3222
(dp3223
g74
(dp3224
g82
I4
ssg83
g3218
sg76
(lp3225
S'*'
asbasbasbasbasbasbasbag69
(g85
g71
NtRp3226
(dp3227
g74
(dp3228
sg83
g2909
sg76
(lp3229
g69
(g90
g71
NtRp3230
(dp3231
g74
(dp3232
g94
g95
ssg83
g3226
sg76
(lp3233
S'headers'
p3234
asbag69
(g90
g71
NtRp3235
(dp3236
g74
(dp3237
g101
g102
ssg83
g3226
sg76
(lp3238
S':'
asbag69
(g90
g71
NtRp3239
(dp3240
g74
(dp3241
sg83
g3226
sg76
(lp3242
g69
(g70
g71
NtRp3243
(dp3244
g74
(dp3245
g82
I5
ssg83
g3239
sg76
(lp3246
g69
(g78
g71
NtRp3247
(dp3248
g74
(dp3249
g82
I4
ssg83
Nsg76
(lp3250
g69
(g85
g71
NtRp3251
(dp3252
g74
(dp3253
sg83
g3247
sg76
(lp3254
g69
(g90
g71
NtRp3255
(dp3256
g74
(dp3257
g94
g95
ssg83
g3251
sg76
(lp3258
S'Cache-Control'
p3259
asbag69
(g90
g71
NtRp3260
(dp3261
g74
(dp3262
g101
g102
ssg83
g3251
sg76
(lp3263
S':'
asbag69
(g90
g71
NtRp3264
(dp3265
g74
(dp3266
sg83
g3251
sg76
(lp3267
g69
(g70
g71
NtRp3268
(dp3269
g74
(dp3270
g82
I4
ssg83
g3264
sg76
(lp3271
S'no-store, no-cache, must-revalidate, post-check=0, pre-check=0'
p3272
asbasbasbag69
(g85
g71
NtRp3273
(dp3274
g74
(dp3275
sg83
g3247
sg76
(lp3276
g69
(g90
g71
NtRp3277
(dp3278
g74
(dp3279
g94
g95
ssg83
g3273
sg76
(lp3280
S'Content-Type'
p3281
asbag69
(g90
g71
NtRp3282
(dp3283
g74
(dp3284
g101
g102
ssg83
g3273
sg76
(lp3285
S':'
asbag69
(g90
g71
NtRp3286
(dp3287
g74
(dp3288
sg83
g3273
sg76
(lp3289
g69
(g70
g71
NtRp3290
(dp3291
g74
(dp3292
g82
I4
ssg83
g3286
sg76
(lp3293
S'text/html; charset=utf-8'
p3294
asbasbasbag69
(g85
g71
NtRp3295
(dp3296
g74
(dp3297
sg83
g3247
sg76
(lp3298
g69
(g90
g71
NtRp3299
(dp3300
g74
(dp3301
g94
g95
ssg83
g3295
sg76
(lp3302
S'Expires'
p3303
asbag69
(g90
g71
NtRp3304
(dp3305
g74
(dp3306
g101
g102
ssg83
g3295
sg76
(lp3307
S':'
asbag69
(g90
g71
NtRp3308
(dp3309
g74
(dp3310
sg83
g3295
sg76
(lp3311
g69
(g70
g71
NtRp3312
(dp3313
g74
(dp3314
g82
I4
ssg83
g3308
sg76
(lp3315
S'Thu, 16 May 2013 08:45:33 GMT'
p3316
asbasbasbag69
(g85
g71
NtRp3317
(dp3318
g74
(dp3319
sg83
g3247
sg76
(lp3320
g69
(g90
g71
NtRp3321
(dp3322
g74
(dp3323
g94
g95
ssg83
g3317
sg76
(lp3324
S'Pragma'
p3325
asbag69
(g90
g71
NtRp3326
(dp3327
g74
(dp3328
g101
g102
ssg83
g3317
sg76
(lp3329
S':'
asbag69
(g90
g71
NtRp3330
(dp3331
g74
(dp3332
sg83
g3317
sg76
(lp3333
g69
(g70
g71
NtRp3334
(dp3335
g74
(dp3336
g82
I4
ssg83
g3330
sg76
(lp3337
S'no-cache'
p3338
asbasbasbag69
(g85
g71
NtRp3339
(dp3340
g74
(dp3341
sg83
g3247
sg76
(lp3342
g69
(g90
g71
NtRp3343
(dp3344
g74
(dp3345
g94
g95
ssg83
g3339
sg76
(lp3346
S'X-Powered-By'
p3347
asbag69
(g90
g71
NtRp3348
(dp3349
g74
(dp3350
g101
g102
ssg83
g3339
sg76
(lp3351
S':'
asbag69
(g90
g71
NtRp3352
(dp3353
g74
(dp3354
sg83
g3339
sg76
(lp3355
g69
(g70
g71
NtRp3356
(dp3357
g74
(dp3358
g82
I4
ssg83
g3352
sg76
(lp3359
S'web2py'
p3360
asbasbasbasbasbasbasbag69
(g85
g71
NtRp3361
(dp3362
g74
(dp3363
sg83
g2909
sg76
(lp3364
g69
(g90
g71
NtRp3365
(dp3366
g74
(dp3367
g94
g95
ssg83
g3361
sg76
(lp3368
S'menu'
p3369
asbag69
(g90
g71
NtRp3370
(dp3371
g74
(dp3372
g101
g102
ssg83
g3361
sg76
(lp3373
S':'
asbag69
(g90
g71
NtRp3374
(dp3375
g74
(dp3376
sg83
g3361
sg76
(lp3377
g69
(g70
g71
NtRp3378
(dp3379
g74
(dp3380
g82
I5
ssg83
g3374
sg76
(lp3381
g69
(g78
g71
NtRp3382
(dp3383
g74
(dp3384
g82
I4
ssg83
Nsg76
(lp3385
g69
(g85
g71
NtRp3386
(dp3387
g74
(dp3388
sg83
g3382
sg76
(lp3389
g69
(g90
g71
NtRp3390
(dp3391
g74
(dp3392
sg83
g3386
sg76
(lp3393
g69
(g70
g71
NtRp3394
(dp3395
g74
(dp3396
g82
I4
ssg83
g3390
sg76
(lp3397
g69
(g78
g71
NtRp3398
(dp3399
g74
(dp3400
g82
I3
ssg83
Nsg76
(lp3401
g69
(g85
g71
NtRp3402
(dp3403
g74
(dp3404
sg83
g3398
sg76
(lp3405
g69
(g90
g71
NtRp3406
(dp3407
g74
(dp3408
sg83
g3402
sg76
(lp3409
g69
(g70
g71
NtRp3410
(dp3411
g74
(dp3412
g82
I3
ssg83
g3406
sg76
(lp3413
cgluon.languages
lazyT_unpickle
p3414
(S't\x04\x00\x00\x00Home'
tRp3415
asbasbasbag69
(g85
g71
NtRp3416
(dp3417
g74
(dp3418
sg83
g3398
sg76
(lp3419
g69
(g90
g71
NtRp3420
(dp3421
g74
(dp3422
sg83
g3416
sg76
(lp3423
g69
(g70
g71
NtRp3424
(dp3425
g74
(dp3426
g82
I3
ssg83
g3420
sg76
(lp3427
g602
asbasbasbag69
(g85
g71
NtRp3428
(dp3429
g74
(dp3430
sg83
g3398
sg76
(lp3431
g69
(g90
g71
NtRp3432
(dp3433
g74
(dp3434
sg83
g3428
sg76
(lp3435
g69
(g70
g71
NtRp3436
(dp3437
g74
(dp3438
g82
I3
ssg83
g3432
sg76
(lp3439
S'/phyloShiny/default/index'
p3440
asbasbasbag69
(g85
g71
NtRp3441
(dp3442
g74
(dp3443
sg83
g3398
sg76
(lp3444
g69
(g90
g71
NtRp3445
(dp3446
g74
(dp3447
sg83
g3441
sg76
(lp3448
g69
(g70
g71
NtRp3449
(dp3450
g74
(dp3451
g82
I3
ssg83
g3445
sg76
(lp3452
g69
(g78
g71
NtRp3453
(dp3454
g74
(dp3455
g82
I2
ssg83
Nsg76
(lp3456
sbasbasbasbasbasbasbasbag69
(g85
g71
NtRp3457
(dp3458
g74
(dp3459
sg83
g3382
sg76
(lp3460
g69
(g90
g71
NtRp3461
(dp3462
g74
(dp3463
sg83
g3457
sg76
(lp3464
g69
(g70
g71
NtRp3465
(dp3466
g74
(dp3467
g82
I4
ssg83
g3461
sg76
(lp3468
g69
(g78
g71
NtRp3469
(dp3470
g74
(dp3471
g82
I3
ssg83
Nsg76
(lp3472
g69
(g85
g71
NtRp3473
(dp3474
g74
(dp3475
sg83
g3469
sg76
(lp3476
g69
(g90
g71
NtRp3477
(dp3478
g74
(dp3479
sg83
g3473
sg76
(lp3480
g69
(g70
g71
NtRp3481
(dp3482
g74
(dp3483
g82
I3
ssg83
g3477
sg76
(lp3484
g69
(cgluon.html
SPAN
p3485
g71
NtRp3486
(dp3487
g74
(dp3488
g94
S'color:yellow'
p3489
ssg83
Nsg76
(lp3490
g3360
asbasbasbasbag69
(g85
g71
NtRp3491
(dp3492
g74
(dp3493
sg83
g3469
sg76
(lp3494
g69
(g90
g71
NtRp3495
(dp3496
g74
(dp3497
sg83
g3491
sg76
(lp3498
g69
(g70
g71
NtRp3499
(dp3500
g74
(dp3501
g82
I3
ssg83
g3495
sg76
(lp3502
g602
asbasbasbag69
(g85
g71
NtRp3503
(dp3504
g74
(dp3505
sg83
g3469
sg76
(lp3506
g69
(g90
g71
NtRp3507
(dp3508
g74
(dp3509
sg83
g3503
sg76
(lp3510
g69
(g70
g71
NtRp3511
(dp3512
g74
(dp3513
g82
I3
ssg83
g3507
sg76
(lp3514
S'None'
p3515
asbasbasbag69
(g85
g71
NtRp3516
(dp3517
g74
(dp3518
sg83
g3469
sg76
(lp3519
g69
(g90
g71
NtRp3520
(dp3521
g74
(dp3522
sg83
g3516
sg76
(lp3523
g69
(g70
g71
NtRp3524
(dp3525
g74
(dp3526
g82
I3
ssg83
g3520
sg76
(lp3527
g69
(g78
g71
NtRp3528
(dp3529
g74
(dp3530
g82
I2
ssg83
Nsg76
(lp3531
g69
(g85
g71
NtRp3532
(dp3533
g74
(dp3534
sg83
g3528
sg76
(lp3535
g69
(g90
g71
NtRp3536
(dp3537
g74
(dp3538
sg83
g3532
sg76
(lp3539
g69
(g70
g71
NtRp3540
(dp3541
g74
(dp3542
g82
I2
ssg83
g3536
sg76
(lp3543
g69
(g78
g71
NtRp3544
(dp3545
g74
(dp3546
g82
I1
ssg83
Nsg76
(lp3547
g69
(g85
g71
NtRp3548
(dp3549
g74
(dp3550
sg83
g3544
sg76
(lp3551
g69
(g90
g71
NtRp3552
(dp3553
g74
(dp3554
sg83
g3548
sg76
(lp3555
g69
(g70
g71
NtRp3556
(dp3557
g74
(dp3558
g82
I1
ssg83
g3552
sg76
(lp3559
g3414
(S's\x08\x00\x00\x00My Sites'
tRp3560
asbasbasbag69
(g85
g71
NtRp3561
(dp3562
g74
(dp3563
sg83
g3544
sg76
(lp3564
g69
(g90
g71
NtRp3565
(dp3566
g74
(dp3567
sg83
g3561
sg76
(lp3568
g69
(g70
g71
NtRp3569
(dp3570
g74
(dp3571
g82
I1
ssg83
g3565
sg76
(lp3572
I00
asbasbasbag69
(g85
g71
NtRp3573
(dp3574
g74
(dp3575
sg83
g3544
sg76
(lp3576
g69
(g90
g71
NtRp3577
(dp3578
g74
(dp3579
sg83
g3573
sg76
(lp3580
g69
(g70
g71
NtRp3581
(dp3582
g74
(dp3583
g82
I1
ssg83
g3577
sg76
(lp3584
S'/admin/default/site'
p3585
asbasbasbasbasbasbasbag69
(g85
g71
NtRp3586
(dp3587
g74
(dp3588
sg83
g3528
sg76
(lp3589
g69
(g90
g71
NtRp3590
(dp3591
g74
(dp3592
sg83
g3586
sg76
(lp3593
g69
(g70
g71
NtRp3594
(dp3595
g74
(dp3596
g82
I2
ssg83
g3590
sg76
(lp3597
g69
(g78
g71
NtRp3598
(dp3599
g74
(dp3600
g82
I1
ssg83
Nsg76
(lp3601
g69
(g85
g71
NtRp3602
(dp3603
g74
(dp3604
sg83
g3598
sg76
(lp3605
g69
(g90
g71
NtRp3606
(dp3607
g74
(dp3608
sg83
g3602
sg76
(lp3609
g69
(g70
g71
NtRp3610
(dp3611
g74
(dp3612
g82
I1
ssg83
g3606
sg76
(lp3613
g3414
(S's\x08\x00\x00\x00This App'
tRp3614
asbasbasbag69
(g85
g71
NtRp3615
(dp3616
g74
(dp3617
sg83
g3598
sg76
(lp3618
g69
(g90
g71
NtRp3619
(dp3620
g74
(dp3621
sg83
g3615
sg76
(lp3622
g69
(g70
g71
NtRp3623
(dp3624
g74
(dp3625
g82
I1
ssg83
g3619
sg76
(lp3626
I00
asbasbasbag69
(g85
g71
NtRp3627
(dp3628
g74
(dp3629
sg83
g3598
sg76
(lp3630
g69
(g90
g71
NtRp3631
(dp3632
g74
(dp3633
sg83
g3627
sg76
(lp3634
g69
(g70
g71
NtRp3635
(dp3636
g74
(dp3637
g82
I1
ssg83
g3631
sg76
(lp3638
S'/admin/default/design/phyloShiny'
p3639
asbasbasbag69
(g85
g71
NtRp3640
(dp3641
g74
(dp3642
sg83
g3598
sg76
(lp3643
g69
(g90
g71
NtRp3644
(dp3645
g74
(dp3646
sg83
g3640
sg76
(lp3647
g69
(g70
g71
NtRp3648
(dp3649
g74
(dp3650
g82
I1
ssg83
g3644
sg76
(lp3651
(lp3652
(g3414
(S't\n\x00\x00\x00Controller'
tRp3653
I00
S'/admin/default/edit/phyloShiny/controllers/reconciliotastic.py'
tp3654
a(g3414
(S't\x04\x00\x00\x00View'
tRp3655
I00
S'/admin/default/edit/phyloShiny/views/reconciliotastic/getPhylotasticTree.html'
tp3656
a(g3414
(S't\x06\x00\x00\x00Layout'
tRp3657
I00
S'/admin/default/edit/phyloShiny/views/layout.html'
tp3658
a(g3414
(S't\n\x00\x00\x00Stylesheet'
tRp3659
I00
S'/admin/default/edit/phyloShiny/static/css/web2py.css'
tp3660
a(g3414
(S's\x08\x00\x00\x00DB Model'
tRp3661
I00
S'/admin/default/edit/phyloShiny/models/db.py'
tp3662
a(g3414
(S's\n\x00\x00\x00Menu Model'
tRp3663
I00
S'/admin/default/edit/phyloShiny/models/menu.py'
tp3664
a(g3414
(S't\x08\x00\x00\x00Database'
tRp3665
I00
S'/phyloShiny/appadmin/index'
tp3666
a(g3414
(S't\x06\x00\x00\x00Errors'
tRp3667
I00
S'/admin/default/errors/phyloShiny'
tp3668
a(g3414
(S't\x05\x00\x00\x00About'
tRp3669
I00
S'/admin/default/about/phyloShiny'
tp3670
aasbasbasbasbasbasbasbag69
(g85
g71
NtRp3671
(dp3672
g74
(dp3673
sg83
g3528
sg76
(lp3674
g69
(g90
g71
NtRp3675
(dp3676
g74
(dp3677
sg83
g3671
sg76
(lp3678
g69
(g70
g71
NtRp3679
(dp3680
g74
(dp3681
g82
I2
ssg83
g3675
sg76
(lp3682
g69
(g78
g71
NtRp3683
(dp3684
g74
(dp3685
g82
I1
ssg83
Nsg76
(lp3686
g69
(g85
g71
NtRp3687
(dp3688
g74
(dp3689
sg83
g3683
sg76
(lp3690
g69
(g90
g71
NtRp3691
(dp3692
g74
(dp3693
sg83
g3687
sg76
(lp3694
g69
(g70
g71
NtRp3695
(dp3696
g74
(dp3697
g82
I1
ssg83
g3691
sg76
(lp3698
S'web2py.com'
p3699
asbasbasbag69
(g85
g71
NtRp3700
(dp3701
g74
(dp3702
sg83
g3683
sg76
(lp3703
g69
(g90
g71
NtRp3704
(dp3705
g74
(dp3706
sg83
g3700
sg76
(lp3707
g69
(g70
g71
NtRp3708
(dp3709
g74
(dp3710
g82
I1
ssg83
g3704
sg76
(lp3711
I00
asbasbasbag69
(g85
g71
NtRp3712
(dp3713
g74
(dp3714
sg83
g3683
sg76
(lp3715
g69
(g90
g71
NtRp3716
(dp3717
g74
(dp3718
sg83
g3712
sg76
(lp3719
g69
(g70
g71
NtRp3720
(dp3721
g74
(dp3722
g82
I1
ssg83
g3716
sg76
(lp3723
S'http://www.web2py.com'
p3724
asbasbasbag69
(g85
g71
NtRp3725
(dp3726
g74
(dp3727
sg83
g3683
sg76
(lp3728
g69
(g90
g71
NtRp3729
(dp3730
g74
(dp3731
sg83
g3725
sg76
(lp3732
g69
(g70
g71
NtRp3733
(dp3734
g74
(dp3735
g82
I1
ssg83
g3729
sg76
(lp3736
(lp3737
(g3414
(S't\x08\x00\x00\x00Download'
tRp3738
I00
S'http://www.web2py.com/examples/default/download'
p3739
tp3740
a(g3414
(S't\x07\x00\x00\x00Support'
tRp3741
I00
S'http://www.web2py.com/examples/default/support'
p3742
tp3743
a(g3414
(S't\x04\x00\x00\x00Demo'
tRp3744
I00
S'http://web2py.com/demo_admin'
p3745
tp3746
a(g3414
(S's\x0e\x00\x00\x00Quick Examples'
tRp3747
I00
S'http://web2py.com/examples/default/examples'
p3748
tp3749
a(g3414
(S't\x03\x00\x00\x00FAQ'
tRp3750
I00
S'http://web2py.com/AlterEgo'
p3751
tp3752
a(g3414
(S't\x06\x00\x00\x00Videos'
tRp3753
I00
S'http://www.web2py.com/examples/default/videos/'
p3754
tp3755
a(g3414
(S's\x11\x00\x00\x00Free Applications'
tRp3756
I00
S'http://web2py.com/appliances'
p3757
tp3758
a(g3414
(S't\x07\x00\x00\x00Plugins'
tRp3759
I00
S'http://web2py.com/plugins'
p3760
tp3761
a(g3414
(S't\x07\x00\x00\x00Layouts'
tRp3762
I00
S'http://web2py.com/layouts'
p3763
tp3764
a(g3414
(S't\x07\x00\x00\x00Recipes'
tRp3765
I00
S'http://web2pyslices.com/'
p3766
tp3767
a(g3414
(S't\x08\x00\x00\x00Semantic'
tRp3768
I00
S'http://web2py.com/semantic'
p3769
tp3770
aasbasbasbasbasbasbasbag69
(g85
g71
NtRp3771
(dp3772
g74
(dp3773
sg83
g3528
sg76
(lp3774
g69
(g90
g71
NtRp3775
(dp3776
g74
(dp3777
sg83
g3771
sg76
(lp3778
g69
(g70
g71
NtRp3779
(dp3780
g74
(dp3781
g82
I2
ssg83
g3775
sg76
(lp3782
g69
(g78
g71
NtRp3783
(dp3784
g74
(dp3785
g82
I1
ssg83
Nsg76
(lp3786
g69
(g85
g71
NtRp3787
(dp3788
g74
(dp3789
sg83
g3783
sg76
(lp3790
g69
(g90
g71
NtRp3791
(dp3792
g74
(dp3793
sg83
g3787
sg76
(lp3794
g69
(g70
g71
NtRp3795
(dp3796
g74
(dp3797
g82
I1
ssg83
g3791
sg76
(lp3798
g3414
(S't\r\x00\x00\x00Documentation'
tRp3799
asbasbasbag69
(g85
g71
NtRp3800
(dp3801
g74
(dp3802
sg83
g3783
sg76
(lp3803
g69
(g90
g71
NtRp3804
(dp3805
g74
(dp3806
sg83
g3800
sg76
(lp3807
g69
(g70
g71
NtRp3808
(dp3809
g74
(dp3810
g82
I1
ssg83
g3804
sg76
(lp3811
I00
asbasbasbag69
(g85
g71
NtRp3812
(dp3813
g74
(dp3814
sg83
g3783
sg76
(lp3815
g69
(g90
g71
NtRp3816
(dp3817
g74
(dp3818
sg83
g3812
sg76
(lp3819
g69
(g70
g71
NtRp3820
(dp3821
g74
(dp3822
g82
I1
ssg83
g3816
sg76
(lp3823
S'http://www.web2py.com/book'
p3824
asbasbasbag69
(g85
g71
NtRp3825
(dp3826
g74
(dp3827
sg83
g3783
sg76
(lp3828
g69
(g90
g71
NtRp3829
(dp3830
g74
(dp3831
sg83
g3825
sg76
(lp3832
g69
(g70
g71
NtRp3833
(dp3834
g74
(dp3835
g82
I1
ssg83
g3829
sg76
(lp3836
(lp3837
(g3414
(S't\x07\x00\x00\x00Preface'
tRp3838
I00
S'http://www.web2py.com/book/default/chapter/00'
p3839
tp3840
a(g3414
(S't\x0c\x00\x00\x00Introduction'
tRp3841
I00
S'http://www.web2py.com/book/default/chapter/01'
p3842
tp3843
a(g3414
(S't\x06\x00\x00\x00Python'
tRp3844
I00
S'http://www.web2py.com/book/default/chapter/02'
p3845
tp3846
a(g3414
(S't\x08\x00\x00\x00Overview'
tRp3847
I00
S'http://www.web2py.com/book/default/chapter/03'
p3848
tp3849
a(g3414
(S's\x08\x00\x00\x00The Core'
tRp3850
I00
S'http://www.web2py.com/book/default/chapter/04'
p3851
tp3852
a(g3414
(S's\t\x00\x00\x00The Views'
tRp3853
I00
S'http://www.web2py.com/book/default/chapter/05'
p3854
tp3855
a(g3414
(S't\x08\x00\x00\x00Database'
tRp3856
I00
S'http://www.web2py.com/book/default/chapter/06'
p3857
tp3858
a(g3414
(S's\x14\x00\x00\x00Forms and Validators'
tRp3859
I00
S'http://www.web2py.com/book/default/chapter/07'
p3860
tp3861
a(g3414
(S's\r\x00\x00\x00Email and SMS'
tRp3862
I00
S'http://www.web2py.com/book/default/chapter/08'
p3863
tp3864
a(g3414
(S's\x0e\x00\x00\x00Access Control'
tRp3865
I00
S'http://www.web2py.com/book/default/chapter/09'
p3866
tp3867
a(g3414
(S't\x08\x00\x00\x00Services'
tRp3868
I00
S'http://www.web2py.com/book/default/chapter/10'
p3869
tp3870
a(g3414
(S's\x0c\x00\x00\x00Ajax Recipes'
tRp3871
I00
S'http://www.web2py.com/book/default/chapter/11'
p3872
tp3873
a(g3414
(S's\x16\x00\x00\x00Components and Plugins'
tRp3874
I00
S'http://www.web2py.com/book/default/chapter/12'
p3875
tp3876
a(g3414
(S's\x12\x00\x00\x00Deployment Recipes'
tRp3877
I00
S'http://www.web2py.com/book/default/chapter/13'
p3878
tp3879
a(g3414
(S's\r\x00\x00\x00Other Recipes'
tRp3880
I00
S'http://www.web2py.com/book/default/chapter/14'
p3881
tp3882
a(g3414
(S's\r\x00\x00\x00Buy this book'
tRp3883
I00
S'http://stores.lulu.com/web2py'
p3884
tp3885
aasbasbasbasbasbasbasbag69
(g85
g71
NtRp3886
(dp3887
g74
(dp3888
sg83
g3528
sg76
(lp3889
g69
(g90
g71
NtRp3890
(dp3891
g74
(dp3892
sg83
g3886
sg76
(lp3893
g69
(g70
g71
NtRp3894
(dp3895
g74
(dp3896
g82
I2
ssg83
g3890
sg76
(lp3897
g69
(g78
g71
NtRp3898
(dp3899
g74
(dp3900
g82
I1
ssg83
Nsg76
(lp3901
g69
(g85
g71
NtRp3902
(dp3903
g74
(dp3904
sg83
g3898
sg76
(lp3905
g69
(g90
g71
NtRp3906
(dp3907
g74
(dp3908
sg83
g3902
sg76
(lp3909
g69
(g70
g71
NtRp3910
(dp3911
g74
(dp3912
g82
I1
ssg83
g3906
sg76
(lp3913
g3414
(S't\t\x00\x00\x00Community'
tRp3914
asbasbasbag69
(g85
g71
NtRp3915
(dp3916
g74
(dp3917
sg83
g3898
sg76
(lp3918
g69
(g90
g71
NtRp3919
(dp3920
g74
(dp3921
sg83
g3915
sg76
(lp3922
g69
(g70
g71
NtRp3923
(dp3924
g74
(dp3925
g82
I1
ssg83
g3919
sg76
(lp3926
I00
asbasbasbag69
(g85
g71
NtRp3927
(dp3928
g74
(dp3929
sg83
g3898
sg76
(lp3930
g69
(g90
g71
NtRp3931
(dp3932
g74
(dp3933
sg83
g3927
sg76
(lp3934
g69
(g70
g71
NtRp3935
(dp3936
g74
(dp3937
g82
I1
ssg83
g3931
sg76
(lp3938
Nasbasbasbag69
(g85
g71
NtRp3939
(dp3940
g74
(dp3941
sg83
g3898
sg76
(lp3942
g69
(g90
g71
NtRp3943
(dp3944
g74
(dp3945
sg83
g3939
sg76
(lp3946
g69
(g70
g71
NtRp3947
(dp3948
g74
(dp3949
g82
I1
ssg83
g3943
sg76
(lp3950
(lp3951
(g3414
(S't\x06\x00\x00\x00Groups'
tRp3952
I00
S'http://www.web2py.com/examples/default/usergroups'
p3953
tp3954
a(g3414
(S't\x07\x00\x00\x00Twitter'
tRp3955
I00
S'http://twitter.com/web2py'
p3956
tp3957
a(g3414
(S's\t\x00\x00\x00Live Chat'
tRp3958
I00
S'http://webchat.freenode.net/?channels=web2py'
p3959
tp3960
aasbasbasbasbasbasbasbag69
(g85
g71
NtRp3961
(dp3962
g74
(dp3963
sg83
g3528
sg76
(lp3964
g69
(g90
g71
NtRp3965
(dp3966
g74
(dp3967
sg83
g3961
sg76
(lp3968
g69
(g70
g71
NtRp3969
(dp3970
g74
(dp3971
g82
I2
ssg83
g3965
sg76
(lp3972
g69
(g78
g71
NtRp3973
(dp3974
g74
(dp3975
g82
I1
ssg83
Nsg76
(lp3976
g69
(g85
g71
NtRp3977
(dp3978
g74
(dp3979
sg83
g3973
sg76
(lp3980
g69
(g90
g71
NtRp3981
(dp3982
g74
(dp3983
sg83
g3977
sg76
(lp3984
g69
(g70
g71
NtRp3985
(dp3986
g74
(dp3987
g82
I1
ssg83
g3981
sg76
(lp3988
g3414
(S't\x07\x00\x00\x00Plugins'
tRp3989
asbasbasbag69
(g85
g71
NtRp3990
(dp3991
g74
(dp3992
sg83
g3973
sg76
(lp3993
g69
(g90
g71
NtRp3994
(dp3995
g74
(dp3996
sg83
g3990
sg76
(lp3997
g69
(g70
g71
NtRp3998
(dp3999
g74
(dp4000
g82
I1
ssg83
g3994
sg76
(lp4001
I00
asbasbasbag69
(g85
g71
NtRp4002
(dp4003
g74
(dp4004
sg83
g3973
sg76
(lp4005
g69
(g90
g71
NtRp4006
(dp4007
g74
(dp4008
sg83
g4002
sg76
(lp4009
g69
(g70
g71
NtRp4010
(dp4011
g74
(dp4012
g82
I1
ssg83
g4006
sg76
(lp4013
Nasbasbasbag69
(g85
g71
NtRp4014
(dp4015
g74
(dp4016
sg83
g3973
sg76
(lp4017
g69
(g90
g71
NtRp4018
(dp4019
g74
(dp4020
sg83
g4014
sg76
(lp4021
g69
(g70
g71
NtRp4022
(dp4023
g74
(dp4024
g82
I1
ssg83
g4018
sg76
(lp4025
(lp4026
(S'plugin_wiki'
p4027
I00
S'http://web2py.com/examples/default/download'
p4028
tp4029
a(g3414
(S's\r\x00\x00\x00Other Plugins'
tRp4030
I00
g3760
tp4031
a(g3414
(S's\x0e\x00\x00\x00Layout Plugins'
tRp4032
I00
g3763
tp4033
aasbasbasbasbasbasbasbasbasbasbasbasbasbasbasbasbasbasbasbag69
(g85
g71
NtRp4034
(dp4035
g74
(dp4036
sg83
g2909
sg76
(lp4037
g69
(g90
g71
NtRp4038
(dp4039
g74
(dp4040
g94
g95
ssg83
g4034
sg76
(lp4041
S'meta'
p4042
asbag69
(g90
g71
NtRp4043
(dp4044
g74
(dp4045
g101
g102
ssg83
g4034
sg76
(lp4046
S':'
asbag69
(g90
g71
NtRp4047
(dp4048
g74
(dp4049
sg83
g4034
sg76
(lp4050
g69
(g70
g71
NtRp4051
(dp4052
g74
(dp4053
g82
I5
ssg83
g4047
sg76
(lp4054
g69
(g78
g71
NtRp4055
(dp4056
g74
(dp4057
g82
I4
ssg83
Nsg76
(lp4058
g69
(g85
g71
NtRp4059
(dp4060
g74
(dp4061
sg83
g4055
sg76
(lp4062
g69
(g90
g71
NtRp4063
(dp4064
g74
(dp4065
g94
g95
ssg83
g4059
sg76
(lp4066
S'author'
p4067
asbag69
(g90
g71
NtRp4068
(dp4069
g74
(dp4070
g101
g102
ssg83
g4059
sg76
(lp4071
S':'
asbag69
(g90
g71
NtRp4072
(dp4073
g74
(dp4074
sg83
g4059
sg76
(lp4075
g69
(g70
g71
NtRp4076
(dp4077
g74
(dp4078
g82
I4
ssg83
g4072
sg76
(lp4079
S'Your Name <you@example.com>'
p4080
asbasbasbag69
(g85
g71
NtRp4081
(dp4082
g74
(dp4083
sg83
g4055
sg76
(lp4084
g69
(g90
g71
NtRp4085
(dp4086
g74
(dp4087
g94
g95
ssg83
g4081
sg76
(lp4088
S'copyright'
p4089
asbag69
(g90
g71
NtRp4090
(dp4091
g74
(dp4092
g101
g102
ssg83
g4081
sg76
(lp4093
S':'
asbag69
(g90
g71
NtRp4094
(dp4095
g74
(dp4096
sg83
g4081
sg76
(lp4097
g69
(g70
g71
NtRp4098
(dp4099
g74
(dp4100
g82
I4
ssg83
g4094
sg76
(lp4101
S'Copyright 2011'
p4102
asbasbasbag69
(g85
g71
NtRp4103
(dp4104
g74
(dp4105
sg83
g4055
sg76
(lp4106
g69
(g90
g71
NtRp4107
(dp4108
g74
(dp4109
g94
g95
ssg83
g4103
sg76
(lp4110
S'description'
p4111
asbag69
(g90
g71
NtRp4112
(dp4113
g74
(dp4114
g101
g102
ssg83
g4103
sg76
(lp4115
S':'
asbag69
(g90
g71
NtRp4116
(dp4117
g74
(dp4118
sg83
g4103
sg76
(lp4119
g69
(g70
g71
NtRp4120
(dp4121
g74
(dp4122
g82
I4
ssg83
g4116
sg76
(lp4123
S'a cool new app'
p4124
asbasbasbag69
(g85
g71
NtRp4125
(dp4126
g74
(dp4127
sg83
g4055
sg76
(lp4128
g69
(g90
g71
NtRp4129
(dp4130
g74
(dp4131
g94
g95
ssg83
g4125
sg76
(lp4132
S'generator'
p4133
asbag69
(g90
g71
NtRp4134
(dp4135
g74
(dp4136
g101
g102
ssg83
g4125
sg76
(lp4137
S':'
asbag69
(g90
g71
NtRp4138
(dp4139
g74
(dp4140
sg83
g4125
sg76
(lp4141
g69
(g70
g71
NtRp4142
(dp4143
g74
(dp4144
g82
I4
ssg83
g4138
sg76
(lp4145
S'Web2py Web Framework'
p4146
asbasbasbag69
(g85
g71
NtRp4147
(dp4148
g74
(dp4149
sg83
g4055
sg76
(lp4150
g69
(g90
g71
NtRp4151
(dp4152
g74
(dp4153
g94
g95
ssg83
g4147
sg76
(lp4154
S'keywords'
p4155
asbag69
(g90
g71
NtRp4156
(dp4157
g74
(dp4158
g101
g102
ssg83
g4147
sg76
(lp4159
S':'
asbag69
(g90
g71
NtRp4160
(dp4161
g74
(dp4162
sg83
g4147
sg76
(lp4163
g69
(g70
g71
NtRp4164
(dp4165
g74
(dp4166
g82
I4
ssg83
g4160
sg76
(lp4167
S'web2py, python, framework'
p4168
asbasbasbasbasbasbasbag69
(g85
g71
NtRp4169
(dp4170
g74
(dp4171
sg83
g2909
sg76
(lp4172
g69
(g90
g71
NtRp4173
(dp4174
g74
(dp4175
g94
g95
ssg83
g4169
sg76
(lp4176
S'postprocessing'
p4177
asbag69
(g90
g71
NtRp4178
(dp4179
g74
(dp4180
g101
g102
ssg83
g4169
sg76
(lp4181
S':'
asbag69
(g90
g71
NtRp4182
(dp4183
g74
(dp4184
sg83
g4169
sg76
(lp4185
g69
(g70
g71
NtRp4186
(dp4187
g74
(dp4188
g82
I5
ssg83
g4182
sg76
(lp4189
g69
(g78
g71
NtRp4190
(dp4191
g74
(dp4192
g82
I4
ssg83
Nsg76
(lp4193
sbasbasbasbag69
(g85
g71
NtRp4194
(dp4195
g74
(dp4196
sg83
g2909
sg76
(lp4197
g69
(g90
g71
NtRp4198
(dp4199
g74
(dp4200
g94
g95
ssg83
g4194
sg76
(lp4201
S'session_filename'
p4202
asbag69
(g90
g71
NtRp4203
(dp4204
g74
(dp4205
g101
g102
ssg83
g4194
sg76
(lp4206
S':'
asbag69
(g90
g71
NtRp4207
(dp4208
g74
(dp4209
sg83
g4194
sg76
(lp4210
g69
(g70
g71
NtRp4211
(dp4212
g74
(dp4213
g82
I5
ssg83
g4207
sg76
(lp4214
S'/home/prateek/web2py/applications/phyloShiny/sessions/127.0.0.1-c7901696-5f60-44c6-8524-bed20b84f79f'
p4215
asbasbasbag69
(g85
g71
NtRp4216
(dp4217
g74
(dp4218
sg83
g2909
sg76
(lp4219
g69
(g90
g71
NtRp4220
(dp4221
g74
(dp4222
g94
g95
ssg83
g4216
sg76
(lp4223
S'session_id'
p4224
asbag69
(g90
g71
NtRp4225
(dp4226
g74
(dp4227
g101
g102
ssg83
g4216
sg76
(lp4228
S':'
asbag69
(g90
g71
NtRp4229
(dp4230
g74
(dp4231
sg83
g4216
sg76
(lp4232
g69
(g70
g71
NtRp4233
(dp4234
g74
(dp4235
g82
I5
ssg83
g4229
sg76
(lp4236
S'127.0.0.1-c7901696-5f60-44c6-8524-bed20b84f79f'
p4237
asbasbasbag69
(g85
g71
NtRp4238
(dp4239
g74
(dp4240
sg83
g2909
sg76
(lp4241
g69
(g90
g71
NtRp4242
(dp4243
g74
(dp4244
g94
g95
ssg83
g4238
sg76
(lp4245
S'session_id_name'
p4246
asbag69
(g90
g71
NtRp4247
(dp4248
g74
(dp4249
g101
g102
ssg83
g4238
sg76
(lp4250
S':'
asbag69
(g90
g71
NtRp4251
(dp4252
g74
(dp4253
sg83
g4238
sg76
(lp4254
g69
(g70
g71
NtRp4255
(dp4256
g74
(dp4257
g82
I5
ssg83
g4251
sg76
(lp4258
g2966
asbasbasbag69
(g85
g71
NtRp4259
(dp4260
g74
(dp4261
sg83
g2909
sg76
(lp4262
g69
(g90
g71
NtRp4263
(dp4264
g74
(dp4265
g94
g95
ssg83
g4259
sg76
(lp4266
S'session_new'
p4267
asbag69
(g90
g71
NtRp4268
(dp4269
g74
(dp4270
g101
g102
ssg83
g4259
sg76
(lp4271
S':'
asbag69
(g90
g71
NtRp4272
(dp4273
g74
(dp4274
sg83
g4259
sg76
(lp4275
g69
(g70
g71
NtRp4276
(dp4277
g74
(dp4278
g82
I5
ssg83
g4272
sg76
(lp4279
g112
asbasbasbag69
(g85
g71
NtRp4280
(dp4281
g74
(dp4282
sg83
g2909
sg76
(lp4283
g69
(g90
g71
NtRp4284
(dp4285
g74
(dp4286
g94
g95
ssg83
g4280
sg76
(lp4287
S'status'
p4288
asbag69
(g90
g71
NtRp4289
(dp4290
g74
(dp4291
g101
g102
ssg83
g4280
sg76
(lp4292
S':'
asbag69
(g90
g71
NtRp4293
(dp4294
g74
(dp4295
sg83
g4280
sg76
(lp4296
g69
(g70
g71
NtRp4297
(dp4298
g74
(dp4299
g82
I5
ssg83
g4293
sg76
(lp4300
S'200'
p4301
asbasbasbag69
(g85
g71
NtRp4302
(dp4303
g74
(dp4304
sg83
g2909
sg76
(lp4305
g69
(g90
g71
NtRp4306
(dp4307
g74
(dp4308
g94
g95
ssg83
g4302
sg76
(lp4309
S'subtitle'
p4310
asbag69
(g90
g71
NtRp4311
(dp4312
g74
(dp4313
g101
g102
ssg83
g4302
sg76
(lp4314
S':'
asbag69
(g90
g71
NtRp4315
(dp4316
g74
(dp4317
sg83
g4302
sg76
(lp4318
g69
(g70
g71
NtRp4319
(dp4320
g74
(dp4321
g82
I5
ssg83
g4315
sg76
(lp4322
g3414
(S's\r\x00\x00\x00customize me!'
tRp4323
asbasbasbag69
(g85
g71
NtRp4324
(dp4325
g74
(dp4326
sg83
g2909
sg76
(lp4327
g69
(g90
g71
NtRp4328
(dp4329
g74
(dp4330
g94
g95
ssg83
g4324
sg76
(lp4331
S'title'
p4332
asbag69
(g90
g71
NtRp4333
(dp4334
g74
(dp4335
g101
g102
ssg83
g4324
sg76
(lp4336
S':'
asbag69
(g90
g71
NtRp4337
(dp4338
g74
(dp4339
sg83
g4324
sg76
(lp4340
g69
(g70
g71
NtRp4341
(dp4342
g74
(dp4343
g82
I5
ssg83
g4337
sg76
(lp4344
S'Phyloshiny'
p4345
asbasbasbag69
(g85
g71
NtRp4346
(dp4347
g74
(dp4348
sg83
g2909
sg76
(lp4349
g69
(g90
g71
NtRp4350
(dp4351
g74
(dp4352
g94
g95
ssg83
g4346
sg76
(lp4353
g2007
asbag69
(g90
g71
NtRp4354
(dp4355
g74
(dp4356
g101
g102
ssg83
g4346
sg76
(lp4357
S':'
asbag69
(g90
g71
NtRp4358
(dp4359
g74
(dp4360
sg83
g4346
sg76
(lp4361
g69
(g70
g71
NtRp4362
(dp4363
g74
(dp4364
g82
I5
ssg83
g4358
sg76
(lp4365
g2020
asbasbasbag69
(g85
g71
NtRp4366
(dp4367
g74
(dp4368
sg83
g2909
sg76
(lp4369
g69
(g90
g71
NtRp4370
(dp4371
g74
(dp4372
g94
g95
ssg83
g4366
sg76
(lp4373
S'view'
p4374
asbag69
(g90
g71
NtRp4375
(dp4376
g74
(dp4377
g101
g102
ssg83
g4366
sg76
(lp4378
S':'
asbag69
(g90
g71
NtRp4379
(dp4380
g74
(dp4381
sg83
g4366
sg76
(lp4382
g69
(g70
g71
NtRp4383
(dp4384
g74
(dp4385
g82
I5
ssg83
g4379
sg76
(lp4386
S'reconciliotastic/getPhylotasticTree.html'
p4387
asbasbasbasbasbsS'locals'
p4388
(dp4389
S'err'
p4390
S"error(110, 'Connection timed out')"
p4391
sS'h'
S'<httplib.HTTPConnection instance>'
p4392
sS'self'
p4393
S'<urllib2.HTTPHandler instance>'
p4394
sS'req'
p4395
S'<urllib2.Request instance>'
p4396
sg3234
S"{'Connection': 'close', 'Host': 'phylotastic-wg.nescent.org', 'User-Agent': 'Python-urllib/2.7'}"
p4397
sS'host'
p4398
S"'phylotastic-wg.nescent.org'"
p4399
sS'http_class'
p4400
S'<class httplib.HTTPConnection>'
p4401
sssS'traceback'
p4402
S'Traceback (most recent call last):\n  File "/usr/lib/pymodules/python2.7/gluon/restricted.py", line 204, in restricted\n    exec ccode in environment\n  File "/home/prateek/web2py/applications/phyloShiny/controllers/reconciliotastic.py", line 169, in <module>\n  File "/usr/lib/pymodules/python2.7/gluon/globals.py", line 172, in <lambda>\n    self._caller = lambda f: f()\n  File "/home/prateek/web2py/applications/phyloShiny/controllers/reconciliotastic.py", line 112, in getPhylotasticTree\n    conn = urllib2.urlopen(speciesTreeUrl)\n  File "/usr/lib/python2.7/urllib2.py", line 126, in urlopen\n    return _opener.open(url, data, timeout)\n  File "/usr/lib/python2.7/urllib2.py", line 400, in open\n    response = self._open(req, data)\n  File "/usr/lib/python2.7/urllib2.py", line 418, in _open\n    \'_open\', req)\n  File "/usr/lib/python2.7/urllib2.py", line 378, in _call_chain\n    result = func(*args)\n  File "/usr/lib/python2.7/urllib2.py", line 1207, in http_open\n    return self.do_open(httplib.HTTPConnection, req)\n  File "/usr/lib/python2.7/urllib2.py", line 1177, in do_open\n    raise URLError(err)\nURLError: <urlopen error [Errno 110] Connection timed out>\n'
p4403
s.