(dp1
S'output'
p2
S"<type 'exceptions.IOError'> [Errno 2] No such file or directory: '/home/prateek/web2py/applications/phyloShiny/static/sample_data/demo_Mammal_Hemoglobin/input_genetree.nwk_removed_nodes.txt'"
p3
sS'layer'
p4
S'/home/prateek/web2py/applications/phyloShiny/controllers/reconciliotastic.py'
p5
sS'code'
p6
S'# -*- coding: utf-8 -*-\n# this file is released under public domain and you can use without limitations\n\n#########################################################################\n## This is a sample controller\n## - index is the default action of any application\n## - user is required for authentication and authorization\n## - download is for downloading files uploaded in the db (does streaming)\n## - call exposes all registered services (none by default)\n#########################################################################\nimport os\nimport socket\nimport urllib2\nfrom gluon import *\nfrom Bio import Phylo\t\nfrom Bio.Phylo import Newick\t\t\t\t\t \t\t#import biopython modules as per requirement \n\ndef index():\n    rootFolder = current.request.folder\n    folders = os.listdir(rootFolder+\'static/sample_data/\')\n\n    # Go through the subfolders within sample_data, only keep folders\n    # that match \'demo\'\n    folders = [x.split(\'_\',1)[1] for x in folders if x.split(\'_\')[0] == \'demo\']\n    folderLabels = [x.replace(\'_\', \' \') for x in folders]\n\n    # Return a list of tuples, like [ [\'Mammal_Hemoglobin\', \'Mammal Hemoglobin\'] , ... ]\n    # This lets us have nice display names in the <select> element in the view.\n    foldersAndLabels = zip(folders, folderLabels)\n    return dict(foldersAndLabels=foldersAndLabels)\n\ndef getFileName():\n    # Returns the absolute filename for the "input" gene tree\n    # file. Uses the treeFileName request parameter, as that\'s our\n    # main state-tracking value passed between the view and controller\n    # between each step.\n    rootFolder = current.request.folder\n    absoluteFileName = rootFolder+current.request.vars.treeFileName\n    return absoluteFileName\n\ndef getRelativeWebPath(suffix):\n    # Currently a no-op.\n    return suffix\n\ndef visualize():\n    # Visualize controller. Does some preprocessing before generating\n    # the HTML for viewing a given tree.\n\n    # Takes in the \'treeName\' and \'file\' params, and creates the URL\n    # which can be used to access / download the given tree file. This\n    # is only really necessary because the <applet> tag requires a\n    # parameter, which is then sent to Archaeopteryx, that requires\n    # the *entire* URL of the tree to load. With a non-applet based\n    # visualization this wouldn\'t be an issue.\n    treeFile = current.request.vars.treeName\n    suffix = current.request.vars.file\n\n    # Use the request http_host.\n    hostname = current.request.env.http_host\n\n    # Toggle to phylotastic URL if we detect a NESCENT socket host.\n    socket_hostname = socket.gethostname()\n    if \'phylotastic\' in socket_hostname.lower():\n        hostname = \'phylotastic.nescent.org\'\n\n    treeUrl = URL(\'static\', \'sample_data/demo_\'+treeFile+\'/input_genetree.nwk\'+suffix,\n                 scheme=\'http\', host=hostname)\n\n    return dict(treeUrl=treeUrl,\n                header=current.request.vars.header)\n\ndef getSpeciesList():\n    # Absolute file name of the input tree file.\n    absoluteFileName = getFileName()\n    # "Prefix", i.e. the input tree file without the ending\n    # \'.txt\'. This is used as the prefix for all generated output\n    # files\n    filePrefix = absoluteFileName[:-4]\n\n    shellCall = \'java -Xmx1024m -cp \'\n    shellCall += current.request.folder+\'static/lib/forester.jar \'\n    shellCall += \'org.forester.application.gene_tree_preprocess \'\n    shellCall += absoluteFileName\n    os.system(shellCall)\n\n    removedNodes = [l.strip() for l in open(filePrefix+\'_removed_nodes.txt\').readlines()]\n    keptNodes = [l.strip() for l in open(filePrefix+\'_species_present.txt\').readlines()]\n    \n    geneTreeFile = getRelativeWebPath(\'_preprocessed_gene_tree.phylo.xml\')\n\n    # Note: we always return the \'vizFile\' and \'vizLabel\' data values\n    # from each Ajax call, as they\'re used consistently by the\n    # front-end to generate visualization links.\n    return response.json( dict(vizFile = geneTreeFile,\n                               vizLabel = "Input Gene Tree",\n                               removedNodes = removedNodes, \n                               keptNodes = keptNodes))\n\ndef getPhylotasticTree():\n    absoluteFileName = getFileName()\n    filePrefix = absoluteFileName[:-4]\n\n    # Load the kept nodes and create the comma-delimited species\n    # string for sending to PTastic\n    speciesList = [l.strip() for l in open(filePrefix+\'_species_present.txt\').readlines()]\n    # Need underscores instead of spaces\n    speciesList = [x.replace(\' \', \'_\') for x in speciesList]\n    speciesString = \',\'.join(speciesList)\n\n    phylotasticUrlBase = \'http://phylotastic-wg.nescent.org/script/phylotastic.cgi?species=\'\n    speciesTreeUrl = phylotasticUrlBase+speciesString+\'&tree=mammals&format=newick\'\n    conn = urllib2.urlopen(speciesTreeUrl)\n    speciesTreeString = conn.read()\n    speciesTreeString = speciesTreeString.strip()\n\n    speciesTreeFilename = filePrefix+\'_species_tree.txt\'\n    open(speciesTreeFilename,\'w\').write(speciesTreeString)\n\n    # TODO: It would be nice here to count the number of species in\n    # the returned species tree, so we can let users know if PTastic\n    # found everything we searched for. This would require parsing the\n    # Newick and counting nodes, probably using something like\n    # BioPython rather than making an external call to Java again.\n    \n    got_nodes=countnodes()\n    #no. of non-terminal nodes received in got_nodes.Now can be printed or checked with user input value to test if all species received.\n    #then further we can maintain a textview in the frontend indicating the number of nodes(i.e. the number of species)\n\n    speciesTreeWebFile = getRelativeWebPath(\'_species_tree.txt\')\n\n    return response.json( dict(vizFile = speciesTreeWebFile,\n                               vizLabel = "Phylotastic Species Tree"\n                               ) )\n\ndef countnodes():\n\n    #setting a counter for counting nodes i.e.number of species in the species newick tree.\n    #I have referenced the link http://biopython.org/DIST/docs/tutorial/Tutorial.html#htoc182 to know the get_terminals() function\n\n    count=0\t\t\t\t\t\t\t\t\t#global counter to keep the count of the nodes\n    tree = Phylo.read("speciesTreeFilename", "newick")\t\t\t\t#tree reads the species labels in newick format\n    for node in tree.get_terminals(): \t\t\t\t\t#loop to traverse through these nodes\n    \tcount+=1\t\t\t\t\t\t\t\t\t#updating counter value\n    return count\t\t\t\t\t\t\t\t#counter value return\n\n\ndef reconcileTrees():\n    absoluteFileName = getFileName()\n    filePrefix = absoluteFileName[:-4]\n\n    geneTreeFile = filePrefix+\'_preprocessed_gene_tree.phylo.xml\'\n    speciesTreeFile = filePrefix+\'_species_tree.txt\'\n\n    shellCall = \'java -Xmx1024m -cp \'\n    shellCall += current.request.folder+\'static/lib/forester.jar \'\n    shellCall += \'org.forester.application.gsdi \'\n    shellCall += \'-m -q \'\n    shellCall += geneTreeFile\n    shellCall += \' \'+speciesTreeFile\n\n    os.system(shellCall)\n    \n    reconciledTreeWebFile = getRelativeWebPath(\'_preprocessed_gene_tree.phylo_gsdi_out.phylo.xml\')\n    \n    return response.json( dict(vizFile = reconciledTreeWebFile,\n                               vizLabel = "Reconciled Tree (red=duplication, green=speciation)"\n                               ) )\n\nresponse._vars=response._caller(getSpeciesList)\n'
p7
sS'snapshot'
p8
(dp9
S'exception'
p10
(dp11
S'__getslice__'
p12
S"<method-wrapper '__getslice__' of exceptions.IOError object>"
p13
sS'__str__'
p14
S"<method-wrapper '__str__' of exceptions.IOError object>"
p15
sS'__reduce__'
p16
S'<built-in method __reduce__ of exceptions.IOError object>'
p17
sS'__dict__'
p18
S'{}'
p19
sS'__sizeof__'
p20
S'<built-in method __sizeof__ of exceptions.IOError object>'
p21
sS'__init__'
p22
S"<method-wrapper '__init__' of exceptions.IOError object>"
p23
sS'__setattr__'
p24
S"<method-wrapper '__setattr__' of exceptions.IOError object>"
p25
sS'__reduce_ex__'
p26
S'<built-in method __reduce_ex__ of exceptions.IOError object>'
p27
sS'__new__'
p28
S'<built-in method __new__ of type object>'
p29
sS'errno'
p30
S'2'
sS'__format__'
p31
S'<built-in method __format__ of exceptions.IOError object>'
p32
sS'__class__'
p33
S"<type 'exceptions.IOError'>"
p34
sS'filename'
p35
S"'/home/prateek/web2py/applications/phyloShiny/sta...l_Hemoglobin/input_genetree.nwk_removed_nodes.txt'"
p36
sS'__doc__'
p37
S"'I/O operation failed.'"
p38
sS'__getitem__'
p39
S"<method-wrapper '__getitem__' of exceptions.IOError object>"
p40
sS'__setstate__'
p41
S'<built-in method __setstate__ of exceptions.IOError object>'
p42
sS'__getattribute__'
p43
S"<method-wrapper '__getattribute__' of exceptions.IOError object>"
p44
sS'args'
p45
S"(2, 'No such file or directory')"
p46
sS'__subclasshook__'
p47
S'<built-in method __subclasshook__ of type object>'
p48
sS'__unicode__'
p49
S'<built-in method __unicode__ of exceptions.IOError object>'
p50
sS'strerror'
p51
S"'No such file or directory'"
p52
sS'__delattr__'
p53
S"<method-wrapper '__delattr__' of exceptions.IOError object>"
p54
sS'__repr__'
p55
S"<method-wrapper '__repr__' of exceptions.IOError object>"
p56
sS'__hash__'
p57
S"<method-wrapper '__hash__' of exceptions.IOError object>"
p58
ssS'evalue'
p59
S"[Errno 2] No such file or directory: '/home/prateek/web2py/applications/phyloShiny/static/sample_data/demo_Mammal_Hemoglobin/input_genetree.nwk_removed_nodes.txt'"
p60
sS'request'
p61
ccopy_reg
_reconstructor
p62
(cgluon.html
BEAUTIFY
p63
c__builtin__
object
p64
NtRp65
(dp66
S'attributes'
p67
(dp68
sS'components'
p69
(lp70
g62
(cgluon.html
TABLE
p71
g64
NtRp72
(dp73
g67
(dp74
S'level'
p75
I5
ssS'parent'
p76
Nsg69
(lp77
g62
(cgluon.html
TR
p78
g64
NtRp79
(dp80
g67
(dp81
sg76
g72
sg69
(lp82
g62
(cgluon.html
TD
p83
g64
NtRp84
(dp85
g67
(dp86
S'_style'
p87
S'font-weight:bold;vertical-align:top'
p88
ssg76
g79
sg69
(lp89
S'ajax'
p90
asbag62
(g83
g64
NtRp91
(dp92
g67
(dp93
S'_valign'
p94
S'top'
p95
ssg76
g79
sg69
(lp96
S':'
asbag62
(g83
g64
NtRp97
(dp98
g67
(dp99
sg76
g79
sg69
(lp100
g62
(g63
g64
NtRp101
(dp102
g67
(dp103
g75
I5
ssg76
g97
sg69
(lp104
S'True'
p105
asbasbasbag62
(g78
g64
NtRp106
(dp107
g67
(dp108
sg76
g72
sg69
(lp109
g62
(g83
g64
NtRp110
(dp111
g67
(dp112
g87
g88
ssg76
g106
sg69
(lp113
S'application'
p114
asbag62
(g83
g64
NtRp115
(dp116
g67
(dp117
g94
g95
ssg76
g106
sg69
(lp118
S':'
asbag62
(g83
g64
NtRp119
(dp120
g67
(dp121
sg76
g106
sg69
(lp122
g62
(g63
g64
NtRp123
(dp124
g67
(dp125
g75
I5
ssg76
g119
sg69
(lp126
S'phyloShiny'
p127
asbasbasbag62
(g78
g64
NtRp128
(dp129
g67
(dp130
sg76
g72
sg69
(lp131
g62
(g83
g64
NtRp132
(dp133
g67
(dp134
g87
g88
ssg76
g128
sg69
(lp135
g45
asbag62
(g83
g64
NtRp136
(dp137
g67
(dp138
g94
g95
ssg76
g128
sg69
(lp139
S':'
asbag62
(g83
g64
NtRp140
(dp141
g67
(dp142
sg76
g128
sg69
(lp143
g62
(g63
g64
NtRp144
(dp145
g67
(dp146
g75
I5
ssg76
g140
sg69
(lp147
g62
(g71
g64
NtRp148
(dp149
g67
(dp150
g75
I4
ssg76
Nsg69
(lp151
sbasbasbasbag62
(g78
g64
NtRp152
(dp153
g67
(dp154
sg76
g72
sg69
(lp155
g62
(g83
g64
NtRp156
(dp157
g67
(dp158
g87
g88
ssg76
g152
sg69
(lp159
S'body'
p160
asbag62
(g83
g64
NtRp161
(dp162
g67
(dp163
g94
g95
ssg76
g152
sg69
(lp164
S':'
asbag62
(g83
g64
NtRp165
(dp166
g67
(dp167
sg76
g152
sg69
(lp168
g62
(g63
g64
NtRp169
(dp170
g67
(dp171
g75
I5
ssg76
g165
sg69
(lp172
S'<cStringIO.StringO object at 0xab3358e0>'
p173
asbasbasbag62
(g78
g64
NtRp174
(dp175
g67
(dp176
sg76
g72
sg69
(lp177
g62
(g83
g64
NtRp178
(dp179
g67
(dp180
g87
g88
ssg76
g174
sg69
(lp181
S'client'
p182
asbag62
(g83
g64
NtRp183
(dp184
g67
(dp185
g94
g95
ssg76
g174
sg69
(lp186
S':'
asbag62
(g83
g64
NtRp187
(dp188
g67
(dp189
sg76
g174
sg69
(lp190
g62
(g63
g64
NtRp191
(dp192
g67
(dp193
g75
I5
ssg76
g187
sg69
(lp194
S'127.0.0.1'
p195
asbasbasbag62
(g78
g64
NtRp196
(dp197
g67
(dp198
sg76
g72
sg69
(lp199
g62
(g83
g64
NtRp200
(dp201
g67
(dp202
g87
g88
ssg76
g196
sg69
(lp203
S'controller'
p204
asbag62
(g83
g64
NtRp205
(dp206
g67
(dp207
g94
g95
ssg76
g196
sg69
(lp208
S':'
asbag62
(g83
g64
NtRp209
(dp210
g67
(dp211
sg76
g196
sg69
(lp212
g62
(g63
g64
NtRp213
(dp214
g67
(dp215
g75
I5
ssg76
g209
sg69
(lp216
S'reconciliotastic'
p217
asbasbasbag62
(g78
g64
NtRp218
(dp219
g67
(dp220
sg76
g72
sg69
(lp221
g62
(g83
g64
NtRp222
(dp223
g67
(dp224
g87
g88
ssg76
g218
sg69
(lp225
S'cookies'
p226
asbag62
(g83
g64
NtRp227
(dp228
g67
(dp229
g94
g95
ssg76
g218
sg69
(lp230
S':'
asbag62
(g83
g64
NtRp231
(dp232
g67
(dp233
sg76
g218
sg69
(lp234
g62
(g63
g64
NtRp235
(dp236
g67
(dp237
g75
I5
ssg76
g231
sg69
(lp238
g62
(g71
g64
NtRp239
(dp240
g67
(dp241
g75
I4
ssg76
Nsg69
(lp242
g62
(g78
g64
NtRp243
(dp244
g67
(dp245
sg76
g239
sg69
(lp246
g62
(g83
g64
NtRp247
(dp248
g67
(dp249
g87
g88
ssg76
g243
sg69
(lp250
S'session_id_phyloshiny'
p251
asbag62
(g83
g64
NtRp252
(dp253
g67
(dp254
g94
g95
ssg76
g243
sg69
(lp255
S':'
asbag62
(g83
g64
NtRp256
(dp257
g67
(dp258
sg76
g243
sg69
(lp259
g62
(g63
g64
NtRp260
(dp261
g67
(dp262
g75
I4
ssg76
g256
sg69
(lp263
g62
(g71
g64
NtRp264
(dp265
g67
(dp266
g75
I3
ssg76
Nsg69
(lp267
g62
(g78
g64
NtRp268
(dp269
g67
(dp270
sg76
g264
sg69
(lp271
g62
(g83
g64
NtRp272
(dp273
g67
(dp274
g87
g88
ssg76
g268
sg69
(lp275
S'comment'
p276
asbag62
(g83
g64
NtRp277
(dp278
g67
(dp279
g94
g95
ssg76
g268
sg69
(lp280
S':'
asbag62
(g83
g64
NtRp281
(dp282
g67
(dp283
sg76
g268
sg69
(lp284
g62
(g63
g64
NtRp285
(dp286
g67
(dp287
g75
I3
ssg76
g281
sg69
(lp288
S''
asbasbasbag62
(g78
g64
NtRp289
(dp290
g67
(dp291
sg76
g264
sg69
(lp292
g62
(g83
g64
NtRp293
(dp294
g67
(dp295
g87
g88
ssg76
g289
sg69
(lp296
S'domain'
p297
asbag62
(g83
g64
NtRp298
(dp299
g67
(dp300
g94
g95
ssg76
g289
sg69
(lp301
S':'
asbag62
(g83
g64
NtRp302
(dp303
g67
(dp304
sg76
g289
sg69
(lp305
g62
(g63
g64
NtRp306
(dp307
g67
(dp308
g75
I3
ssg76
g302
sg69
(lp309
S''
asbasbasbag62
(g78
g64
NtRp310
(dp311
g67
(dp312
sg76
g264
sg69
(lp313
g62
(g83
g64
NtRp314
(dp315
g67
(dp316
g87
g88
ssg76
g310
sg69
(lp317
S'expires'
p318
asbag62
(g83
g64
NtRp319
(dp320
g67
(dp321
g94
g95
ssg76
g310
sg69
(lp322
S':'
asbag62
(g83
g64
NtRp323
(dp324
g67
(dp325
sg76
g310
sg69
(lp326
g62
(g63
g64
NtRp327
(dp328
g67
(dp329
g75
I3
ssg76
g323
sg69
(lp330
S''
asbasbasbag62
(g78
g64
NtRp331
(dp332
g67
(dp333
sg76
g264
sg69
(lp334
g62
(g83
g64
NtRp335
(dp336
g67
(dp337
g87
g88
ssg76
g331
sg69
(lp338
S'httponly'
p339
asbag62
(g83
g64
NtRp340
(dp341
g67
(dp342
g94
g95
ssg76
g331
sg69
(lp343
S':'
asbag62
(g83
g64
NtRp344
(dp345
g67
(dp346
sg76
g331
sg69
(lp347
g62
(g63
g64
NtRp348
(dp349
g67
(dp350
g75
I3
ssg76
g344
sg69
(lp351
S''
asbasbasbag62
(g78
g64
NtRp352
(dp353
g67
(dp354
sg76
g264
sg69
(lp355
g62
(g83
g64
NtRp356
(dp357
g67
(dp358
g87
g88
ssg76
g352
sg69
(lp359
S'max-age'
p360
asbag62
(g83
g64
NtRp361
(dp362
g67
(dp363
g94
g95
ssg76
g352
sg69
(lp364
S':'
asbag62
(g83
g64
NtRp365
(dp366
g67
(dp367
sg76
g352
sg69
(lp368
g62
(g63
g64
NtRp369
(dp370
g67
(dp371
g75
I3
ssg76
g365
sg69
(lp372
S''
asbasbasbag62
(g78
g64
NtRp373
(dp374
g67
(dp375
sg76
g264
sg69
(lp376
g62
(g83
g64
NtRp377
(dp378
g67
(dp379
g87
g88
ssg76
g373
sg69
(lp380
S'path'
p381
asbag62
(g83
g64
NtRp382
(dp383
g67
(dp384
g94
g95
ssg76
g373
sg69
(lp385
S':'
asbag62
(g83
g64
NtRp386
(dp387
g67
(dp388
sg76
g373
sg69
(lp389
g62
(g63
g64
NtRp390
(dp391
g67
(dp392
g75
I3
ssg76
g386
sg69
(lp393
S''
asbasbasbag62
(g78
g64
NtRp394
(dp395
g67
(dp396
sg76
g264
sg69
(lp397
g62
(g83
g64
NtRp398
(dp399
g67
(dp400
g87
g88
ssg76
g394
sg69
(lp401
S'secure'
p402
asbag62
(g83
g64
NtRp403
(dp404
g67
(dp405
g94
g95
ssg76
g394
sg69
(lp406
S':'
asbag62
(g83
g64
NtRp407
(dp408
g67
(dp409
sg76
g394
sg69
(lp410
g62
(g63
g64
NtRp411
(dp412
g67
(dp413
g75
I3
ssg76
g407
sg69
(lp414
S''
asbasbasbag62
(g78
g64
NtRp415
(dp416
g67
(dp417
sg76
g264
sg69
(lp418
g62
(g83
g64
NtRp419
(dp420
g67
(dp421
g87
g88
ssg76
g415
sg69
(lp422
S'version'
p423
asbag62
(g83
g64
NtRp424
(dp425
g67
(dp426
g94
g95
ssg76
g415
sg69
(lp427
S':'
asbag62
(g83
g64
NtRp428
(dp429
g67
(dp430
sg76
g415
sg69
(lp431
g62
(g63
g64
NtRp432
(dp433
g67
(dp434
g75
I3
ssg76
g428
sg69
(lp435
S''
asbasbasbasbasbasbasbasbasbasbasbag62
(g78
g64
NtRp436
(dp437
g67
(dp438
sg76
g72
sg69
(lp439
g62
(g83
g64
NtRp440
(dp441
g67
(dp442
g87
g88
ssg76
g436
sg69
(lp443
S'env'
p444
asbag62
(g83
g64
NtRp445
(dp446
g67
(dp447
g94
g95
ssg76
g436
sg69
(lp448
S':'
asbag62
(g83
g64
NtRp449
(dp450
g67
(dp451
sg76
g436
sg69
(lp452
g62
(g63
g64
NtRp453
(dp454
g67
(dp455
g75
I5
ssg76
g449
sg69
(lp456
g62
(g71
g64
NtRp457
(dp458
g67
(dp459
g75
I4
ssg76
Nsg69
(lp460
g62
(g78
g64
NtRp461
(dp462
g67
(dp463
sg76
g457
sg69
(lp464
g62
(g83
g64
NtRp465
(dp466
g67
(dp467
g87
g88
ssg76
g461
sg69
(lp468
S'app_folders'
p469
asbag62
(g83
g64
NtRp470
(dp471
g67
(dp472
g94
g95
ssg76
g461
sg69
(lp473
S':'
asbag62
(g83
g64
NtRp474
(dp475
g67
(dp476
sg76
g461
sg69
(lp477
g62
(g63
g64
NtRp478
(dp479
g67
(dp480
g75
I4
ssg76
g474
sg69
(lp481
S"set(['/home/prateek/web2py/applications/phyloShiny/', '/home/prateek/web2py/applications/welcome/'])"
p482
asbasbasbag62
(g78
g64
NtRp483
(dp484
g67
(dp485
sg76
g457
sg69
(lp486
g62
(g83
g64
NtRp487
(dp488
g67
(dp489
g87
g88
ssg76
g483
sg69
(lp490
S'applications_parent'
p491
asbag62
(g83
g64
NtRp492
(dp493
g67
(dp494
g94
g95
ssg76
g483
sg69
(lp495
S':'
asbag62
(g83
g64
NtRp496
(dp497
g67
(dp498
sg76
g483
sg69
(lp499
g62
(g63
g64
NtRp500
(dp501
g67
(dp502
g75
I4
ssg76
g496
sg69
(lp503
S'/home/prateek/web2py'
p504
asbasbasbag62
(g78
g64
NtRp505
(dp506
g67
(dp507
sg76
g457
sg69
(lp508
g62
(g83
g64
NtRp509
(dp510
g67
(dp511
g87
g88
ssg76
g505
sg69
(lp512
S'cmd_args'
p513
asbag62
(g83
g64
NtRp514
(dp515
g67
(dp516
g94
g95
ssg76
g505
sg69
(lp517
S':'
asbag62
(g83
g64
NtRp518
(dp519
g67
(dp520
sg76
g505
sg69
(lp521
g62
(g63
g64
NtRp522
(dp523
g67
(dp524
g75
I4
ssg76
g518
sg69
(lp525
g62
(g71
g64
NtRp526
(dp527
g67
(dp528
g75
I3
ssg76
Nsg69
(lp529
sbasbasbasbag62
(g78
g64
NtRp530
(dp531
g67
(dp532
sg76
g457
sg69
(lp533
g62
(g83
g64
NtRp534
(dp535
g67
(dp536
g87
g88
ssg76
g530
sg69
(lp537
S'cmd_options'
p538
asbag62
(g83
g64
NtRp539
(dp540
g67
(dp541
g94
g95
ssg76
g530
sg69
(lp542
S':'
asbag62
(g83
g64
NtRp543
(dp544
g67
(dp545
sg76
g530
sg69
(lp546
g62
(g63
g64
NtRp547
(dp548
g67
(dp549
g75
I4
ssg76
g543
sg69
(lp550
S"<Values at 0x8e875ec: {'verbose': False, 'ip': '127.0.0.1', 'shutdown_timeout': 5, 'taskbar': False, 'port': 8000, 'maxthreads': None, 'softcron': False, 'server_name': 'prateek-Inspiron-N5110', 'bpython': False, 'nogui': False, 'nocron': False, 'extcron': False, 'debuglevel': 30, 'test': None, 'folder': '/home/prateek/web2py', 'config': '', 'import_models': False, 'winservice': '', 'shell': None, 'run': '', 'log_filename': 'httpserver.log', 'args': [''], 'socket_timeout': 1, 'profiler_filename': None, 'ssl_private_key': '', 'password': '<ask>', 'request_queue_size': 5, 'ssl_certificate': '', 'cronjob': False, 'plain': False, 'quiet': False, 'interfaces': None, 'minthreads': None, 'timeout': 10, 'numthreads': None, 'nobanner': False, 'pid_filename': 'httpserver.pid'}>"
p551
asbasbasbag62
(g78
g64
NtRp552
(dp553
g67
(dp554
sg76
g457
sg69
(lp555
g62
(g83
g64
NtRp556
(dp557
g67
(dp558
g87
g88
ssg76
g552
sg69
(lp559
S'db_sessions'
p560
asbag62
(g83
g64
NtRp561
(dp562
g67
(dp563
g94
g95
ssg76
g552
sg69
(lp564
S':'
asbag62
(g83
g64
NtRp565
(dp566
g67
(dp567
sg76
g552
sg69
(lp568
g62
(g63
g64
NtRp569
(dp570
g67
(dp571
g75
I4
ssg76
g565
sg69
(lp572
S'set([])'
p573
asbasbasbag62
(g78
g64
NtRp574
(dp575
g67
(dp576
sg76
g457
sg69
(lp577
g62
(g83
g64
NtRp578
(dp579
g67
(dp580
g87
g88
ssg76
g574
sg69
(lp581
S'debugging'
p582
asbag62
(g83
g64
NtRp583
(dp584
g67
(dp585
g94
g95
ssg76
g574
sg69
(lp586
S':'
asbag62
(g83
g64
NtRp587
(dp588
g67
(dp589
sg76
g574
sg69
(lp590
g62
(g63
g64
NtRp591
(dp592
g67
(dp593
g75
I4
ssg76
g587
sg69
(lp594
S'False'
p595
asbasbasbag62
(g78
g64
NtRp596
(dp597
g67
(dp598
sg76
g457
sg69
(lp599
g62
(g83
g64
NtRp600
(dp601
g67
(dp602
g87
g88
ssg76
g596
sg69
(lp603
S'gluon_parent'
p604
asbag62
(g83
g64
NtRp605
(dp606
g67
(dp607
g94
g95
ssg76
g596
sg69
(lp608
S':'
asbag62
(g83
g64
NtRp609
(dp610
g67
(dp611
sg76
g596
sg69
(lp612
g62
(g63
g64
NtRp613
(dp614
g67
(dp615
g75
I4
ssg76
g609
sg69
(lp616
S'/usr/share/web2py'
p617
asbasbasbag62
(g78
g64
NtRp618
(dp619
g67
(dp620
sg76
g457
sg69
(lp621
g62
(g83
g64
NtRp622
(dp623
g67
(dp624
g87
g88
ssg76
g618
sg69
(lp625
S'http_accept'
p626
asbag62
(g83
g64
NtRp627
(dp628
g67
(dp629
g94
g95
ssg76
g618
sg69
(lp630
S':'
asbag62
(g83
g64
NtRp631
(dp632
g67
(dp633
sg76
g618
sg69
(lp634
g62
(g63
g64
NtRp635
(dp636
g67
(dp637
g75
I4
ssg76
g631
sg69
(lp638
S'*/*'
p639
asbasbasbag62
(g78
g64
NtRp640
(dp641
g67
(dp642
sg76
g457
sg69
(lp643
g62
(g83
g64
NtRp644
(dp645
g67
(dp646
g87
g88
ssg76
g640
sg69
(lp647
S'http_accept_encoding'
p648
asbag62
(g83
g64
NtRp649
(dp650
g67
(dp651
g94
g95
ssg76
g640
sg69
(lp652
S':'
asbag62
(g83
g64
NtRp653
(dp654
g67
(dp655
sg76
g640
sg69
(lp656
g62
(g63
g64
NtRp657
(dp658
g67
(dp659
g75
I4
ssg76
g653
sg69
(lp660
S'gzip, deflate'
p661
asbasbasbag62
(g78
g64
NtRp662
(dp663
g67
(dp664
sg76
g457
sg69
(lp665
g62
(g83
g64
NtRp666
(dp667
g67
(dp668
g87
g88
ssg76
g662
sg69
(lp669
S'http_accept_language'
p670
asbag62
(g83
g64
NtRp671
(dp672
g67
(dp673
g94
g95
ssg76
g662
sg69
(lp674
S':'
asbag62
(g83
g64
NtRp675
(dp676
g67
(dp677
sg76
g662
sg69
(lp678
g62
(g63
g64
NtRp679
(dp680
g67
(dp681
g75
I4
ssg76
g675
sg69
(lp682
S'en-US,en;q=0.5'
p683
asbasbasbag62
(g78
g64
NtRp684
(dp685
g67
(dp686
sg76
g457
sg69
(lp687
g62
(g83
g64
NtRp688
(dp689
g67
(dp690
g87
g88
ssg76
g684
sg69
(lp691
S'http_connection'
p692
asbag62
(g83
g64
NtRp693
(dp694
g67
(dp695
g94
g95
ssg76
g684
sg69
(lp696
S':'
asbag62
(g83
g64
NtRp697
(dp698
g67
(dp699
sg76
g684
sg69
(lp700
g62
(g63
g64
NtRp701
(dp702
g67
(dp703
g75
I4
ssg76
g697
sg69
(lp704
S'keep-alive'
p705
asbasbasbag62
(g78
g64
NtRp706
(dp707
g67
(dp708
sg76
g457
sg69
(lp709
g62
(g83
g64
NtRp710
(dp711
g67
(dp712
g87
g88
ssg76
g706
sg69
(lp713
S'http_cookie'
p714
asbag62
(g83
g64
NtRp715
(dp716
g67
(dp717
g94
g95
ssg76
g706
sg69
(lp718
S':'
asbag62
(g83
g64
NtRp719
(dp720
g67
(dp721
sg76
g706
sg69
(lp722
g62
(g63
g64
NtRp723
(dp724
g67
(dp725
g75
I4
ssg76
g719
sg69
(lp726
S'session_id_phyloshiny=127.0.0.1-29df8bd8-fcb0-4d6b-a5ab-1820ffa709dc'
p727
asbasbasbag62
(g78
g64
NtRp728
(dp729
g67
(dp730
sg76
g457
sg69
(lp731
g62
(g83
g64
NtRp732
(dp733
g67
(dp734
g87
g88
ssg76
g728
sg69
(lp735
S'http_host'
p736
asbag62
(g83
g64
NtRp737
(dp738
g67
(dp739
g94
g95
ssg76
g728
sg69
(lp740
S':'
asbag62
(g83
g64
NtRp741
(dp742
g67
(dp743
sg76
g728
sg69
(lp744
g62
(g63
g64
NtRp745
(dp746
g67
(dp747
g75
I4
ssg76
g741
sg69
(lp748
S'127.0.0.1:8000'
p749
asbasbasbag62
(g78
g64
NtRp750
(dp751
g67
(dp752
sg76
g457
sg69
(lp753
g62
(g83
g64
NtRp754
(dp755
g67
(dp756
g87
g88
ssg76
g750
sg69
(lp757
S'http_referer'
p758
asbag62
(g83
g64
NtRp759
(dp760
g67
(dp761
g94
g95
ssg76
g750
sg69
(lp762
S':'
asbag62
(g83
g64
NtRp763
(dp764
g67
(dp765
sg76
g750
sg69
(lp766
g62
(g63
g64
NtRp767
(dp768
g67
(dp769
g75
I4
ssg76
g763
sg69
(lp770
S'http://127.0.0.1:8000/phyloShiny/reconciliotastic/index'
p771
asbasbasbag62
(g78
g64
NtRp772
(dp773
g67
(dp774
sg76
g457
sg69
(lp775
g62
(g83
g64
NtRp776
(dp777
g67
(dp778
g87
g88
ssg76
g772
sg69
(lp779
S'http_user_agent'
p780
asbag62
(g83
g64
NtRp781
(dp782
g67
(dp783
g94
g95
ssg76
g772
sg69
(lp784
S':'
asbag62
(g83
g64
NtRp785
(dp786
g67
(dp787
sg76
g772
sg69
(lp788
g62
(g63
g64
NtRp789
(dp790
g67
(dp791
g75
I4
ssg76
g785
sg69
(lp792
S'Mozilla/5.0 (X11; Ubuntu; Linux i686; rv:20.0) Gecko/20100101 Firefox/20.0'
p793
asbasbasbag62
(g78
g64
NtRp794
(dp795
g67
(dp796
sg76
g457
sg69
(lp797
g62
(g83
g64
NtRp798
(dp799
g67
(dp800
g87
g88
ssg76
g794
sg69
(lp801
S'http_x_requested_with'
p802
asbag62
(g83
g64
NtRp803
(dp804
g67
(dp805
g94
g95
ssg76
g794
sg69
(lp806
S':'
asbag62
(g83
g64
NtRp807
(dp808
g67
(dp809
sg76
g794
sg69
(lp810
g62
(g63
g64
NtRp811
(dp812
g67
(dp813
g75
I4
ssg76
g807
sg69
(lp814
S'XMLHttpRequest'
p815
asbasbasbag62
(g78
g64
NtRp816
(dp817
g67
(dp818
sg76
g457
sg69
(lp819
g62
(g83
g64
NtRp820
(dp821
g67
(dp822
g87
g88
ssg76
g816
sg69
(lp823
S'is_jython'
p824
asbag62
(g83
g64
NtRp825
(dp826
g67
(dp827
g94
g95
ssg76
g816
sg69
(lp828
S':'
asbag62
(g83
g64
NtRp829
(dp830
g67
(dp831
sg76
g816
sg69
(lp832
g62
(g63
g64
NtRp833
(dp834
g67
(dp835
g75
I4
ssg76
g829
sg69
(lp836
g595
asbasbasbag62
(g78
g64
NtRp837
(dp838
g67
(dp839
sg76
g457
sg69
(lp840
g62
(g83
g64
NtRp841
(dp842
g67
(dp843
g87
g88
ssg76
g837
sg69
(lp844
S'is_pypy'
p845
asbag62
(g83
g64
NtRp846
(dp847
g67
(dp848
g94
g95
ssg76
g837
sg69
(lp849
S':'
asbag62
(g83
g64
NtRp850
(dp851
g67
(dp852
sg76
g837
sg69
(lp853
g62
(g63
g64
NtRp854
(dp855
g67
(dp856
g75
I4
ssg76
g850
sg69
(lp857
g595
asbasbasbag62
(g78
g64
NtRp858
(dp859
g67
(dp860
sg76
g457
sg69
(lp861
g62
(g83
g64
NtRp862
(dp863
g67
(dp864
g87
g88
ssg76
g858
sg69
(lp865
S'path_info'
p866
asbag62
(g83
g64
NtRp867
(dp868
g67
(dp869
g94
g95
ssg76
g858
sg69
(lp870
S':'
asbag62
(g83
g64
NtRp871
(dp872
g67
(dp873
sg76
g858
sg69
(lp874
g62
(g63
g64
NtRp875
(dp876
g67
(dp877
g75
I4
ssg76
g871
sg69
(lp878
S'/phyloShiny/reconciliotastic/getSpeciesList'
p879
asbasbasbag62
(g78
g64
NtRp880
(dp881
g67
(dp882
sg76
g457
sg69
(lp883
g62
(g83
g64
NtRp884
(dp885
g67
(dp886
g87
g88
ssg76
g880
sg69
(lp887
S'query_string'
p888
asbag62
(g83
g64
NtRp889
(dp890
g67
(dp891
g94
g95
ssg76
g880
sg69
(lp892
S':'
asbag62
(g83
g64
NtRp893
(dp894
g67
(dp895
sg76
g880
sg69
(lp896
g62
(g63
g64
NtRp897
(dp898
g67
(dp899
g75
I4
ssg76
g893
sg69
(lp900
S'treeFileName=static%2Fsample_data%2Fdemo_Mammal_Hemoglobin%2Finput_genetree.nwk.txt'
p901
asbasbasbag62
(g78
g64
NtRp902
(dp903
g67
(dp904
sg76
g457
sg69
(lp905
g62
(g83
g64
NtRp906
(dp907
g67
(dp908
g87
g88
ssg76
g902
sg69
(lp909
S'remote_addr'
p910
asbag62
(g83
g64
NtRp911
(dp912
g67
(dp913
g94
g95
ssg76
g902
sg69
(lp914
S':'
asbag62
(g83
g64
NtRp915
(dp916
g67
(dp917
sg76
g902
sg69
(lp918
g62
(g63
g64
NtRp919
(dp920
g67
(dp921
g75
I4
ssg76
g915
sg69
(lp922
g195
asbasbasbag62
(g78
g64
NtRp923
(dp924
g67
(dp925
sg76
g457
sg69
(lp926
g62
(g83
g64
NtRp927
(dp928
g67
(dp929
g87
g88
ssg76
g923
sg69
(lp930
S'remote_port'
p931
asbag62
(g83
g64
NtRp932
(dp933
g67
(dp934
g94
g95
ssg76
g923
sg69
(lp935
S':'
asbag62
(g83
g64
NtRp936
(dp937
g67
(dp938
sg76
g923
sg69
(lp939
g62
(g63
g64
NtRp940
(dp941
g67
(dp942
g75
I4
ssg76
g936
sg69
(lp943
S'38849'
p944
asbasbasbag62
(g78
g64
NtRp945
(dp946
g67
(dp947
sg76
g457
sg69
(lp948
g62
(g83
g64
NtRp949
(dp950
g67
(dp951
g87
g88
ssg76
g945
sg69
(lp952
S'request_method'
p953
asbag62
(g83
g64
NtRp954
(dp955
g67
(dp956
g94
g95
ssg76
g945
sg69
(lp957
S':'
asbag62
(g83
g64
NtRp958
(dp959
g67
(dp960
sg76
g945
sg69
(lp961
g62
(g63
g64
NtRp962
(dp963
g67
(dp964
g75
I4
ssg76
g958
sg69
(lp965
S'GET'
p966
asbasbasbag62
(g78
g64
NtRp967
(dp968
g67
(dp969
sg76
g457
sg69
(lp970
g62
(g83
g64
NtRp971
(dp972
g67
(dp973
g87
g88
ssg76
g967
sg69
(lp974
S'script_name'
p975
asbag62
(g83
g64
NtRp976
(dp977
g67
(dp978
g94
g95
ssg76
g967
sg69
(lp979
S':'
asbag62
(g83
g64
NtRp980
(dp981
g67
(dp982
sg76
g967
sg69
(lp983
g62
(g63
g64
NtRp984
(dp985
g67
(dp986
g75
I4
ssg76
g980
sg69
(lp987
S''
asbasbasbag62
(g78
g64
NtRp988
(dp989
g67
(dp990
sg76
g457
sg69
(lp991
g62
(g83
g64
NtRp992
(dp993
g67
(dp994
g87
g88
ssg76
g988
sg69
(lp995
S'server_name'
p996
asbag62
(g83
g64
NtRp997
(dp998
g67
(dp999
g94
g95
ssg76
g988
sg69
(lp1000
S':'
asbag62
(g83
g64
NtRp1001
(dp1002
g67
(dp1003
sg76
g988
sg69
(lp1004
g62
(g63
g64
NtRp1005
(dp1006
g67
(dp1007
g75
I4
ssg76
g1001
sg69
(lp1008
S'prateek-Inspiron-N5110'
p1009
asbasbasbag62
(g78
g64
NtRp1010
(dp1011
g67
(dp1012
sg76
g457
sg69
(lp1013
g62
(g83
g64
NtRp1014
(dp1015
g67
(dp1016
g87
g88
ssg76
g1010
sg69
(lp1017
S'server_port'
p1018
asbag62
(g83
g64
NtRp1019
(dp1020
g67
(dp1021
g94
g95
ssg76
g1010
sg69
(lp1022
S':'
asbag62
(g83
g64
NtRp1023
(dp1024
g67
(dp1025
sg76
g1010
sg69
(lp1026
g62
(g63
g64
NtRp1027
(dp1028
g67
(dp1029
g75
I4
ssg76
g1023
sg69
(lp1030
S'8000'
p1031
asbasbasbag62
(g78
g64
NtRp1032
(dp1033
g67
(dp1034
sg76
g457
sg69
(lp1035
g62
(g83
g64
NtRp1036
(dp1037
g67
(dp1038
g87
g88
ssg76
g1032
sg69
(lp1039
S'server_protocol'
p1040
asbag62
(g83
g64
NtRp1041
(dp1042
g67
(dp1043
g94
g95
ssg76
g1032
sg69
(lp1044
S':'
asbag62
(g83
g64
NtRp1045
(dp1046
g67
(dp1047
sg76
g1032
sg69
(lp1048
g62
(g63
g64
NtRp1049
(dp1050
g67
(dp1051
g75
I4
ssg76
g1045
sg69
(lp1052
S'HTTP/1.1'
p1053
asbasbasbag62
(g78
g64
NtRp1054
(dp1055
g67
(dp1056
sg76
g457
sg69
(lp1057
g62
(g83
g64
NtRp1058
(dp1059
g67
(dp1060
g87
g88
ssg76
g1054
sg69
(lp1061
S'server_software'
p1062
asbag62
(g83
g64
NtRp1063
(dp1064
g67
(dp1065
g94
g95
ssg76
g1054
sg69
(lp1066
S':'
asbag62
(g83
g64
NtRp1067
(dp1068
g67
(dp1069
sg76
g1054
sg69
(lp1070
g62
(g63
g64
NtRp1071
(dp1072
g67
(dp1073
g75
I4
ssg76
g1067
sg69
(lp1074
S'Rocket 1.2.4'
p1075
asbasbasbag62
(g78
g64
NtRp1076
(dp1077
g67
(dp1078
sg76
g457
sg69
(lp1079
g62
(g83
g64
NtRp1080
(dp1081
g67
(dp1082
g87
g88
ssg76
g1076
sg69
(lp1083
S'web2py_crontype'
p1084
asbag62
(g83
g64
NtRp1085
(dp1086
g67
(dp1087
g94
g95
ssg76
g1076
sg69
(lp1088
S':'
asbag62
(g83
g64
NtRp1089
(dp1090
g67
(dp1091
sg76
g1076
sg69
(lp1092
g62
(g63
g64
NtRp1093
(dp1094
g67
(dp1095
g75
I4
ssg76
g1089
sg69
(lp1096
S'hard'
p1097
asbasbasbag62
(g78
g64
NtRp1098
(dp1099
g67
(dp1100
sg76
g457
sg69
(lp1101
g62
(g83
g64
NtRp1102
(dp1103
g67
(dp1104
g87
g88
ssg76
g1098
sg69
(lp1105
S'web2py_path'
p1106
asbag62
(g83
g64
NtRp1107
(dp1108
g67
(dp1109
g94
g95
ssg76
g1098
sg69
(lp1110
S':'
asbag62
(g83
g64
NtRp1111
(dp1112
g67
(dp1113
sg76
g1098
sg69
(lp1114
g62
(g63
g64
NtRp1115
(dp1116
g67
(dp1117
g75
I4
ssg76
g1111
sg69
(lp1118
g504
asbasbasbag62
(g78
g64
NtRp1119
(dp1120
g67
(dp1121
sg76
g457
sg69
(lp1122
g62
(g83
g64
NtRp1123
(dp1124
g67
(dp1125
g87
g88
ssg76
g1119
sg69
(lp1126
S'web2py_version'
p1127
asbag62
(g83
g64
NtRp1128
(dp1129
g67
(dp1130
g94
g95
ssg76
g1119
sg69
(lp1131
S':'
asbag62
(g83
g64
NtRp1132
(dp1133
g67
(dp1134
sg76
g1119
sg69
(lp1135
g62
(g63
g64
NtRp1136
(dp1137
g67
(dp1138
g75
I4
ssg76
g1132
sg69
(lp1139
g62
(g71
g64
NtRp1140
(dp1141
g67
(dp1142
g75
I3
ssg76
Nsg69
(lp1143
g62
(g78
g64
NtRp1144
(dp1145
g67
(dp1146
sg76
g1140
sg69
(lp1147
g62
(g83
g64
NtRp1148
(dp1149
g67
(dp1150
sg76
g1144
sg69
(lp1151
g62
(g63
g64
NtRp1152
(dp1153
g67
(dp1154
g75
I3
ssg76
g1148
sg69
(lp1155
S'1'
asbasbasbag62
(g78
g64
NtRp1156
(dp1157
g67
(dp1158
sg76
g1140
sg69
(lp1159
g62
(g83
g64
NtRp1160
(dp1161
g67
(dp1162
sg76
g1156
sg69
(lp1163
g62
(g63
g64
NtRp1164
(dp1165
g67
(dp1166
g75
I3
ssg76
g1160
sg69
(lp1167
S'99'
p1168
asbasbasbag62
(g78
g64
NtRp1169
(dp1170
g67
(dp1171
sg76
g1140
sg69
(lp1172
g62
(g83
g64
NtRp1173
(dp1174
g67
(dp1175
sg76
g1169
sg69
(lp1176
g62
(g63
g64
NtRp1177
(dp1178
g67
(dp1179
g75
I3
ssg76
g1173
sg69
(lp1180
S'4'
asbasbasbag62
(g78
g64
NtRp1181
(dp1182
g67
(dp1183
sg76
g1140
sg69
(lp1184
g62
(g83
g64
NtRp1185
(dp1186
g67
(dp1187
sg76
g1181
sg69
(lp1188
g62
(g63
g64
NtRp1189
(dp1190
g67
(dp1191
g75
I3
ssg76
g1185
sg69
(lp1192
S'datetime.datetime(2011, 12, 14, 14, 46, 14)'
p1193
asbasbasbag62
(g78
g64
NtRp1194
(dp1195
g67
(dp1196
sg76
g1140
sg69
(lp1197
g62
(g83
g64
NtRp1198
(dp1199
g67
(dp1200
sg76
g1194
sg69
(lp1201
g62
(g63
g64
NtRp1202
(dp1203
g67
(dp1204
g75
I3
ssg76
g1198
sg69
(lp1205
S'stable'
p1206
asbasbasbasbasbasbasbag62
(g78
g64
NtRp1207
(dp1208
g67
(dp1209
sg76
g457
sg69
(lp1210
g62
(g83
g64
NtRp1211
(dp1212
g67
(dp1213
g87
g88
ssg76
g1207
sg69
(lp1214
S'wsgi_errors'
p1215
asbag62
(g83
g64
NtRp1216
(dp1217
g67
(dp1218
g94
g95
ssg76
g1207
sg69
(lp1219
S':'
asbag62
(g83
g64
NtRp1220
(dp1221
g67
(dp1222
sg76
g1207
sg69
(lp1223
g62
(g63
g64
NtRp1224
(dp1225
g67
(dp1226
g75
I4
ssg76
g1220
sg69
(lp1227
S"<open file '<stderr>', mode 'w' at 0xb73210d0>"
p1228
asbasbasbag62
(g78
g64
NtRp1229
(dp1230
g67
(dp1231
sg76
g457
sg69
(lp1232
g62
(g83
g64
NtRp1233
(dp1234
g67
(dp1235
g87
g88
ssg76
g1229
sg69
(lp1236
S'wsgi_file_wrapper'
p1237
asbag62
(g83
g64
NtRp1238
(dp1239
g67
(dp1240
g94
g95
ssg76
g1229
sg69
(lp1241
S':'
asbag62
(g83
g64
NtRp1242
(dp1243
g67
(dp1244
sg76
g1229
sg69
(lp1245
g62
(g63
g64
NtRp1246
(dp1247
g67
(dp1248
g75
I4
ssg76
g1242
sg69
(lp1249
S'<class wsgiref.util.FileWrapper at 0x8c4f23c>'
p1250
asbasbasbag62
(g78
g64
NtRp1251
(dp1252
g67
(dp1253
sg76
g457
sg69
(lp1254
g62
(g83
g64
NtRp1255
(dp1256
g67
(dp1257
g87
g88
ssg76
g1251
sg69
(lp1258
S'wsgi_input'
p1259
asbag62
(g83
g64
NtRp1260
(dp1261
g67
(dp1262
g94
g95
ssg76
g1251
sg69
(lp1263
S':'
asbag62
(g83
g64
NtRp1264
(dp1265
g67
(dp1266
sg76
g1251
sg69
(lp1267
g62
(g63
g64
NtRp1268
(dp1269
g67
(dp1270
g75
I4
ssg76
g1264
sg69
(lp1271
S'<socket._fileobject object at 0x92d962c>'
p1272
asbasbasbag62
(g78
g64
NtRp1273
(dp1274
g67
(dp1275
sg76
g457
sg69
(lp1276
g62
(g83
g64
NtRp1277
(dp1278
g67
(dp1279
g87
g88
ssg76
g1273
sg69
(lp1280
S'wsgi_multiprocess'
p1281
asbag62
(g83
g64
NtRp1282
(dp1283
g67
(dp1284
g94
g95
ssg76
g1273
sg69
(lp1285
S':'
asbag62
(g83
g64
NtRp1286
(dp1287
g67
(dp1288
sg76
g1273
sg69
(lp1289
g62
(g63
g64
NtRp1290
(dp1291
g67
(dp1292
g75
I4
ssg76
g1286
sg69
(lp1293
g595
asbasbasbag62
(g78
g64
NtRp1294
(dp1295
g67
(dp1296
sg76
g457
sg69
(lp1297
g62
(g83
g64
NtRp1298
(dp1299
g67
(dp1300
g87
g88
ssg76
g1294
sg69
(lp1301
S'wsgi_multithread'
p1302
asbag62
(g83
g64
NtRp1303
(dp1304
g67
(dp1305
g94
g95
ssg76
g1294
sg69
(lp1306
S':'
asbag62
(g83
g64
NtRp1307
(dp1308
g67
(dp1309
sg76
g1294
sg69
(lp1310
g62
(g63
g64
NtRp1311
(dp1312
g67
(dp1313
g75
I4
ssg76
g1307
sg69
(lp1314
g105
asbasbasbag62
(g78
g64
NtRp1315
(dp1316
g67
(dp1317
sg76
g457
sg69
(lp1318
g62
(g83
g64
NtRp1319
(dp1320
g67
(dp1321
g87
g88
ssg76
g1315
sg69
(lp1322
S'wsgi_run_once'
p1323
asbag62
(g83
g64
NtRp1324
(dp1325
g67
(dp1326
g94
g95
ssg76
g1315
sg69
(lp1327
S':'
asbag62
(g83
g64
NtRp1328
(dp1329
g67
(dp1330
sg76
g1315
sg69
(lp1331
g62
(g63
g64
NtRp1332
(dp1333
g67
(dp1334
g75
I4
ssg76
g1328
sg69
(lp1335
g595
asbasbasbag62
(g78
g64
NtRp1336
(dp1337
g67
(dp1338
sg76
g457
sg69
(lp1339
g62
(g83
g64
NtRp1340
(dp1341
g67
(dp1342
g87
g88
ssg76
g1336
sg69
(lp1343
S'wsgi_url_scheme'
p1344
asbag62
(g83
g64
NtRp1345
(dp1346
g67
(dp1347
g94
g95
ssg76
g1336
sg69
(lp1348
S':'
asbag62
(g83
g64
NtRp1349
(dp1350
g67
(dp1351
sg76
g1336
sg69
(lp1352
g62
(g63
g64
NtRp1353
(dp1354
g67
(dp1355
g75
I4
ssg76
g1349
sg69
(lp1356
S'http'
p1357
asbasbasbag62
(g78
g64
NtRp1358
(dp1359
g67
(dp1360
sg76
g457
sg69
(lp1361
g62
(g83
g64
NtRp1362
(dp1363
g67
(dp1364
g87
g88
ssg76
g1358
sg69
(lp1365
S'wsgi_version'
p1366
asbag62
(g83
g64
NtRp1367
(dp1368
g67
(dp1369
g94
g95
ssg76
g1358
sg69
(lp1370
S':'
asbag62
(g83
g64
NtRp1371
(dp1372
g67
(dp1373
sg76
g1358
sg69
(lp1374
g62
(g63
g64
NtRp1375
(dp1376
g67
(dp1377
g75
I4
ssg76
g1371
sg69
(lp1378
g62
(g71
g64
NtRp1379
(dp1380
g67
(dp1381
g75
I3
ssg76
Nsg69
(lp1382
g62
(g78
g64
NtRp1383
(dp1384
g67
(dp1385
sg76
g1379
sg69
(lp1386
g62
(g83
g64
NtRp1387
(dp1388
g67
(dp1389
sg76
g1383
sg69
(lp1390
g62
(g63
g64
NtRp1391
(dp1392
g67
(dp1393
g75
I3
ssg76
g1387
sg69
(lp1394
S'1'
asbasbasbag62
(g78
g64
NtRp1395
(dp1396
g67
(dp1397
sg76
g1379
sg69
(lp1398
g62
(g83
g64
NtRp1399
(dp1400
g67
(dp1401
sg76
g1395
sg69
(lp1402
g62
(g63
g64
NtRp1403
(dp1404
g67
(dp1405
g75
I3
ssg76
g1399
sg69
(lp1406
S'0'
asbasbasbasbasbasbasbasbasbasbasbag62
(g78
g64
NtRp1407
(dp1408
g67
(dp1409
sg76
g72
sg69
(lp1410
g62
(g83
g64
NtRp1411
(dp1412
g67
(dp1413
g87
g88
ssg76
g1407
sg69
(lp1414
S'extension'
p1415
asbag62
(g83
g64
NtRp1416
(dp1417
g67
(dp1418
g94
g95
ssg76
g1407
sg69
(lp1419
S':'
asbag62
(g83
g64
NtRp1420
(dp1421
g67
(dp1422
sg76
g1407
sg69
(lp1423
g62
(g63
g64
NtRp1424
(dp1425
g67
(dp1426
g75
I5
ssg76
g1420
sg69
(lp1427
S'html'
p1428
asbasbasbag62
(g78
g64
NtRp1429
(dp1430
g67
(dp1431
sg76
g72
sg69
(lp1432
g62
(g83
g64
NtRp1433
(dp1434
g67
(dp1435
g87
g88
ssg76
g1429
sg69
(lp1436
S'folder'
p1437
asbag62
(g83
g64
NtRp1438
(dp1439
g67
(dp1440
g94
g95
ssg76
g1429
sg69
(lp1441
S':'
asbag62
(g83
g64
NtRp1442
(dp1443
g67
(dp1444
sg76
g1429
sg69
(lp1445
g62
(g63
g64
NtRp1446
(dp1447
g67
(dp1448
g75
I5
ssg76
g1442
sg69
(lp1449
S'/home/prateek/web2py/applications/phyloShiny/'
p1450
asbasbasbag62
(g78
g64
NtRp1451
(dp1452
g67
(dp1453
sg76
g72
sg69
(lp1454
g62
(g83
g64
NtRp1455
(dp1456
g67
(dp1457
g87
g88
ssg76
g1451
sg69
(lp1458
S'function'
p1459
asbag62
(g83
g64
NtRp1460
(dp1461
g67
(dp1462
g94
g95
ssg76
g1451
sg69
(lp1463
S':'
asbag62
(g83
g64
NtRp1464
(dp1465
g67
(dp1466
sg76
g1451
sg69
(lp1467
g62
(g63
g64
NtRp1468
(dp1469
g67
(dp1470
g75
I5
ssg76
g1464
sg69
(lp1471
S'getSpeciesList'
p1472
asbasbasbag62
(g78
g64
NtRp1473
(dp1474
g67
(dp1475
sg76
g72
sg69
(lp1476
g62
(g83
g64
NtRp1477
(dp1478
g67
(dp1479
g87
g88
ssg76
g1473
sg69
(lp1480
S'get_vars'
p1481
asbag62
(g83
g64
NtRp1482
(dp1483
g67
(dp1484
g94
g95
ssg76
g1473
sg69
(lp1485
S':'
asbag62
(g83
g64
NtRp1486
(dp1487
g67
(dp1488
sg76
g1473
sg69
(lp1489
g62
(g63
g64
NtRp1490
(dp1491
g67
(dp1492
g75
I5
ssg76
g1486
sg69
(lp1493
g62
(g71
g64
NtRp1494
(dp1495
g67
(dp1496
g75
I4
ssg76
Nsg69
(lp1497
g62
(g78
g64
NtRp1498
(dp1499
g67
(dp1500
sg76
g1494
sg69
(lp1501
g62
(g83
g64
NtRp1502
(dp1503
g67
(dp1504
g87
g88
ssg76
g1498
sg69
(lp1505
S'treeFileName'
p1506
asbag62
(g83
g64
NtRp1507
(dp1508
g67
(dp1509
g94
g95
ssg76
g1498
sg69
(lp1510
S':'
asbag62
(g83
g64
NtRp1511
(dp1512
g67
(dp1513
sg76
g1498
sg69
(lp1514
g62
(g63
g64
NtRp1515
(dp1516
g67
(dp1517
g75
I4
ssg76
g1511
sg69
(lp1518
S'static/sample_data/demo_Mammal_Hemoglobin/input_genetree.nwk.txt'
p1519
asbasbasbasbasbasbasbag62
(g78
g64
NtRp1520
(dp1521
g67
(dp1522
sg76
g72
sg69
(lp1523
g62
(g83
g64
NtRp1524
(dp1525
g67
(dp1526
g87
g88
ssg76
g1520
sg69
(lp1527
S'global_settings'
p1528
asbag62
(g83
g64
NtRp1529
(dp1530
g67
(dp1531
g94
g95
ssg76
g1520
sg69
(lp1532
S':'
asbag62
(g83
g64
NtRp1533
(dp1534
g67
(dp1535
sg76
g1520
sg69
(lp1536
g62
(g63
g64
NtRp1537
(dp1538
g67
(dp1539
g75
I5
ssg76
g1533
sg69
(lp1540
g62
(g71
g64
NtRp1541
(dp1542
g67
(dp1543
g75
I4
ssg76
Nsg69
(lp1544
g62
(g78
g64
NtRp1545
(dp1546
g67
(dp1547
sg76
g1541
sg69
(lp1548
g62
(g83
g64
NtRp1549
(dp1550
g67
(dp1551
g87
g88
ssg76
g1545
sg69
(lp1552
g469
asbag62
(g83
g64
NtRp1553
(dp1554
g67
(dp1555
g94
g95
ssg76
g1545
sg69
(lp1556
S':'
asbag62
(g83
g64
NtRp1557
(dp1558
g67
(dp1559
sg76
g1545
sg69
(lp1560
g62
(g63
g64
NtRp1561
(dp1562
g67
(dp1563
g75
I4
ssg76
g1557
sg69
(lp1564
S"set(['/home/prateek/web2py/applications/phyloShiny/', '/home/prateek/web2py/applications/welcome/'])"
p1565
asbasbasbag62
(g78
g64
NtRp1566
(dp1567
g67
(dp1568
sg76
g1541
sg69
(lp1569
g62
(g83
g64
NtRp1570
(dp1571
g67
(dp1572
g87
g88
ssg76
g1566
sg69
(lp1573
g491
asbag62
(g83
g64
NtRp1574
(dp1575
g67
(dp1576
g94
g95
ssg76
g1566
sg69
(lp1577
S':'
asbag62
(g83
g64
NtRp1578
(dp1579
g67
(dp1580
sg76
g1566
sg69
(lp1581
g62
(g63
g64
NtRp1582
(dp1583
g67
(dp1584
g75
I4
ssg76
g1578
sg69
(lp1585
g504
asbasbasbag62
(g78
g64
NtRp1586
(dp1587
g67
(dp1588
sg76
g1541
sg69
(lp1589
g62
(g83
g64
NtRp1590
(dp1591
g67
(dp1592
g87
g88
ssg76
g1586
sg69
(lp1593
g513
asbag62
(g83
g64
NtRp1594
(dp1595
g67
(dp1596
g94
g95
ssg76
g1586
sg69
(lp1597
S':'
asbag62
(g83
g64
NtRp1598
(dp1599
g67
(dp1600
sg76
g1586
sg69
(lp1601
g62
(g63
g64
NtRp1602
(dp1603
g67
(dp1604
g75
I4
ssg76
g1598
sg69
(lp1605
g62
(g71
g64
NtRp1606
(dp1607
g67
(dp1608
g75
I3
ssg76
Nsg69
(lp1609
sbasbasbasbag62
(g78
g64
NtRp1610
(dp1611
g67
(dp1612
sg76
g1541
sg69
(lp1613
g62
(g83
g64
NtRp1614
(dp1615
g67
(dp1616
g87
g88
ssg76
g1610
sg69
(lp1617
g538
asbag62
(g83
g64
NtRp1618
(dp1619
g67
(dp1620
g94
g95
ssg76
g1610
sg69
(lp1621
S':'
asbag62
(g83
g64
NtRp1622
(dp1623
g67
(dp1624
sg76
g1610
sg69
(lp1625
g62
(g63
g64
NtRp1626
(dp1627
g67
(dp1628
g75
I4
ssg76
g1622
sg69
(lp1629
S"<Values at 0x8e875ec: {'verbose': False, 'ip': '127.0.0.1', 'shutdown_timeout': 5, 'taskbar': False, 'port': 8000, 'maxthreads': None, 'softcron': False, 'server_name': 'prateek-Inspiron-N5110', 'bpython': False, 'nogui': False, 'nocron': False, 'extcron': False, 'debuglevel': 30, 'test': None, 'folder': '/home/prateek/web2py', 'config': '', 'import_models': False, 'winservice': '', 'shell': None, 'run': '', 'log_filename': 'httpserver.log', 'args': [''], 'socket_timeout': 1, 'profiler_filename': None, 'ssl_private_key': '', 'password': '<ask>', 'request_queue_size': 5, 'ssl_certificate': '', 'cronjob': False, 'plain': False, 'quiet': False, 'interfaces': None, 'minthreads': None, 'timeout': 10, 'numthreads': None, 'nobanner': False, 'pid_filename': 'httpserver.pid'}>"
p1630
asbasbasbag62
(g78
g64
NtRp1631
(dp1632
g67
(dp1633
sg76
g1541
sg69
(lp1634
g62
(g83
g64
NtRp1635
(dp1636
g67
(dp1637
g87
g88
ssg76
g1631
sg69
(lp1638
g560
asbag62
(g83
g64
NtRp1639
(dp1640
g67
(dp1641
g94
g95
ssg76
g1631
sg69
(lp1642
S':'
asbag62
(g83
g64
NtRp1643
(dp1644
g67
(dp1645
sg76
g1631
sg69
(lp1646
g62
(g63
g64
NtRp1647
(dp1648
g67
(dp1649
g75
I4
ssg76
g1643
sg69
(lp1650
S'set([])'
p1651
asbasbasbag62
(g78
g64
NtRp1652
(dp1653
g67
(dp1654
sg76
g1541
sg69
(lp1655
g62
(g83
g64
NtRp1656
(dp1657
g67
(dp1658
g87
g88
ssg76
g1652
sg69
(lp1659
g582
asbag62
(g83
g64
NtRp1660
(dp1661
g67
(dp1662
g94
g95
ssg76
g1652
sg69
(lp1663
S':'
asbag62
(g83
g64
NtRp1664
(dp1665
g67
(dp1666
sg76
g1652
sg69
(lp1667
g62
(g63
g64
NtRp1668
(dp1669
g67
(dp1670
g75
I4
ssg76
g1664
sg69
(lp1671
g595
asbasbasbag62
(g78
g64
NtRp1672
(dp1673
g67
(dp1674
sg76
g1541
sg69
(lp1675
g62
(g83
g64
NtRp1676
(dp1677
g67
(dp1678
g87
g88
ssg76
g1672
sg69
(lp1679
g604
asbag62
(g83
g64
NtRp1680
(dp1681
g67
(dp1682
g94
g95
ssg76
g1672
sg69
(lp1683
S':'
asbag62
(g83
g64
NtRp1684
(dp1685
g67
(dp1686
sg76
g1672
sg69
(lp1687
g62
(g63
g64
NtRp1688
(dp1689
g67
(dp1690
g75
I4
ssg76
g1684
sg69
(lp1691
g617
asbasbasbag62
(g78
g64
NtRp1692
(dp1693
g67
(dp1694
sg76
g1541
sg69
(lp1695
g62
(g83
g64
NtRp1696
(dp1697
g67
(dp1698
g87
g88
ssg76
g1692
sg69
(lp1699
g824
asbag62
(g83
g64
NtRp1700
(dp1701
g67
(dp1702
g94
g95
ssg76
g1692
sg69
(lp1703
S':'
asbag62
(g83
g64
NtRp1704
(dp1705
g67
(dp1706
sg76
g1692
sg69
(lp1707
g62
(g63
g64
NtRp1708
(dp1709
g67
(dp1710
g75
I4
ssg76
g1704
sg69
(lp1711
g595
asbasbasbag62
(g78
g64
NtRp1712
(dp1713
g67
(dp1714
sg76
g1541
sg69
(lp1715
g62
(g83
g64
NtRp1716
(dp1717
g67
(dp1718
g87
g88
ssg76
g1712
sg69
(lp1719
g845
asbag62
(g83
g64
NtRp1720
(dp1721
g67
(dp1722
g94
g95
ssg76
g1712
sg69
(lp1723
S':'
asbag62
(g83
g64
NtRp1724
(dp1725
g67
(dp1726
sg76
g1712
sg69
(lp1727
g62
(g63
g64
NtRp1728
(dp1729
g67
(dp1730
g75
I4
ssg76
g1724
sg69
(lp1731
g595
asbasbasbag62
(g78
g64
NtRp1732
(dp1733
g67
(dp1734
sg76
g1541
sg69
(lp1735
g62
(g83
g64
NtRp1736
(dp1737
g67
(dp1738
g87
g88
ssg76
g1732
sg69
(lp1739
g1084
asbag62
(g83
g64
NtRp1740
(dp1741
g67
(dp1742
g94
g95
ssg76
g1732
sg69
(lp1743
S':'
asbag62
(g83
g64
NtRp1744
(dp1745
g67
(dp1746
sg76
g1732
sg69
(lp1747
g62
(g63
g64
NtRp1748
(dp1749
g67
(dp1750
g75
I4
ssg76
g1744
sg69
(lp1751
g1097
asbasbasbag62
(g78
g64
NtRp1752
(dp1753
g67
(dp1754
sg76
g1541
sg69
(lp1755
g62
(g83
g64
NtRp1756
(dp1757
g67
(dp1758
g87
g88
ssg76
g1752
sg69
(lp1759
g1127
asbag62
(g83
g64
NtRp1760
(dp1761
g67
(dp1762
g94
g95
ssg76
g1752
sg69
(lp1763
S':'
asbag62
(g83
g64
NtRp1764
(dp1765
g67
(dp1766
sg76
g1752
sg69
(lp1767
g62
(g63
g64
NtRp1768
(dp1769
g67
(dp1770
g75
I4
ssg76
g1764
sg69
(lp1771
g62
(g71
g64
NtRp1772
(dp1773
g67
(dp1774
g75
I3
ssg76
Nsg69
(lp1775
g62
(g78
g64
NtRp1776
(dp1777
g67
(dp1778
sg76
g1772
sg69
(lp1779
g62
(g83
g64
NtRp1780
(dp1781
g67
(dp1782
sg76
g1776
sg69
(lp1783
g62
(g63
g64
NtRp1784
(dp1785
g67
(dp1786
g75
I3
ssg76
g1780
sg69
(lp1787
S'1'
asbasbasbag62
(g78
g64
NtRp1788
(dp1789
g67
(dp1790
sg76
g1772
sg69
(lp1791
g62
(g83
g64
NtRp1792
(dp1793
g67
(dp1794
sg76
g1788
sg69
(lp1795
g62
(g63
g64
NtRp1796
(dp1797
g67
(dp1798
g75
I3
ssg76
g1792
sg69
(lp1799
S'99'
p1800
asbasbasbag62
(g78
g64
NtRp1801
(dp1802
g67
(dp1803
sg76
g1772
sg69
(lp1804
g62
(g83
g64
NtRp1805
(dp1806
g67
(dp1807
sg76
g1801
sg69
(lp1808
g62
(g63
g64
NtRp1809
(dp1810
g67
(dp1811
g75
I3
ssg76
g1805
sg69
(lp1812
S'4'
asbasbasbag62
(g78
g64
NtRp1813
(dp1814
g67
(dp1815
sg76
g1772
sg69
(lp1816
g62
(g83
g64
NtRp1817
(dp1818
g67
(dp1819
sg76
g1813
sg69
(lp1820
g62
(g63
g64
NtRp1821
(dp1822
g67
(dp1823
g75
I3
ssg76
g1817
sg69
(lp1824
S'datetime.datetime(2011, 12, 14, 14, 46, 14)'
p1825
asbasbasbag62
(g78
g64
NtRp1826
(dp1827
g67
(dp1828
sg76
g1772
sg69
(lp1829
g62
(g83
g64
NtRp1830
(dp1831
g67
(dp1832
sg76
g1826
sg69
(lp1833
g62
(g63
g64
NtRp1834
(dp1835
g67
(dp1836
g75
I3
ssg76
g1830
sg69
(lp1837
g1206
asbasbasbasbasbasbasbasbasbasbasbag62
(g78
g64
NtRp1838
(dp1839
g67
(dp1840
sg76
g72
sg69
(lp1841
g62
(g83
g64
NtRp1842
(dp1843
g67
(dp1844
g87
g88
ssg76
g1838
sg69
(lp1845
S'is_https'
p1846
asbag62
(g83
g64
NtRp1847
(dp1848
g67
(dp1849
g94
g95
ssg76
g1838
sg69
(lp1850
S':'
asbag62
(g83
g64
NtRp1851
(dp1852
g67
(dp1853
sg76
g1838
sg69
(lp1854
g62
(g63
g64
NtRp1855
(dp1856
g67
(dp1857
g75
I5
ssg76
g1851
sg69
(lp1858
g595
asbasbasbag62
(g78
g64
NtRp1859
(dp1860
g67
(dp1861
sg76
g72
sg69
(lp1862
g62
(g83
g64
NtRp1863
(dp1864
g67
(dp1865
g87
g88
ssg76
g1859
sg69
(lp1866
S'is_local'
p1867
asbag62
(g83
g64
NtRp1868
(dp1869
g67
(dp1870
g94
g95
ssg76
g1859
sg69
(lp1871
S':'
asbag62
(g83
g64
NtRp1872
(dp1873
g67
(dp1874
sg76
g1859
sg69
(lp1875
g62
(g63
g64
NtRp1876
(dp1877
g67
(dp1878
g75
I5
ssg76
g1872
sg69
(lp1879
g105
asbasbasbag62
(g78
g64
NtRp1880
(dp1881
g67
(dp1882
sg76
g72
sg69
(lp1883
g62
(g83
g64
NtRp1884
(dp1885
g67
(dp1886
g87
g88
ssg76
g1880
sg69
(lp1887
S'is_restful'
p1888
asbag62
(g83
g64
NtRp1889
(dp1890
g67
(dp1891
g94
g95
ssg76
g1880
sg69
(lp1892
S':'
asbag62
(g83
g64
NtRp1893
(dp1894
g67
(dp1895
sg76
g1880
sg69
(lp1896
g62
(g63
g64
NtRp1897
(dp1898
g67
(dp1899
g75
I5
ssg76
g1893
sg69
(lp1900
g595
asbasbasbag62
(g78
g64
NtRp1901
(dp1902
g67
(dp1903
sg76
g72
sg69
(lp1904
g62
(g83
g64
NtRp1905
(dp1906
g67
(dp1907
g87
g88
ssg76
g1901
sg69
(lp1908
S'now'
p1909
asbag62
(g83
g64
NtRp1910
(dp1911
g67
(dp1912
g94
g95
ssg76
g1901
sg69
(lp1913
S':'
asbag62
(g83
g64
NtRp1914
(dp1915
g67
(dp1916
sg76
g1901
sg69
(lp1917
g62
(g63
g64
NtRp1918
(dp1919
g67
(dp1920
g75
I5
ssg76
g1914
sg69
(lp1921
S'datetime.datetime(2013, 5, 16, 14, 2, 17, 29115)'
p1922
asbasbasbag62
(g78
g64
NtRp1923
(dp1924
g67
(dp1925
sg76
g72
sg69
(lp1926
g62
(g83
g64
NtRp1927
(dp1928
g67
(dp1929
g87
g88
ssg76
g1923
sg69
(lp1930
S'post_vars'
p1931
asbag62
(g83
g64
NtRp1932
(dp1933
g67
(dp1934
g94
g95
ssg76
g1923
sg69
(lp1935
S':'
asbag62
(g83
g64
NtRp1936
(dp1937
g67
(dp1938
sg76
g1923
sg69
(lp1939
g62
(g63
g64
NtRp1940
(dp1941
g67
(dp1942
g75
I5
ssg76
g1936
sg69
(lp1943
g62
(g71
g64
NtRp1944
(dp1945
g67
(dp1946
g75
I4
ssg76
Nsg69
(lp1947
sbasbasbasbag62
(g78
g64
NtRp1948
(dp1949
g67
(dp1950
sg76
g72
sg69
(lp1951
g62
(g83
g64
NtRp1952
(dp1953
g67
(dp1954
g87
g88
ssg76
g1948
sg69
(lp1955
S'url'
p1956
asbag62
(g83
g64
NtRp1957
(dp1958
g67
(dp1959
g94
g95
ssg76
g1948
sg69
(lp1960
S':'
asbag62
(g83
g64
NtRp1961
(dp1962
g67
(dp1963
sg76
g1948
sg69
(lp1964
g62
(g63
g64
NtRp1965
(dp1966
g67
(dp1967
g75
I5
ssg76
g1961
sg69
(lp1968
S'/phyloShiny/reconciliotastic/getSpeciesList'
p1969
asbasbasbag62
(g78
g64
NtRp1970
(dp1971
g67
(dp1972
sg76
g72
sg69
(lp1973
g62
(g83
g64
NtRp1974
(dp1975
g67
(dp1976
g87
g88
ssg76
g1970
sg69
(lp1977
S'utcnow'
p1978
asbag62
(g83
g64
NtRp1979
(dp1980
g67
(dp1981
g94
g95
ssg76
g1970
sg69
(lp1982
S':'
asbag62
(g83
g64
NtRp1983
(dp1984
g67
(dp1985
sg76
g1970
sg69
(lp1986
g62
(g63
g64
NtRp1987
(dp1988
g67
(dp1989
g75
I5
ssg76
g1983
sg69
(lp1990
S'datetime.datetime(2013, 5, 16, 8, 32, 17, 29133)'
p1991
asbasbasbag62
(g78
g64
NtRp1992
(dp1993
g67
(dp1994
sg76
g72
sg69
(lp1995
g62
(g83
g64
NtRp1996
(dp1997
g67
(dp1998
g87
g88
ssg76
g1992
sg69
(lp1999
S'uuid'
p2000
asbag62
(g83
g64
NtRp2001
(dp2002
g67
(dp2003
g94
g95
ssg76
g1992
sg69
(lp2004
S':'
asbag62
(g83
g64
NtRp2005
(dp2006
g67
(dp2007
sg76
g1992
sg69
(lp2008
g62
(g63
g64
NtRp2009
(dp2010
g67
(dp2011
g75
I5
ssg76
g2005
sg69
(lp2012
S'phyloShiny/127.0.0.1.2013-05-16.14-02-17.beac3755-8de4-4561-9c34-713b21cbddaf'
p2013
asbasbasbag62
(g78
g64
NtRp2014
(dp2015
g67
(dp2016
sg76
g72
sg69
(lp2017
g62
(g83
g64
NtRp2018
(dp2019
g67
(dp2020
g87
g88
ssg76
g2014
sg69
(lp2021
S'vars'
p2022
asbag62
(g83
g64
NtRp2023
(dp2024
g67
(dp2025
g94
g95
ssg76
g2014
sg69
(lp2026
S':'
asbag62
(g83
g64
NtRp2027
(dp2028
g67
(dp2029
sg76
g2014
sg69
(lp2030
g62
(g63
g64
NtRp2031
(dp2032
g67
(dp2033
g75
I5
ssg76
g2027
sg69
(lp2034
g62
(g71
g64
NtRp2035
(dp2036
g67
(dp2037
g75
I4
ssg76
Nsg69
(lp2038
g62
(g78
g64
NtRp2039
(dp2040
g67
(dp2041
sg76
g2035
sg69
(lp2042
g62
(g83
g64
NtRp2043
(dp2044
g67
(dp2045
g87
g88
ssg76
g2039
sg69
(lp2046
g1506
asbag62
(g83
g64
NtRp2047
(dp2048
g67
(dp2049
g94
g95
ssg76
g2039
sg69
(lp2050
S':'
asbag62
(g83
g64
NtRp2051
(dp2052
g67
(dp2053
sg76
g2039
sg69
(lp2054
g62
(g63
g64
NtRp2055
(dp2056
g67
(dp2057
g75
I4
ssg76
g2051
sg69
(lp2058
g1519
asbasbasbasbasbasbasbag62
(g78
g64
NtRp2059
(dp2060
g67
(dp2061
sg76
g72
sg69
(lp2062
g62
(g83
g64
NtRp2063
(dp2064
g67
(dp2065
g87
g88
ssg76
g2059
sg69
(lp2066
S'wsgi'
p2067
asbag62
(g83
g64
NtRp2068
(dp2069
g67
(dp2070
g94
g95
ssg76
g2059
sg69
(lp2071
S':'
asbag62
(g83
g64
NtRp2072
(dp2073
g67
(dp2074
sg76
g2059
sg69
(lp2075
g62
(g63
g64
NtRp2076
(dp2077
g67
(dp2078
g75
I5
ssg76
g2072
sg69
(lp2079
g62
(g71
g64
NtRp2080
(dp2081
g67
(dp2082
g75
I4
ssg76
Nsg69
(lp2083
g62
(g78
g64
NtRp2084
(dp2085
g67
(dp2086
sg76
g2080
sg69
(lp2087
g62
(g83
g64
NtRp2088
(dp2089
g67
(dp2090
g87
g88
ssg76
g2084
sg69
(lp2091
S'environ'
p2092
asbag62
(g83
g64
NtRp2093
(dp2094
g67
(dp2095
g94
g95
ssg76
g2084
sg69
(lp2096
S':'
asbag62
(g83
g64
NtRp2097
(dp2098
g67
(dp2099
sg76
g2084
sg69
(lp2100
g62
(g63
g64
NtRp2101
(dp2102
g67
(dp2103
g75
I4
ssg76
g2097
sg69
(lp2104
g62
(g71
g64
NtRp2105
(dp2106
g67
(dp2107
g75
I3
ssg76
Nsg69
(lp2108
g62
(g78
g64
NtRp2109
(dp2110
g67
(dp2111
sg76
g2105
sg69
(lp2112
g62
(g83
g64
NtRp2113
(dp2114
g67
(dp2115
g87
g88
ssg76
g2109
sg69
(lp2116
S'HTTP_ACCEPT'
p2117
asbag62
(g83
g64
NtRp2118
(dp2119
g67
(dp2120
g94
g95
ssg76
g2109
sg69
(lp2121
S':'
asbag62
(g83
g64
NtRp2122
(dp2123
g67
(dp2124
sg76
g2109
sg69
(lp2125
g62
(g63
g64
NtRp2126
(dp2127
g67
(dp2128
g75
I3
ssg76
g2122
sg69
(lp2129
g639
asbasbasbag62
(g78
g64
NtRp2130
(dp2131
g67
(dp2132
sg76
g2105
sg69
(lp2133
g62
(g83
g64
NtRp2134
(dp2135
g67
(dp2136
g87
g88
ssg76
g2130
sg69
(lp2137
S'HTTP_ACCEPT_ENCODING'
p2138
asbag62
(g83
g64
NtRp2139
(dp2140
g67
(dp2141
g94
g95
ssg76
g2130
sg69
(lp2142
S':'
asbag62
(g83
g64
NtRp2143
(dp2144
g67
(dp2145
sg76
g2130
sg69
(lp2146
g62
(g63
g64
NtRp2147
(dp2148
g67
(dp2149
g75
I3
ssg76
g2143
sg69
(lp2150
g661
asbasbasbag62
(g78
g64
NtRp2151
(dp2152
g67
(dp2153
sg76
g2105
sg69
(lp2154
g62
(g83
g64
NtRp2155
(dp2156
g67
(dp2157
g87
g88
ssg76
g2151
sg69
(lp2158
S'HTTP_ACCEPT_LANGUAGE'
p2159
asbag62
(g83
g64
NtRp2160
(dp2161
g67
(dp2162
g94
g95
ssg76
g2151
sg69
(lp2163
S':'
asbag62
(g83
g64
NtRp2164
(dp2165
g67
(dp2166
sg76
g2151
sg69
(lp2167
g62
(g63
g64
NtRp2168
(dp2169
g67
(dp2170
g75
I3
ssg76
g2164
sg69
(lp2171
g683
asbasbasbag62
(g78
g64
NtRp2172
(dp2173
g67
(dp2174
sg76
g2105
sg69
(lp2175
g62
(g83
g64
NtRp2176
(dp2177
g67
(dp2178
g87
g88
ssg76
g2172
sg69
(lp2179
S'HTTP_CONNECTION'
p2180
asbag62
(g83
g64
NtRp2181
(dp2182
g67
(dp2183
g94
g95
ssg76
g2172
sg69
(lp2184
S':'
asbag62
(g83
g64
NtRp2185
(dp2186
g67
(dp2187
sg76
g2172
sg69
(lp2188
g62
(g63
g64
NtRp2189
(dp2190
g67
(dp2191
g75
I3
ssg76
g2185
sg69
(lp2192
g705
asbasbasbag62
(g78
g64
NtRp2193
(dp2194
g67
(dp2195
sg76
g2105
sg69
(lp2196
g62
(g83
g64
NtRp2197
(dp2198
g67
(dp2199
g87
g88
ssg76
g2193
sg69
(lp2200
S'HTTP_COOKIE'
p2201
asbag62
(g83
g64
NtRp2202
(dp2203
g67
(dp2204
g94
g95
ssg76
g2193
sg69
(lp2205
S':'
asbag62
(g83
g64
NtRp2206
(dp2207
g67
(dp2208
sg76
g2193
sg69
(lp2209
g62
(g63
g64
NtRp2210
(dp2211
g67
(dp2212
g75
I3
ssg76
g2206
sg69
(lp2213
g727
asbasbasbag62
(g78
g64
NtRp2214
(dp2215
g67
(dp2216
sg76
g2105
sg69
(lp2217
g62
(g83
g64
NtRp2218
(dp2219
g67
(dp2220
g87
g88
ssg76
g2214
sg69
(lp2221
S'HTTP_HOST'
p2222
asbag62
(g83
g64
NtRp2223
(dp2224
g67
(dp2225
g94
g95
ssg76
g2214
sg69
(lp2226
S':'
asbag62
(g83
g64
NtRp2227
(dp2228
g67
(dp2229
sg76
g2214
sg69
(lp2230
g62
(g63
g64
NtRp2231
(dp2232
g67
(dp2233
g75
I3
ssg76
g2227
sg69
(lp2234
g749
asbasbasbag62
(g78
g64
NtRp2235
(dp2236
g67
(dp2237
sg76
g2105
sg69
(lp2238
g62
(g83
g64
NtRp2239
(dp2240
g67
(dp2241
g87
g88
ssg76
g2235
sg69
(lp2242
S'HTTP_REFERER'
p2243
asbag62
(g83
g64
NtRp2244
(dp2245
g67
(dp2246
g94
g95
ssg76
g2235
sg69
(lp2247
S':'
asbag62
(g83
g64
NtRp2248
(dp2249
g67
(dp2250
sg76
g2235
sg69
(lp2251
g62
(g63
g64
NtRp2252
(dp2253
g67
(dp2254
g75
I3
ssg76
g2248
sg69
(lp2255
g771
asbasbasbag62
(g78
g64
NtRp2256
(dp2257
g67
(dp2258
sg76
g2105
sg69
(lp2259
g62
(g83
g64
NtRp2260
(dp2261
g67
(dp2262
g87
g88
ssg76
g2256
sg69
(lp2263
S'HTTP_USER_AGENT'
p2264
asbag62
(g83
g64
NtRp2265
(dp2266
g67
(dp2267
g94
g95
ssg76
g2256
sg69
(lp2268
S':'
asbag62
(g83
g64
NtRp2269
(dp2270
g67
(dp2271
sg76
g2256
sg69
(lp2272
g62
(g63
g64
NtRp2273
(dp2274
g67
(dp2275
g75
I3
ssg76
g2269
sg69
(lp2276
g793
asbasbasbag62
(g78
g64
NtRp2277
(dp2278
g67
(dp2279
sg76
g2105
sg69
(lp2280
g62
(g83
g64
NtRp2281
(dp2282
g67
(dp2283
g87
g88
ssg76
g2277
sg69
(lp2284
S'HTTP_X_REQUESTED_WITH'
p2285
asbag62
(g83
g64
NtRp2286
(dp2287
g67
(dp2288
g94
g95
ssg76
g2277
sg69
(lp2289
S':'
asbag62
(g83
g64
NtRp2290
(dp2291
g67
(dp2292
sg76
g2277
sg69
(lp2293
g62
(g63
g64
NtRp2294
(dp2295
g67
(dp2296
g75
I3
ssg76
g2290
sg69
(lp2297
g815
asbasbasbag62
(g78
g64
NtRp2298
(dp2299
g67
(dp2300
sg76
g2105
sg69
(lp2301
g62
(g83
g64
NtRp2302
(dp2303
g67
(dp2304
g87
g88
ssg76
g2298
sg69
(lp2305
S'PATH_INFO'
p2306
asbag62
(g83
g64
NtRp2307
(dp2308
g67
(dp2309
g94
g95
ssg76
g2298
sg69
(lp2310
S':'
asbag62
(g83
g64
NtRp2311
(dp2312
g67
(dp2313
sg76
g2298
sg69
(lp2314
g62
(g63
g64
NtRp2315
(dp2316
g67
(dp2317
g75
I3
ssg76
g2311
sg69
(lp2318
g879
asbasbasbag62
(g78
g64
NtRp2319
(dp2320
g67
(dp2321
sg76
g2105
sg69
(lp2322
g62
(g83
g64
NtRp2323
(dp2324
g67
(dp2325
g87
g88
ssg76
g2319
sg69
(lp2326
S'QUERY_STRING'
p2327
asbag62
(g83
g64
NtRp2328
(dp2329
g67
(dp2330
g94
g95
ssg76
g2319
sg69
(lp2331
S':'
asbag62
(g83
g64
NtRp2332
(dp2333
g67
(dp2334
sg76
g2319
sg69
(lp2335
g62
(g63
g64
NtRp2336
(dp2337
g67
(dp2338
g75
I3
ssg76
g2332
sg69
(lp2339
g901
asbasbasbag62
(g78
g64
NtRp2340
(dp2341
g67
(dp2342
sg76
g2105
sg69
(lp2343
g62
(g83
g64
NtRp2344
(dp2345
g67
(dp2346
g87
g88
ssg76
g2340
sg69
(lp2347
S'REMOTE_ADDR'
p2348
asbag62
(g83
g64
NtRp2349
(dp2350
g67
(dp2351
g94
g95
ssg76
g2340
sg69
(lp2352
S':'
asbag62
(g83
g64
NtRp2353
(dp2354
g67
(dp2355
sg76
g2340
sg69
(lp2356
g62
(g63
g64
NtRp2357
(dp2358
g67
(dp2359
g75
I3
ssg76
g2353
sg69
(lp2360
g195
asbasbasbag62
(g78
g64
NtRp2361
(dp2362
g67
(dp2363
sg76
g2105
sg69
(lp2364
g62
(g83
g64
NtRp2365
(dp2366
g67
(dp2367
g87
g88
ssg76
g2361
sg69
(lp2368
S'REMOTE_PORT'
p2369
asbag62
(g83
g64
NtRp2370
(dp2371
g67
(dp2372
g94
g95
ssg76
g2361
sg69
(lp2373
S':'
asbag62
(g83
g64
NtRp2374
(dp2375
g67
(dp2376
sg76
g2361
sg69
(lp2377
g62
(g63
g64
NtRp2378
(dp2379
g67
(dp2380
g75
I3
ssg76
g2374
sg69
(lp2381
g944
asbasbasbag62
(g78
g64
NtRp2382
(dp2383
g67
(dp2384
sg76
g2105
sg69
(lp2385
g62
(g83
g64
NtRp2386
(dp2387
g67
(dp2388
g87
g88
ssg76
g2382
sg69
(lp2389
S'REQUEST_METHOD'
p2390
asbag62
(g83
g64
NtRp2391
(dp2392
g67
(dp2393
g94
g95
ssg76
g2382
sg69
(lp2394
S':'
asbag62
(g83
g64
NtRp2395
(dp2396
g67
(dp2397
sg76
g2382
sg69
(lp2398
g62
(g63
g64
NtRp2399
(dp2400
g67
(dp2401
g75
I3
ssg76
g2395
sg69
(lp2402
g966
asbasbasbag62
(g78
g64
NtRp2403
(dp2404
g67
(dp2405
sg76
g2105
sg69
(lp2406
g62
(g83
g64
NtRp2407
(dp2408
g67
(dp2409
g87
g88
ssg76
g2403
sg69
(lp2410
S'SCRIPT_NAME'
p2411
asbag62
(g83
g64
NtRp2412
(dp2413
g67
(dp2414
g94
g95
ssg76
g2403
sg69
(lp2415
S':'
asbag62
(g83
g64
NtRp2416
(dp2417
g67
(dp2418
sg76
g2403
sg69
(lp2419
g62
(g63
g64
NtRp2420
(dp2421
g67
(dp2422
g75
I3
ssg76
g2416
sg69
(lp2423
S''
asbasbasbag62
(g78
g64
NtRp2424
(dp2425
g67
(dp2426
sg76
g2105
sg69
(lp2427
g62
(g83
g64
NtRp2428
(dp2429
g67
(dp2430
g87
g88
ssg76
g2424
sg69
(lp2431
S'SERVER_NAME'
p2432
asbag62
(g83
g64
NtRp2433
(dp2434
g67
(dp2435
g94
g95
ssg76
g2424
sg69
(lp2436
S':'
asbag62
(g83
g64
NtRp2437
(dp2438
g67
(dp2439
sg76
g2424
sg69
(lp2440
g62
(g63
g64
NtRp2441
(dp2442
g67
(dp2443
g75
I3
ssg76
g2437
sg69
(lp2444
g1009
asbasbasbag62
(g78
g64
NtRp2445
(dp2446
g67
(dp2447
sg76
g2105
sg69
(lp2448
g62
(g83
g64
NtRp2449
(dp2450
g67
(dp2451
g87
g88
ssg76
g2445
sg69
(lp2452
S'SERVER_PORT'
p2453
asbag62
(g83
g64
NtRp2454
(dp2455
g67
(dp2456
g94
g95
ssg76
g2445
sg69
(lp2457
S':'
asbag62
(g83
g64
NtRp2458
(dp2459
g67
(dp2460
sg76
g2445
sg69
(lp2461
g62
(g63
g64
NtRp2462
(dp2463
g67
(dp2464
g75
I3
ssg76
g2458
sg69
(lp2465
g1031
asbasbasbag62
(g78
g64
NtRp2466
(dp2467
g67
(dp2468
sg76
g2105
sg69
(lp2469
g62
(g83
g64
NtRp2470
(dp2471
g67
(dp2472
g87
g88
ssg76
g2466
sg69
(lp2473
S'SERVER_PROTOCOL'
p2474
asbag62
(g83
g64
NtRp2475
(dp2476
g67
(dp2477
g94
g95
ssg76
g2466
sg69
(lp2478
S':'
asbag62
(g83
g64
NtRp2479
(dp2480
g67
(dp2481
sg76
g2466
sg69
(lp2482
g62
(g63
g64
NtRp2483
(dp2484
g67
(dp2485
g75
I3
ssg76
g2479
sg69
(lp2486
g1053
asbasbasbag62
(g78
g64
NtRp2487
(dp2488
g67
(dp2489
sg76
g2105
sg69
(lp2490
g62
(g83
g64
NtRp2491
(dp2492
g67
(dp2493
g87
g88
ssg76
g2487
sg69
(lp2494
S'SERVER_SOFTWARE'
p2495
asbag62
(g83
g64
NtRp2496
(dp2497
g67
(dp2498
g94
g95
ssg76
g2487
sg69
(lp2499
S':'
asbag62
(g83
g64
NtRp2500
(dp2501
g67
(dp2502
sg76
g2487
sg69
(lp2503
g62
(g63
g64
NtRp2504
(dp2505
g67
(dp2506
g75
I3
ssg76
g2500
sg69
(lp2507
g1075
asbasbasbag62
(g78
g64
NtRp2508
(dp2509
g67
(dp2510
sg76
g2105
sg69
(lp2511
g62
(g83
g64
NtRp2512
(dp2513
g67
(dp2514
g87
g88
ssg76
g2508
sg69
(lp2515
S'wsgi.errors'
p2516
asbag62
(g83
g64
NtRp2517
(dp2518
g67
(dp2519
g94
g95
ssg76
g2508
sg69
(lp2520
S':'
asbag62
(g83
g64
NtRp2521
(dp2522
g67
(dp2523
sg76
g2508
sg69
(lp2524
g62
(g63
g64
NtRp2525
(dp2526
g67
(dp2527
g75
I3
ssg76
g2521
sg69
(lp2528
S"<open file '<stderr>', mode 'w' at 0xb73210d0>"
p2529
asbasbasbag62
(g78
g64
NtRp2530
(dp2531
g67
(dp2532
sg76
g2105
sg69
(lp2533
g62
(g83
g64
NtRp2534
(dp2535
g67
(dp2536
g87
g88
ssg76
g2530
sg69
(lp2537
S'wsgi.file_wrapper'
p2538
asbag62
(g83
g64
NtRp2539
(dp2540
g67
(dp2541
g94
g95
ssg76
g2530
sg69
(lp2542
S':'
asbag62
(g83
g64
NtRp2543
(dp2544
g67
(dp2545
sg76
g2530
sg69
(lp2546
g62
(g63
g64
NtRp2547
(dp2548
g67
(dp2549
g75
I3
ssg76
g2543
sg69
(lp2550
S'<class wsgiref.util.FileWrapper at 0x8c4f23c>'
p2551
asbasbasbag62
(g78
g64
NtRp2552
(dp2553
g67
(dp2554
sg76
g2105
sg69
(lp2555
g62
(g83
g64
NtRp2556
(dp2557
g67
(dp2558
g87
g88
ssg76
g2552
sg69
(lp2559
S'wsgi.input'
p2560
asbag62
(g83
g64
NtRp2561
(dp2562
g67
(dp2563
g94
g95
ssg76
g2552
sg69
(lp2564
S':'
asbag62
(g83
g64
NtRp2565
(dp2566
g67
(dp2567
sg76
g2552
sg69
(lp2568
g62
(g63
g64
NtRp2569
(dp2570
g67
(dp2571
g75
I3
ssg76
g2565
sg69
(lp2572
S'<cStringIO.StringO object at 0xab3358e0>'
p2573
asbasbasbag62
(g78
g64
NtRp2574
(dp2575
g67
(dp2576
sg76
g2105
sg69
(lp2577
g62
(g83
g64
NtRp2578
(dp2579
g67
(dp2580
g87
g88
ssg76
g2574
sg69
(lp2581
S'wsgi.multiprocess'
p2582
asbag62
(g83
g64
NtRp2583
(dp2584
g67
(dp2585
g94
g95
ssg76
g2574
sg69
(lp2586
S':'
asbag62
(g83
g64
NtRp2587
(dp2588
g67
(dp2589
sg76
g2574
sg69
(lp2590
g62
(g63
g64
NtRp2591
(dp2592
g67
(dp2593
g75
I3
ssg76
g2587
sg69
(lp2594
g595
asbasbasbag62
(g78
g64
NtRp2595
(dp2596
g67
(dp2597
sg76
g2105
sg69
(lp2598
g62
(g83
g64
NtRp2599
(dp2600
g67
(dp2601
g87
g88
ssg76
g2595
sg69
(lp2602
S'wsgi.multithread'
p2603
asbag62
(g83
g64
NtRp2604
(dp2605
g67
(dp2606
g94
g95
ssg76
g2595
sg69
(lp2607
S':'
asbag62
(g83
g64
NtRp2608
(dp2609
g67
(dp2610
sg76
g2595
sg69
(lp2611
g62
(g63
g64
NtRp2612
(dp2613
g67
(dp2614
g75
I3
ssg76
g2608
sg69
(lp2615
g105
asbasbasbag62
(g78
g64
NtRp2616
(dp2617
g67
(dp2618
sg76
g2105
sg69
(lp2619
g62
(g83
g64
NtRp2620
(dp2621
g67
(dp2622
g87
g88
ssg76
g2616
sg69
(lp2623
S'wsgi.run_once'
p2624
asbag62
(g83
g64
NtRp2625
(dp2626
g67
(dp2627
g94
g95
ssg76
g2616
sg69
(lp2628
S':'
asbag62
(g83
g64
NtRp2629
(dp2630
g67
(dp2631
sg76
g2616
sg69
(lp2632
g62
(g63
g64
NtRp2633
(dp2634
g67
(dp2635
g75
I3
ssg76
g2629
sg69
(lp2636
g595
asbasbasbag62
(g78
g64
NtRp2637
(dp2638
g67
(dp2639
sg76
g2105
sg69
(lp2640
g62
(g83
g64
NtRp2641
(dp2642
g67
(dp2643
g87
g88
ssg76
g2637
sg69
(lp2644
S'wsgi.url_scheme'
p2645
asbag62
(g83
g64
NtRp2646
(dp2647
g67
(dp2648
g94
g95
ssg76
g2637
sg69
(lp2649
S':'
asbag62
(g83
g64
NtRp2650
(dp2651
g67
(dp2652
sg76
g2637
sg69
(lp2653
g62
(g63
g64
NtRp2654
(dp2655
g67
(dp2656
g75
I3
ssg76
g2650
sg69
(lp2657
g1357
asbasbasbag62
(g78
g64
NtRp2658
(dp2659
g67
(dp2660
sg76
g2105
sg69
(lp2661
g62
(g83
g64
NtRp2662
(dp2663
g67
(dp2664
g87
g88
ssg76
g2658
sg69
(lp2665
S'wsgi.version'
p2666
asbag62
(g83
g64
NtRp2667
(dp2668
g67
(dp2669
g94
g95
ssg76
g2658
sg69
(lp2670
S':'
asbag62
(g83
g64
NtRp2671
(dp2672
g67
(dp2673
sg76
g2658
sg69
(lp2674
g62
(g63
g64
NtRp2675
(dp2676
g67
(dp2677
g75
I3
ssg76
g2671
sg69
(lp2678
S'1'
asbasbasbasbasbasbasbasbasbasbasbasbasbsS'frames'
p2679
(lp2680
(dp2681
S'file'
p2682
S'/usr/lib/pymodules/python2.7/gluon/restricted.py'
p2683
sS'dump'
p2684
(dp2685
S'environment'
p2686
S"{'A': <class 'gluon.html.A'>, 'Auth': <class 'gluon.tools.Auth'>, 'B': <class 'gluon.html.B'>, 'BEAUTIFY': <class 'gluon.html.BEAUTIFY'>, 'BODY': <class 'gluon.html.BODY'>, 'BR': <class 'gluon.html.BR'>, 'BUTTON': <class 'gluon.html.BUTTON'>, 'CAT': <class 'gluon.html.CAT'>, 'CENTER': <class 'gluon.html.CENTER'>, 'CLEANUP': <class 'gluon.validators.CLEANUP'>, ...}"
p2687
sS'ccode'
p2688
S'<code object <module> at 0xab329a40, file "/home...oShiny/controllers/reconciliotastic.py", line 11>'
p2689
ssS'lnum'
p2690
I204
sS'lines'
p2691
(dp2692
I199
S'    try:'
p2693
sI200
S'        if type(code) == types.CodeType:'
p2694
sI201
S'            ccode = code'
p2695
sI202
S'        else:'
p2696
sI203
S'            ccode = compile2(code,layer)'
p2697
sI204
S'        exec ccode in environment'
p2698
sI205
S'    except HTTP:'
p2699
sI206
S'        raise'
p2700
sI207
S'    except RestrictedError:'
p2701
sI208
S'        # do not encapsulate (obfuscate) the original RestrictedError'
p2702
ssS'call'
p2703
S"(code='# -*- coding: utf-8 -*-\\n# this file is released ...\\nresponse._vars=response._caller(getSpeciesList)\\n', environment={'A': <class 'gluon.html.A'>, 'Auth': <class 'gluon.tools.Auth'>, 'B': <class 'gluon.html.B'>, 'BEAUTIFY': <class 'gluon.html.BEAUTIFY'>, 'BODY': <class 'gluon.html.BODY'>, 'BR': <class 'gluon.html.BR'>, 'BUTTON': <class 'gluon.html.BUTTON'>, 'CAT': <class 'gluon.html.CAT'>, 'CENTER': <class 'gluon.html.CENTER'>, 'CLEANUP': <class 'gluon.validators.CLEANUP'>, ...}, layer='/home/prateek/web2py/applications/phyloShiny/controllers/reconciliotastic.py')"
p2704
sS'func'
p2705
S'restricted'
p2706
sa(dp2707
g2682
S'/home/prateek/web2py/applications/phyloShiny/controllers/reconciliotastic.py'
p2708
sg2684
(dp2709
sg2690
I169
sg2691
(dp2710
I160
S''
sI161
S'    os.system(shellCall)'
p2711
sI162
S''
sI163
S"    reconciledTreeWebFile = getRelativeWebPath('_preprocessed_gene_tree.phylo_gsdi_out.phylo.xml')"
p2712
sI164
S''
sI165
S'    return response.json( dict(vizFile = reconciledTreeWebFile,'
p2713
sI166
S'                               vizLabel = "Reconciled Tree (red=duplication, green=speciation)"'
p2714
sI167
S'                               ) )'
p2715
sI158
S'    shellCall += geneTreeFile'
p2716
sI159
S"    shellCall += ' '+speciesTreeFile"
p2717
ssg2703
S'()'
p2718
sg2705
S'<module>'
p2719
sa(dp2720
g2682
S'/usr/lib/pymodules/python2.7/gluon/globals.py'
p2721
sg2684
(dp2722
S'self'
p2723
S'undefined'
p2724
sS'f'
S'<function getSpeciesList>'
p2725
ssg2690
I172
sg2691
(dp2726
I167
S'        self.meta = Storage()      # used by web2py_ajax.html'
p2727
sI168
S'        self.menu = []             # used by the default view layout'
p2728
sI169
S'        self.files = []            # used by web2py_ajax.html'
p2729
sI170
S'        self.generic_patterns = [] # patterns to allow generic views'
p2730
sI171
S'        self._vars = None'
p2731
sI172
S'        self._caller = lambda f: f()'
p2732
sI173
S'        self._view_environment = None'
p2733
sI174
S'        self._custom_commit = None'
p2734
sI175
S'        self._custom_rollback = None'
p2735
sI176
S''
ssg2703
S'(f=<function getSpeciesList>)'
p2736
sg2705
S'<lambda>'
p2737
sa(dp2738
g2682
S'/home/prateek/web2py/applications/phyloShiny/controllers/reconciliotastic.py'
p2739
sg2684
(dp2740
S').readlines'
p2741
g2724
sS'builtinopen'
p2742
S'<built-in function open>'
p2743
sS'filePrefix'
p2744
S"'/home/prateek/web2py/applications/phyloShiny/sta...le_data/demo_Mammal_Hemoglobin/input_genetree.nwk'"
p2745
sS'l'
g2724
sS'removedNodes'
p2746
g2724
ssg2690
I86
sg2691
(dp2747
I81
S"    shellCall += current.request.folder+'static/lib/forester.jar '"
p2748
sI82
S"    shellCall += 'org.forester.application.gene_tree_preprocess '"
p2749
sI83
S'    shellCall += absoluteFileName'
p2750
sI84
S'    os.system(shellCall)'
p2751
sI85
S''
sI86
S"    removedNodes = [l.strip() for l in open(filePrefix+'_removed_nodes.txt').readlines()]"
p2752
sI87
S"    keptNodes = [l.strip() for l in open(filePrefix+'_species_present.txt').readlines()]"
p2753
sI88
S''
sI89
S"    geneTreeFile = getRelativeWebPath('_preprocessed_gene_tree.phylo.xml')"
p2754
sI90
S''
ssg2703
S'()'
p2755
sg2705
S'getSpeciesList'
p2756
sasS'pyver'
p2757
S'Python 2.7.3: /usr/bin/python'
p2758
sS'session'
p2759
g62
(g63
g64
NtRp2760
(dp2761
g67
(dp2762
sg69
(lp2763
g62
(g71
g64
NtRp2764
(dp2765
g67
(dp2766
g75
I5
ssg76
Nsg69
(lp2767
sbasbsS'etype'
p2768
S"<type 'exceptions.IOError'>"
p2769
sS'date'
p2770
S'Thu May 16 14:03:20 2013'
p2771
sS'response'
p2772
g62
(g63
g64
NtRp2773
(dp2774
g67
(dp2775
sg69
(lp2776
g62
(g71
g64
NtRp2777
(dp2778
g67
(dp2779
g75
I5
ssg76
Nsg69
(lp2780
g62
(g78
g64
NtRp2781
(dp2782
g67
(dp2783
sg76
g2777
sg69
(lp2784
g62
(g83
g64
NtRp2785
(dp2786
g67
(dp2787
g87
g88
ssg76
g2781
sg69
(lp2788
g160
asbag62
(g83
g64
NtRp2789
(dp2790
g67
(dp2791
g94
g95
ssg76
g2781
sg69
(lp2792
S':'
asbag62
(g83
g64
NtRp2793
(dp2794
g67
(dp2795
sg76
g2781
sg69
(lp2796
g62
(g63
g64
NtRp2797
(dp2798
g67
(dp2799
g75
I5
ssg76
g2793
sg69
(lp2800
S'<cStringIO.StringO object at 0xab750c00>'
p2801
asbasbasbag62
(g78
g64
NtRp2802
(dp2803
g67
(dp2804
sg76
g2777
sg69
(lp2805
g62
(g83
g64
NtRp2806
(dp2807
g67
(dp2808
g87
g88
ssg76
g2802
sg69
(lp2809
g226
asbag62
(g83
g64
NtRp2810
(dp2811
g67
(dp2812
g94
g95
ssg76
g2802
sg69
(lp2813
S':'
asbag62
(g83
g64
NtRp2814
(dp2815
g67
(dp2816
sg76
g2802
sg69
(lp2817
g62
(g63
g64
NtRp2818
(dp2819
g67
(dp2820
g75
I5
ssg76
g2814
sg69
(lp2821
g62
(g71
g64
NtRp2822
(dp2823
g67
(dp2824
g75
I4
ssg76
Nsg69
(lp2825
g62
(g78
g64
NtRp2826
(dp2827
g67
(dp2828
sg76
g2822
sg69
(lp2829
g62
(g83
g64
NtRp2830
(dp2831
g67
(dp2832
g87
g88
ssg76
g2826
sg69
(lp2833
S'session_id_phyloshiny'
p2834
asbag62
(g83
g64
NtRp2835
(dp2836
g67
(dp2837
g94
g95
ssg76
g2826
sg69
(lp2838
S':'
asbag62
(g83
g64
NtRp2839
(dp2840
g67
(dp2841
sg76
g2826
sg69
(lp2842
g62
(g63
g64
NtRp2843
(dp2844
g67
(dp2845
g75
I4
ssg76
g2839
sg69
(lp2846
g62
(g71
g64
NtRp2847
(dp2848
g67
(dp2849
g75
I3
ssg76
Nsg69
(lp2850
g62
(g78
g64
NtRp2851
(dp2852
g67
(dp2853
sg76
g2847
sg69
(lp2854
g62
(g83
g64
NtRp2855
(dp2856
g67
(dp2857
g87
g88
ssg76
g2851
sg69
(lp2858
g276
asbag62
(g83
g64
NtRp2859
(dp2860
g67
(dp2861
g94
g95
ssg76
g2851
sg69
(lp2862
S':'
asbag62
(g83
g64
NtRp2863
(dp2864
g67
(dp2865
sg76
g2851
sg69
(lp2866
g62
(g63
g64
NtRp2867
(dp2868
g67
(dp2869
g75
I3
ssg76
g2863
sg69
(lp2870
S''
asbasbasbag62
(g78
g64
NtRp2871
(dp2872
g67
(dp2873
sg76
g2847
sg69
(lp2874
g62
(g83
g64
NtRp2875
(dp2876
g67
(dp2877
g87
g88
ssg76
g2871
sg69
(lp2878
g297
asbag62
(g83
g64
NtRp2879
(dp2880
g67
(dp2881
g94
g95
ssg76
g2871
sg69
(lp2882
S':'
asbag62
(g83
g64
NtRp2883
(dp2884
g67
(dp2885
sg76
g2871
sg69
(lp2886
g62
(g63
g64
NtRp2887
(dp2888
g67
(dp2889
g75
I3
ssg76
g2883
sg69
(lp2890
S''
asbasbasbag62
(g78
g64
NtRp2891
(dp2892
g67
(dp2893
sg76
g2847
sg69
(lp2894
g62
(g83
g64
NtRp2895
(dp2896
g67
(dp2897
g87
g88
ssg76
g2891
sg69
(lp2898
g318
asbag62
(g83
g64
NtRp2899
(dp2900
g67
(dp2901
g94
g95
ssg76
g2891
sg69
(lp2902
S':'
asbag62
(g83
g64
NtRp2903
(dp2904
g67
(dp2905
sg76
g2891
sg69
(lp2906
g62
(g63
g64
NtRp2907
(dp2908
g67
(dp2909
g75
I3
ssg76
g2903
sg69
(lp2910
S''
asbasbasbag62
(g78
g64
NtRp2911
(dp2912
g67
(dp2913
sg76
g2847
sg69
(lp2914
g62
(g83
g64
NtRp2915
(dp2916
g67
(dp2917
g87
g88
ssg76
g2911
sg69
(lp2918
g339
asbag62
(g83
g64
NtRp2919
(dp2920
g67
(dp2921
g94
g95
ssg76
g2911
sg69
(lp2922
S':'
asbag62
(g83
g64
NtRp2923
(dp2924
g67
(dp2925
sg76
g2911
sg69
(lp2926
g62
(g63
g64
NtRp2927
(dp2928
g67
(dp2929
g75
I3
ssg76
g2923
sg69
(lp2930
S''
asbasbasbag62
(g78
g64
NtRp2931
(dp2932
g67
(dp2933
sg76
g2847
sg69
(lp2934
g62
(g83
g64
NtRp2935
(dp2936
g67
(dp2937
g87
g88
ssg76
g2931
sg69
(lp2938
g360
asbag62
(g83
g64
NtRp2939
(dp2940
g67
(dp2941
g94
g95
ssg76
g2931
sg69
(lp2942
S':'
asbag62
(g83
g64
NtRp2943
(dp2944
g67
(dp2945
sg76
g2931
sg69
(lp2946
g62
(g63
g64
NtRp2947
(dp2948
g67
(dp2949
g75
I3
ssg76
g2943
sg69
(lp2950
S''
asbasbasbag62
(g78
g64
NtRp2951
(dp2952
g67
(dp2953
sg76
g2847
sg69
(lp2954
g62
(g83
g64
NtRp2955
(dp2956
g67
(dp2957
g87
g88
ssg76
g2951
sg69
(lp2958
g381
asbag62
(g83
g64
NtRp2959
(dp2960
g67
(dp2961
g94
g95
ssg76
g2951
sg69
(lp2962
S':'
asbag62
(g83
g64
NtRp2963
(dp2964
g67
(dp2965
sg76
g2951
sg69
(lp2966
g62
(g63
g64
NtRp2967
(dp2968
g67
(dp2969
g75
I3
ssg76
g2963
sg69
(lp2970
S'/'
asbasbasbag62
(g78
g64
NtRp2971
(dp2972
g67
(dp2973
sg76
g2847
sg69
(lp2974
g62
(g83
g64
NtRp2975
(dp2976
g67
(dp2977
g87
g88
ssg76
g2971
sg69
(lp2978
g402
asbag62
(g83
g64
NtRp2979
(dp2980
g67
(dp2981
g94
g95
ssg76
g2971
sg69
(lp2982
S':'
asbag62
(g83
g64
NtRp2983
(dp2984
g67
(dp2985
sg76
g2971
sg69
(lp2986
g62
(g63
g64
NtRp2987
(dp2988
g67
(dp2989
g75
I3
ssg76
g2983
sg69
(lp2990
S''
asbasbasbag62
(g78
g64
NtRp2991
(dp2992
g67
(dp2993
sg76
g2847
sg69
(lp2994
g62
(g83
g64
NtRp2995
(dp2996
g67
(dp2997
g87
g88
ssg76
g2991
sg69
(lp2998
g423
asbag62
(g83
g64
NtRp2999
(dp3000
g67
(dp3001
g94
g95
ssg76
g2991
sg69
(lp3002
S':'
asbag62
(g83
g64
NtRp3003
(dp3004
g67
(dp3005
sg76
g2991
sg69
(lp3006
g62
(g63
g64
NtRp3007
(dp3008
g67
(dp3009
g75
I3
ssg76
g3003
sg69
(lp3010
S''
asbasbasbasbasbasbasbasbasbasbasbag62
(g78
g64
NtRp3011
(dp3012
g67
(dp3013
sg76
g2777
sg69
(lp3014
g62
(g83
g64
NtRp3015
(dp3016
g67
(dp3017
g87
g88
ssg76
g3011
sg69
(lp3018
S'files'
p3019
asbag62
(g83
g64
NtRp3020
(dp3021
g67
(dp3022
g94
g95
ssg76
g3011
sg69
(lp3023
S':'
asbag62
(g83
g64
NtRp3024
(dp3025
g67
(dp3026
sg76
g3011
sg69
(lp3027
g62
(g63
g64
NtRp3028
(dp3029
g67
(dp3030
g75
I5
ssg76
g3024
sg69
(lp3031
g62
(g71
g64
NtRp3032
(dp3033
g67
(dp3034
g75
I4
ssg76
Nsg69
(lp3035
sbasbasbasbag62
(g78
g64
NtRp3036
(dp3037
g67
(dp3038
sg76
g2777
sg69
(lp3039
g62
(g83
g64
NtRp3040
(dp3041
g67
(dp3042
g87
g88
ssg76
g3036
sg69
(lp3043
S'flash'
p3044
asbag62
(g83
g64
NtRp3045
(dp3046
g67
(dp3047
g94
g95
ssg76
g3036
sg69
(lp3048
S':'
asbag62
(g83
g64
NtRp3049
(dp3050
g67
(dp3051
sg76
g3036
sg69
(lp3052
g62
(g63
g64
NtRp3053
(dp3054
g67
(dp3055
g75
I5
ssg76
g3049
sg69
(lp3056
S''
asbasbasbag62
(g78
g64
NtRp3057
(dp3058
g67
(dp3059
sg76
g2777
sg69
(lp3060
g62
(g83
g64
NtRp3061
(dp3062
g67
(dp3063
g87
g88
ssg76
g3057
sg69
(lp3064
S'generic_patterns'
p3065
asbag62
(g83
g64
NtRp3066
(dp3067
g67
(dp3068
g94
g95
ssg76
g3057
sg69
(lp3069
S':'
asbag62
(g83
g64
NtRp3070
(dp3071
g67
(dp3072
sg76
g3057
sg69
(lp3073
g62
(g63
g64
NtRp3074
(dp3075
g67
(dp3076
g75
I5
ssg76
g3070
sg69
(lp3077
g62
(g71
g64
NtRp3078
(dp3079
g67
(dp3080
g75
I4
ssg76
Nsg69
(lp3081
g62
(g78
g64
NtRp3082
(dp3083
g67
(dp3084
sg76
g3078
sg69
(lp3085
g62
(g83
g64
NtRp3086
(dp3087
g67
(dp3088
sg76
g3082
sg69
(lp3089
g62
(g63
g64
NtRp3090
(dp3091
g67
(dp3092
g75
I4
ssg76
g3086
sg69
(lp3093
S'*'
asbasbasbasbasbasbasbag62
(g78
g64
NtRp3094
(dp3095
g67
(dp3096
sg76
g2777
sg69
(lp3097
g62
(g83
g64
NtRp3098
(dp3099
g67
(dp3100
g87
g88
ssg76
g3094
sg69
(lp3101
S'headers'
p3102
asbag62
(g83
g64
NtRp3103
(dp3104
g67
(dp3105
g94
g95
ssg76
g3094
sg69
(lp3106
S':'
asbag62
(g83
g64
NtRp3107
(dp3108
g67
(dp3109
sg76
g3094
sg69
(lp3110
g62
(g63
g64
NtRp3111
(dp3112
g67
(dp3113
g75
I5
ssg76
g3107
sg69
(lp3114
g62
(g71
g64
NtRp3115
(dp3116
g67
(dp3117
g75
I4
ssg76
Nsg69
(lp3118
g62
(g78
g64
NtRp3119
(dp3120
g67
(dp3121
sg76
g3115
sg69
(lp3122
g62
(g83
g64
NtRp3123
(dp3124
g67
(dp3125
g87
g88
ssg76
g3119
sg69
(lp3126
S'Cache-Control'
p3127
asbag62
(g83
g64
NtRp3128
(dp3129
g67
(dp3130
g94
g95
ssg76
g3119
sg69
(lp3131
S':'
asbag62
(g83
g64
NtRp3132
(dp3133
g67
(dp3134
sg76
g3119
sg69
(lp3135
g62
(g63
g64
NtRp3136
(dp3137
g67
(dp3138
g75
I4
ssg76
g3132
sg69
(lp3139
S'no-store, no-cache, must-revalidate, post-check=0, pre-check=0'
p3140
asbasbasbag62
(g78
g64
NtRp3141
(dp3142
g67
(dp3143
sg76
g3115
sg69
(lp3144
g62
(g83
g64
NtRp3145
(dp3146
g67
(dp3147
g87
g88
ssg76
g3141
sg69
(lp3148
S'Content-Type'
p3149
asbag62
(g83
g64
NtRp3150
(dp3151
g67
(dp3152
g94
g95
ssg76
g3141
sg69
(lp3153
S':'
asbag62
(g83
g64
NtRp3154
(dp3155
g67
(dp3156
sg76
g3141
sg69
(lp3157
g62
(g63
g64
NtRp3158
(dp3159
g67
(dp3160
g75
I4
ssg76
g3154
sg69
(lp3161
S'text/html; charset=utf-8'
p3162
asbasbasbag62
(g78
g64
NtRp3163
(dp3164
g67
(dp3165
sg76
g3115
sg69
(lp3166
g62
(g83
g64
NtRp3167
(dp3168
g67
(dp3169
g87
g88
ssg76
g3163
sg69
(lp3170
S'Expires'
p3171
asbag62
(g83
g64
NtRp3172
(dp3173
g67
(dp3174
g94
g95
ssg76
g3163
sg69
(lp3175
S':'
asbag62
(g83
g64
NtRp3176
(dp3177
g67
(dp3178
sg76
g3163
sg69
(lp3179
g62
(g63
g64
NtRp3180
(dp3181
g67
(dp3182
g75
I4
ssg76
g3176
sg69
(lp3183
S'Thu, 16 May 2013 08:32:17 GMT'
p3184
asbasbasbag62
(g78
g64
NtRp3185
(dp3186
g67
(dp3187
sg76
g3115
sg69
(lp3188
g62
(g83
g64
NtRp3189
(dp3190
g67
(dp3191
g87
g88
ssg76
g3185
sg69
(lp3192
S'Pragma'
p3193
asbag62
(g83
g64
NtRp3194
(dp3195
g67
(dp3196
g94
g95
ssg76
g3185
sg69
(lp3197
S':'
asbag62
(g83
g64
NtRp3198
(dp3199
g67
(dp3200
sg76
g3185
sg69
(lp3201
g62
(g63
g64
NtRp3202
(dp3203
g67
(dp3204
g75
I4
ssg76
g3198
sg69
(lp3205
S'no-cache'
p3206
asbasbasbag62
(g78
g64
NtRp3207
(dp3208
g67
(dp3209
sg76
g3115
sg69
(lp3210
g62
(g83
g64
NtRp3211
(dp3212
g67
(dp3213
g87
g88
ssg76
g3207
sg69
(lp3214
S'X-Powered-By'
p3215
asbag62
(g83
g64
NtRp3216
(dp3217
g67
(dp3218
g94
g95
ssg76
g3207
sg69
(lp3219
S':'
asbag62
(g83
g64
NtRp3220
(dp3221
g67
(dp3222
sg76
g3207
sg69
(lp3223
g62
(g63
g64
NtRp3224
(dp3225
g67
(dp3226
g75
I4
ssg76
g3220
sg69
(lp3227
S'web2py'
p3228
asbasbasbasbasbasbasbag62
(g78
g64
NtRp3229
(dp3230
g67
(dp3231
sg76
g2777
sg69
(lp3232
g62
(g83
g64
NtRp3233
(dp3234
g67
(dp3235
g87
g88
ssg76
g3229
sg69
(lp3236
S'menu'
p3237
asbag62
(g83
g64
NtRp3238
(dp3239
g67
(dp3240
g94
g95
ssg76
g3229
sg69
(lp3241
S':'
asbag62
(g83
g64
NtRp3242
(dp3243
g67
(dp3244
sg76
g3229
sg69
(lp3245
g62
(g63
g64
NtRp3246
(dp3247
g67
(dp3248
g75
I5
ssg76
g3242
sg69
(lp3249
g62
(g71
g64
NtRp3250
(dp3251
g67
(dp3252
g75
I4
ssg76
Nsg69
(lp3253
g62
(g78
g64
NtRp3254
(dp3255
g67
(dp3256
sg76
g3250
sg69
(lp3257
g62
(g83
g64
NtRp3258
(dp3259
g67
(dp3260
sg76
g3254
sg69
(lp3261
g62
(g63
g64
NtRp3262
(dp3263
g67
(dp3264
g75
I4
ssg76
g3258
sg69
(lp3265
g62
(g71
g64
NtRp3266
(dp3267
g67
(dp3268
g75
I3
ssg76
Nsg69
(lp3269
g62
(g78
g64
NtRp3270
(dp3271
g67
(dp3272
sg76
g3266
sg69
(lp3273
g62
(g83
g64
NtRp3274
(dp3275
g67
(dp3276
sg76
g3270
sg69
(lp3277
g62
(g63
g64
NtRp3278
(dp3279
g67
(dp3280
g75
I3
ssg76
g3274
sg69
(lp3281
cgluon.languages
lazyT_unpickle
p3282
(S't\x04\x00\x00\x00Home'
tRp3283
asbasbasbag62
(g78
g64
NtRp3284
(dp3285
g67
(dp3286
sg76
g3266
sg69
(lp3287
g62
(g83
g64
NtRp3288
(dp3289
g67
(dp3290
sg76
g3284
sg69
(lp3291
g62
(g63
g64
NtRp3292
(dp3293
g67
(dp3294
g75
I3
ssg76
g3288
sg69
(lp3295
g595
asbasbasbag62
(g78
g64
NtRp3296
(dp3297
g67
(dp3298
sg76
g3266
sg69
(lp3299
g62
(g83
g64
NtRp3300
(dp3301
g67
(dp3302
sg76
g3296
sg69
(lp3303
g62
(g63
g64
NtRp3304
(dp3305
g67
(dp3306
g75
I3
ssg76
g3300
sg69
(lp3307
S'/phyloShiny/default/index'
p3308
asbasbasbag62
(g78
g64
NtRp3309
(dp3310
g67
(dp3311
sg76
g3266
sg69
(lp3312
g62
(g83
g64
NtRp3313
(dp3314
g67
(dp3315
sg76
g3309
sg69
(lp3316
g62
(g63
g64
NtRp3317
(dp3318
g67
(dp3319
g75
I3
ssg76
g3313
sg69
(lp3320
g62
(g71
g64
NtRp3321
(dp3322
g67
(dp3323
g75
I2
ssg76
Nsg69
(lp3324
sbasbasbasbasbasbasbasbag62
(g78
g64
NtRp3325
(dp3326
g67
(dp3327
sg76
g3250
sg69
(lp3328
g62
(g83
g64
NtRp3329
(dp3330
g67
(dp3331
sg76
g3325
sg69
(lp3332
g62
(g63
g64
NtRp3333
(dp3334
g67
(dp3335
g75
I4
ssg76
g3329
sg69
(lp3336
g62
(g71
g64
NtRp3337
(dp3338
g67
(dp3339
g75
I3
ssg76
Nsg69
(lp3340
g62
(g78
g64
NtRp3341
(dp3342
g67
(dp3343
sg76
g3337
sg69
(lp3344
g62
(g83
g64
NtRp3345
(dp3346
g67
(dp3347
sg76
g3341
sg69
(lp3348
g62
(g63
g64
NtRp3349
(dp3350
g67
(dp3351
g75
I3
ssg76
g3345
sg69
(lp3352
g62
(cgluon.html
SPAN
p3353
g64
NtRp3354
(dp3355
g67
(dp3356
g87
S'color:yellow'
p3357
ssg76
Nsg69
(lp3358
g3228
asbasbasbasbag62
(g78
g64
NtRp3359
(dp3360
g67
(dp3361
sg76
g3337
sg69
(lp3362
g62
(g83
g64
NtRp3363
(dp3364
g67
(dp3365
sg76
g3359
sg69
(lp3366
g62
(g63
g64
NtRp3367
(dp3368
g67
(dp3369
g75
I3
ssg76
g3363
sg69
(lp3370
g595
asbasbasbag62
(g78
g64
NtRp3371
(dp3372
g67
(dp3373
sg76
g3337
sg69
(lp3374
g62
(g83
g64
NtRp3375
(dp3376
g67
(dp3377
sg76
g3371
sg69
(lp3378
g62
(g63
g64
NtRp3379
(dp3380
g67
(dp3381
g75
I3
ssg76
g3375
sg69
(lp3382
S'None'
p3383
asbasbasbag62
(g78
g64
NtRp3384
(dp3385
g67
(dp3386
sg76
g3337
sg69
(lp3387
g62
(g83
g64
NtRp3388
(dp3389
g67
(dp3390
sg76
g3384
sg69
(lp3391
g62
(g63
g64
NtRp3392
(dp3393
g67
(dp3394
g75
I3
ssg76
g3388
sg69
(lp3395
g62
(g71
g64
NtRp3396
(dp3397
g67
(dp3398
g75
I2
ssg76
Nsg69
(lp3399
g62
(g78
g64
NtRp3400
(dp3401
g67
(dp3402
sg76
g3396
sg69
(lp3403
g62
(g83
g64
NtRp3404
(dp3405
g67
(dp3406
sg76
g3400
sg69
(lp3407
g62
(g63
g64
NtRp3408
(dp3409
g67
(dp3410
g75
I2
ssg76
g3404
sg69
(lp3411
g62
(g71
g64
NtRp3412
(dp3413
g67
(dp3414
g75
I1
ssg76
Nsg69
(lp3415
g62
(g78
g64
NtRp3416
(dp3417
g67
(dp3418
sg76
g3412
sg69
(lp3419
g62
(g83
g64
NtRp3420
(dp3421
g67
(dp3422
sg76
g3416
sg69
(lp3423
g62
(g63
g64
NtRp3424
(dp3425
g67
(dp3426
g75
I1
ssg76
g3420
sg69
(lp3427
g3282
(S's\x08\x00\x00\x00My Sites'
tRp3428
asbasbasbag62
(g78
g64
NtRp3429
(dp3430
g67
(dp3431
sg76
g3412
sg69
(lp3432
g62
(g83
g64
NtRp3433
(dp3434
g67
(dp3435
sg76
g3429
sg69
(lp3436
g62
(g63
g64
NtRp3437
(dp3438
g67
(dp3439
g75
I1
ssg76
g3433
sg69
(lp3440
I00
asbasbasbag62
(g78
g64
NtRp3441
(dp3442
g67
(dp3443
sg76
g3412
sg69
(lp3444
g62
(g83
g64
NtRp3445
(dp3446
g67
(dp3447
sg76
g3441
sg69
(lp3448
g62
(g63
g64
NtRp3449
(dp3450
g67
(dp3451
g75
I1
ssg76
g3445
sg69
(lp3452
S'/admin/default/site'
p3453
asbasbasbasbasbasbasbag62
(g78
g64
NtRp3454
(dp3455
g67
(dp3456
sg76
g3396
sg69
(lp3457
g62
(g83
g64
NtRp3458
(dp3459
g67
(dp3460
sg76
g3454
sg69
(lp3461
g62
(g63
g64
NtRp3462
(dp3463
g67
(dp3464
g75
I2
ssg76
g3458
sg69
(lp3465
g62
(g71
g64
NtRp3466
(dp3467
g67
(dp3468
g75
I1
ssg76
Nsg69
(lp3469
g62
(g78
g64
NtRp3470
(dp3471
g67
(dp3472
sg76
g3466
sg69
(lp3473
g62
(g83
g64
NtRp3474
(dp3475
g67
(dp3476
sg76
g3470
sg69
(lp3477
g62
(g63
g64
NtRp3478
(dp3479
g67
(dp3480
g75
I1
ssg76
g3474
sg69
(lp3481
g3282
(S's\x08\x00\x00\x00This App'
tRp3482
asbasbasbag62
(g78
g64
NtRp3483
(dp3484
g67
(dp3485
sg76
g3466
sg69
(lp3486
g62
(g83
g64
NtRp3487
(dp3488
g67
(dp3489
sg76
g3483
sg69
(lp3490
g62
(g63
g64
NtRp3491
(dp3492
g67
(dp3493
g75
I1
ssg76
g3487
sg69
(lp3494
I00
asbasbasbag62
(g78
g64
NtRp3495
(dp3496
g67
(dp3497
sg76
g3466
sg69
(lp3498
g62
(g83
g64
NtRp3499
(dp3500
g67
(dp3501
sg76
g3495
sg69
(lp3502
g62
(g63
g64
NtRp3503
(dp3504
g67
(dp3505
g75
I1
ssg76
g3499
sg69
(lp3506
S'/admin/default/design/phyloShiny'
p3507
asbasbasbag62
(g78
g64
NtRp3508
(dp3509
g67
(dp3510
sg76
g3466
sg69
(lp3511
g62
(g83
g64
NtRp3512
(dp3513
g67
(dp3514
sg76
g3508
sg69
(lp3515
g62
(g63
g64
NtRp3516
(dp3517
g67
(dp3518
g75
I1
ssg76
g3512
sg69
(lp3519
(lp3520
(g3282
(S't\n\x00\x00\x00Controller'
tRp3521
I00
S'/admin/default/edit/phyloShiny/controllers/reconciliotastic.py'
tp3522
a(g3282
(S't\x04\x00\x00\x00View'
tRp3523
I00
S'/admin/default/edit/phyloShiny/views/reconciliotastic/getSpeciesList.html'
tp3524
a(g3282
(S't\x06\x00\x00\x00Layout'
tRp3525
I00
S'/admin/default/edit/phyloShiny/views/layout.html'
tp3526
a(g3282
(S't\n\x00\x00\x00Stylesheet'
tRp3527
I00
S'/admin/default/edit/phyloShiny/static/css/web2py.css'
tp3528
a(g3282
(S's\x08\x00\x00\x00DB Model'
tRp3529
I00
S'/admin/default/edit/phyloShiny/models/db.py'
tp3530
a(g3282
(S's\n\x00\x00\x00Menu Model'
tRp3531
I00
S'/admin/default/edit/phyloShiny/models/menu.py'
tp3532
a(g3282
(S't\x08\x00\x00\x00Database'
tRp3533
I00
S'/phyloShiny/appadmin/index'
tp3534
a(g3282
(S't\x06\x00\x00\x00Errors'
tRp3535
I00
S'/admin/default/errors/phyloShiny'
tp3536
a(g3282
(S't\x05\x00\x00\x00About'
tRp3537
I00
S'/admin/default/about/phyloShiny'
tp3538
aasbasbasbasbasbasbasbag62
(g78
g64
NtRp3539
(dp3540
g67
(dp3541
sg76
g3396
sg69
(lp3542
g62
(g83
g64
NtRp3543
(dp3544
g67
(dp3545
sg76
g3539
sg69
(lp3546
g62
(g63
g64
NtRp3547
(dp3548
g67
(dp3549
g75
I2
ssg76
g3543
sg69
(lp3550
g62
(g71
g64
NtRp3551
(dp3552
g67
(dp3553
g75
I1
ssg76
Nsg69
(lp3554
g62
(g78
g64
NtRp3555
(dp3556
g67
(dp3557
sg76
g3551
sg69
(lp3558
g62
(g83
g64
NtRp3559
(dp3560
g67
(dp3561
sg76
g3555
sg69
(lp3562
g62
(g63
g64
NtRp3563
(dp3564
g67
(dp3565
g75
I1
ssg76
g3559
sg69
(lp3566
S'web2py.com'
p3567
asbasbasbag62
(g78
g64
NtRp3568
(dp3569
g67
(dp3570
sg76
g3551
sg69
(lp3571
g62
(g83
g64
NtRp3572
(dp3573
g67
(dp3574
sg76
g3568
sg69
(lp3575
g62
(g63
g64
NtRp3576
(dp3577
g67
(dp3578
g75
I1
ssg76
g3572
sg69
(lp3579
I00
asbasbasbag62
(g78
g64
NtRp3580
(dp3581
g67
(dp3582
sg76
g3551
sg69
(lp3583
g62
(g83
g64
NtRp3584
(dp3585
g67
(dp3586
sg76
g3580
sg69
(lp3587
g62
(g63
g64
NtRp3588
(dp3589
g67
(dp3590
g75
I1
ssg76
g3584
sg69
(lp3591
S'http://www.web2py.com'
p3592
asbasbasbag62
(g78
g64
NtRp3593
(dp3594
g67
(dp3595
sg76
g3551
sg69
(lp3596
g62
(g83
g64
NtRp3597
(dp3598
g67
(dp3599
sg76
g3593
sg69
(lp3600
g62
(g63
g64
NtRp3601
(dp3602
g67
(dp3603
g75
I1
ssg76
g3597
sg69
(lp3604
(lp3605
(g3282
(S't\x08\x00\x00\x00Download'
tRp3606
I00
S'http://www.web2py.com/examples/default/download'
p3607
tp3608
a(g3282
(S't\x07\x00\x00\x00Support'
tRp3609
I00
S'http://www.web2py.com/examples/default/support'
p3610
tp3611
a(g3282
(S't\x04\x00\x00\x00Demo'
tRp3612
I00
S'http://web2py.com/demo_admin'
p3613
tp3614
a(g3282
(S's\x0e\x00\x00\x00Quick Examples'
tRp3615
I00
S'http://web2py.com/examples/default/examples'
p3616
tp3617
a(g3282
(S't\x03\x00\x00\x00FAQ'
tRp3618
I00
S'http://web2py.com/AlterEgo'
p3619
tp3620
a(g3282
(S't\x06\x00\x00\x00Videos'
tRp3621
I00
S'http://www.web2py.com/examples/default/videos/'
p3622
tp3623
a(g3282
(S's\x11\x00\x00\x00Free Applications'
tRp3624
I00
S'http://web2py.com/appliances'
p3625
tp3626
a(g3282
(S't\x07\x00\x00\x00Plugins'
tRp3627
I00
S'http://web2py.com/plugins'
p3628
tp3629
a(g3282
(S't\x07\x00\x00\x00Layouts'
tRp3630
I00
S'http://web2py.com/layouts'
p3631
tp3632
a(g3282
(S't\x07\x00\x00\x00Recipes'
tRp3633
I00
S'http://web2pyslices.com/'
p3634
tp3635
a(g3282
(S't\x08\x00\x00\x00Semantic'
tRp3636
I00
S'http://web2py.com/semantic'
p3637
tp3638
aasbasbasbasbasbasbasbag62
(g78
g64
NtRp3639
(dp3640
g67
(dp3641
sg76
g3396
sg69
(lp3642
g62
(g83
g64
NtRp3643
(dp3644
g67
(dp3645
sg76
g3639
sg69
(lp3646
g62
(g63
g64
NtRp3647
(dp3648
g67
(dp3649
g75
I2
ssg76
g3643
sg69
(lp3650
g62
(g71
g64
NtRp3651
(dp3652
g67
(dp3653
g75
I1
ssg76
Nsg69
(lp3654
g62
(g78
g64
NtRp3655
(dp3656
g67
(dp3657
sg76
g3651
sg69
(lp3658
g62
(g83
g64
NtRp3659
(dp3660
g67
(dp3661
sg76
g3655
sg69
(lp3662
g62
(g63
g64
NtRp3663
(dp3664
g67
(dp3665
g75
I1
ssg76
g3659
sg69
(lp3666
g3282
(S't\r\x00\x00\x00Documentation'
tRp3667
asbasbasbag62
(g78
g64
NtRp3668
(dp3669
g67
(dp3670
sg76
g3651
sg69
(lp3671
g62
(g83
g64
NtRp3672
(dp3673
g67
(dp3674
sg76
g3668
sg69
(lp3675
g62
(g63
g64
NtRp3676
(dp3677
g67
(dp3678
g75
I1
ssg76
g3672
sg69
(lp3679
I00
asbasbasbag62
(g78
g64
NtRp3680
(dp3681
g67
(dp3682
sg76
g3651
sg69
(lp3683
g62
(g83
g64
NtRp3684
(dp3685
g67
(dp3686
sg76
g3680
sg69
(lp3687
g62
(g63
g64
NtRp3688
(dp3689
g67
(dp3690
g75
I1
ssg76
g3684
sg69
(lp3691
S'http://www.web2py.com/book'
p3692
asbasbasbag62
(g78
g64
NtRp3693
(dp3694
g67
(dp3695
sg76
g3651
sg69
(lp3696
g62
(g83
g64
NtRp3697
(dp3698
g67
(dp3699
sg76
g3693
sg69
(lp3700
g62
(g63
g64
NtRp3701
(dp3702
g67
(dp3703
g75
I1
ssg76
g3697
sg69
(lp3704
(lp3705
(g3282
(S't\x07\x00\x00\x00Preface'
tRp3706
I00
S'http://www.web2py.com/book/default/chapter/00'
p3707
tp3708
a(g3282
(S't\x0c\x00\x00\x00Introduction'
tRp3709
I00
S'http://www.web2py.com/book/default/chapter/01'
p3710
tp3711
a(g3282
(S't\x06\x00\x00\x00Python'
tRp3712
I00
S'http://www.web2py.com/book/default/chapter/02'
p3713
tp3714
a(g3282
(S't\x08\x00\x00\x00Overview'
tRp3715
I00
S'http://www.web2py.com/book/default/chapter/03'
p3716
tp3717
a(g3282
(S's\x08\x00\x00\x00The Core'
tRp3718
I00
S'http://www.web2py.com/book/default/chapter/04'
p3719
tp3720
a(g3282
(S's\t\x00\x00\x00The Views'
tRp3721
I00
S'http://www.web2py.com/book/default/chapter/05'
p3722
tp3723
a(g3282
(S't\x08\x00\x00\x00Database'
tRp3724
I00
S'http://www.web2py.com/book/default/chapter/06'
p3725
tp3726
a(g3282
(S's\x14\x00\x00\x00Forms and Validators'
tRp3727
I00
S'http://www.web2py.com/book/default/chapter/07'
p3728
tp3729
a(g3282
(S's\r\x00\x00\x00Email and SMS'
tRp3730
I00
S'http://www.web2py.com/book/default/chapter/08'
p3731
tp3732
a(g3282
(S's\x0e\x00\x00\x00Access Control'
tRp3733
I00
S'http://www.web2py.com/book/default/chapter/09'
p3734
tp3735
a(g3282
(S't\x08\x00\x00\x00Services'
tRp3736
I00
S'http://www.web2py.com/book/default/chapter/10'
p3737
tp3738
a(g3282
(S's\x0c\x00\x00\x00Ajax Recipes'
tRp3739
I00
S'http://www.web2py.com/book/default/chapter/11'
p3740
tp3741
a(g3282
(S's\x16\x00\x00\x00Components and Plugins'
tRp3742
I00
S'http://www.web2py.com/book/default/chapter/12'
p3743
tp3744
a(g3282
(S's\x12\x00\x00\x00Deployment Recipes'
tRp3745
I00
S'http://www.web2py.com/book/default/chapter/13'
p3746
tp3747
a(g3282
(S's\r\x00\x00\x00Other Recipes'
tRp3748
I00
S'http://www.web2py.com/book/default/chapter/14'
p3749
tp3750
a(g3282
(S's\r\x00\x00\x00Buy this book'
tRp3751
I00
S'http://stores.lulu.com/web2py'
p3752
tp3753
aasbasbasbasbasbasbasbag62
(g78
g64
NtRp3754
(dp3755
g67
(dp3756
sg76
g3396
sg69
(lp3757
g62
(g83
g64
NtRp3758
(dp3759
g67
(dp3760
sg76
g3754
sg69
(lp3761
g62
(g63
g64
NtRp3762
(dp3763
g67
(dp3764
g75
I2
ssg76
g3758
sg69
(lp3765
g62
(g71
g64
NtRp3766
(dp3767
g67
(dp3768
g75
I1
ssg76
Nsg69
(lp3769
g62
(g78
g64
NtRp3770
(dp3771
g67
(dp3772
sg76
g3766
sg69
(lp3773
g62
(g83
g64
NtRp3774
(dp3775
g67
(dp3776
sg76
g3770
sg69
(lp3777
g62
(g63
g64
NtRp3778
(dp3779
g67
(dp3780
g75
I1
ssg76
g3774
sg69
(lp3781
g3282
(S't\t\x00\x00\x00Community'
tRp3782
asbasbasbag62
(g78
g64
NtRp3783
(dp3784
g67
(dp3785
sg76
g3766
sg69
(lp3786
g62
(g83
g64
NtRp3787
(dp3788
g67
(dp3789
sg76
g3783
sg69
(lp3790
g62
(g63
g64
NtRp3791
(dp3792
g67
(dp3793
g75
I1
ssg76
g3787
sg69
(lp3794
I00
asbasbasbag62
(g78
g64
NtRp3795
(dp3796
g67
(dp3797
sg76
g3766
sg69
(lp3798
g62
(g83
g64
NtRp3799
(dp3800
g67
(dp3801
sg76
g3795
sg69
(lp3802
g62
(g63
g64
NtRp3803
(dp3804
g67
(dp3805
g75
I1
ssg76
g3799
sg69
(lp3806
Nasbasbasbag62
(g78
g64
NtRp3807
(dp3808
g67
(dp3809
sg76
g3766
sg69
(lp3810
g62
(g83
g64
NtRp3811
(dp3812
g67
(dp3813
sg76
g3807
sg69
(lp3814
g62
(g63
g64
NtRp3815
(dp3816
g67
(dp3817
g75
I1
ssg76
g3811
sg69
(lp3818
(lp3819
(g3282
(S't\x06\x00\x00\x00Groups'
tRp3820
I00
S'http://www.web2py.com/examples/default/usergroups'
p3821
tp3822
a(g3282
(S't\x07\x00\x00\x00Twitter'
tRp3823
I00
S'http://twitter.com/web2py'
p3824
tp3825
a(g3282
(S's\t\x00\x00\x00Live Chat'
tRp3826
I00
S'http://webchat.freenode.net/?channels=web2py'
p3827
tp3828
aasbasbasbasbasbasbasbag62
(g78
g64
NtRp3829
(dp3830
g67
(dp3831
sg76
g3396
sg69
(lp3832
g62
(g83
g64
NtRp3833
(dp3834
g67
(dp3835
sg76
g3829
sg69
(lp3836
g62
(g63
g64
NtRp3837
(dp3838
g67
(dp3839
g75
I2
ssg76
g3833
sg69
(lp3840
g62
(g71
g64
NtRp3841
(dp3842
g67
(dp3843
g75
I1
ssg76
Nsg69
(lp3844
g62
(g78
g64
NtRp3845
(dp3846
g67
(dp3847
sg76
g3841
sg69
(lp3848
g62
(g83
g64
NtRp3849
(dp3850
g67
(dp3851
sg76
g3845
sg69
(lp3852
g62
(g63
g64
NtRp3853
(dp3854
g67
(dp3855
g75
I1
ssg76
g3849
sg69
(lp3856
g3282
(S't\x07\x00\x00\x00Plugins'
tRp3857
asbasbasbag62
(g78
g64
NtRp3858
(dp3859
g67
(dp3860
sg76
g3841
sg69
(lp3861
g62
(g83
g64
NtRp3862
(dp3863
g67
(dp3864
sg76
g3858
sg69
(lp3865
g62
(g63
g64
NtRp3866
(dp3867
g67
(dp3868
g75
I1
ssg76
g3862
sg69
(lp3869
I00
asbasbasbag62
(g78
g64
NtRp3870
(dp3871
g67
(dp3872
sg76
g3841
sg69
(lp3873
g62
(g83
g64
NtRp3874
(dp3875
g67
(dp3876
sg76
g3870
sg69
(lp3877
g62
(g63
g64
NtRp3878
(dp3879
g67
(dp3880
g75
I1
ssg76
g3874
sg69
(lp3881
Nasbasbasbag62
(g78
g64
NtRp3882
(dp3883
g67
(dp3884
sg76
g3841
sg69
(lp3885
g62
(g83
g64
NtRp3886
(dp3887
g67
(dp3888
sg76
g3882
sg69
(lp3889
g62
(g63
g64
NtRp3890
(dp3891
g67
(dp3892
g75
I1
ssg76
g3886
sg69
(lp3893
(lp3894
(S'plugin_wiki'
p3895
I00
S'http://web2py.com/examples/default/download'
p3896
tp3897
a(g3282
(S's\r\x00\x00\x00Other Plugins'
tRp3898
I00
g3628
tp3899
a(g3282
(S's\x0e\x00\x00\x00Layout Plugins'
tRp3900
I00
g3631
tp3901
aasbasbasbasbasbasbasbasbasbasbasbasbasbasbasbasbasbasbasbag62
(g78
g64
NtRp3902
(dp3903
g67
(dp3904
sg76
g2777
sg69
(lp3905
g62
(g83
g64
NtRp3906
(dp3907
g67
(dp3908
g87
g88
ssg76
g3902
sg69
(lp3909
S'meta'
p3910
asbag62
(g83
g64
NtRp3911
(dp3912
g67
(dp3913
g94
g95
ssg76
g3902
sg69
(lp3914
S':'
asbag62
(g83
g64
NtRp3915
(dp3916
g67
(dp3917
sg76
g3902
sg69
(lp3918
g62
(g63
g64
NtRp3919
(dp3920
g67
(dp3921
g75
I5
ssg76
g3915
sg69
(lp3922
g62
(g71
g64
NtRp3923
(dp3924
g67
(dp3925
g75
I4
ssg76
Nsg69
(lp3926
g62
(g78
g64
NtRp3927
(dp3928
g67
(dp3929
sg76
g3923
sg69
(lp3930
g62
(g83
g64
NtRp3931
(dp3932
g67
(dp3933
g87
g88
ssg76
g3927
sg69
(lp3934
S'author'
p3935
asbag62
(g83
g64
NtRp3936
(dp3937
g67
(dp3938
g94
g95
ssg76
g3927
sg69
(lp3939
S':'
asbag62
(g83
g64
NtRp3940
(dp3941
g67
(dp3942
sg76
g3927
sg69
(lp3943
g62
(g63
g64
NtRp3944
(dp3945
g67
(dp3946
g75
I4
ssg76
g3940
sg69
(lp3947
S'Your Name <you@example.com>'
p3948
asbasbasbag62
(g78
g64
NtRp3949
(dp3950
g67
(dp3951
sg76
g3923
sg69
(lp3952
g62
(g83
g64
NtRp3953
(dp3954
g67
(dp3955
g87
g88
ssg76
g3949
sg69
(lp3956
S'copyright'
p3957
asbag62
(g83
g64
NtRp3958
(dp3959
g67
(dp3960
g94
g95
ssg76
g3949
sg69
(lp3961
S':'
asbag62
(g83
g64
NtRp3962
(dp3963
g67
(dp3964
sg76
g3949
sg69
(lp3965
g62
(g63
g64
NtRp3966
(dp3967
g67
(dp3968
g75
I4
ssg76
g3962
sg69
(lp3969
S'Copyright 2011'
p3970
asbasbasbag62
(g78
g64
NtRp3971
(dp3972
g67
(dp3973
sg76
g3923
sg69
(lp3974
g62
(g83
g64
NtRp3975
(dp3976
g67
(dp3977
g87
g88
ssg76
g3971
sg69
(lp3978
S'description'
p3979
asbag62
(g83
g64
NtRp3980
(dp3981
g67
(dp3982
g94
g95
ssg76
g3971
sg69
(lp3983
S':'
asbag62
(g83
g64
NtRp3984
(dp3985
g67
(dp3986
sg76
g3971
sg69
(lp3987
g62
(g63
g64
NtRp3988
(dp3989
g67
(dp3990
g75
I4
ssg76
g3984
sg69
(lp3991
S'a cool new app'
p3992
asbasbasbag62
(g78
g64
NtRp3993
(dp3994
g67
(dp3995
sg76
g3923
sg69
(lp3996
g62
(g83
g64
NtRp3997
(dp3998
g67
(dp3999
g87
g88
ssg76
g3993
sg69
(lp4000
S'generator'
p4001
asbag62
(g83
g64
NtRp4002
(dp4003
g67
(dp4004
g94
g95
ssg76
g3993
sg69
(lp4005
S':'
asbag62
(g83
g64
NtRp4006
(dp4007
g67
(dp4008
sg76
g3993
sg69
(lp4009
g62
(g63
g64
NtRp4010
(dp4011
g67
(dp4012
g75
I4
ssg76
g4006
sg69
(lp4013
S'Web2py Web Framework'
p4014
asbasbasbag62
(g78
g64
NtRp4015
(dp4016
g67
(dp4017
sg76
g3923
sg69
(lp4018
g62
(g83
g64
NtRp4019
(dp4020
g67
(dp4021
g87
g88
ssg76
g4015
sg69
(lp4022
S'keywords'
p4023
asbag62
(g83
g64
NtRp4024
(dp4025
g67
(dp4026
g94
g95
ssg76
g4015
sg69
(lp4027
S':'
asbag62
(g83
g64
NtRp4028
(dp4029
g67
(dp4030
sg76
g4015
sg69
(lp4031
g62
(g63
g64
NtRp4032
(dp4033
g67
(dp4034
g75
I4
ssg76
g4028
sg69
(lp4035
S'web2py, python, framework'
p4036
asbasbasbasbasbasbasbag62
(g78
g64
NtRp4037
(dp4038
g67
(dp4039
sg76
g2777
sg69
(lp4040
g62
(g83
g64
NtRp4041
(dp4042
g67
(dp4043
g87
g88
ssg76
g4037
sg69
(lp4044
S'postprocessing'
p4045
asbag62
(g83
g64
NtRp4046
(dp4047
g67
(dp4048
g94
g95
ssg76
g4037
sg69
(lp4049
S':'
asbag62
(g83
g64
NtRp4050
(dp4051
g67
(dp4052
sg76
g4037
sg69
(lp4053
g62
(g63
g64
NtRp4054
(dp4055
g67
(dp4056
g75
I5
ssg76
g4050
sg69
(lp4057
g62
(g71
g64
NtRp4058
(dp4059
g67
(dp4060
g75
I4
ssg76
Nsg69
(lp4061
sbasbasbasbag62
(g78
g64
NtRp4062
(dp4063
g67
(dp4064
sg76
g2777
sg69
(lp4065
g62
(g83
g64
NtRp4066
(dp4067
g67
(dp4068
g87
g88
ssg76
g4062
sg69
(lp4069
S'session_filename'
p4070
asbag62
(g83
g64
NtRp4071
(dp4072
g67
(dp4073
g94
g95
ssg76
g4062
sg69
(lp4074
S':'
asbag62
(g83
g64
NtRp4075
(dp4076
g67
(dp4077
sg76
g4062
sg69
(lp4078
g62
(g63
g64
NtRp4079
(dp4080
g67
(dp4081
g75
I5
ssg76
g4075
sg69
(lp4082
S'/home/prateek/web2py/applications/phyloShiny/sessions/127.0.0.1-5381b33d-6c0a-4e28-9979-fb5a675b7a9d'
p4083
asbasbasbag62
(g78
g64
NtRp4084
(dp4085
g67
(dp4086
sg76
g2777
sg69
(lp4087
g62
(g83
g64
NtRp4088
(dp4089
g67
(dp4090
g87
g88
ssg76
g4084
sg69
(lp4091
S'session_id'
p4092
asbag62
(g83
g64
NtRp4093
(dp4094
g67
(dp4095
g94
g95
ssg76
g4084
sg69
(lp4096
S':'
asbag62
(g83
g64
NtRp4097
(dp4098
g67
(dp4099
sg76
g4084
sg69
(lp4100
g62
(g63
g64
NtRp4101
(dp4102
g67
(dp4103
g75
I5
ssg76
g4097
sg69
(lp4104
S'127.0.0.1-5381b33d-6c0a-4e28-9979-fb5a675b7a9d'
p4105
asbasbasbag62
(g78
g64
NtRp4106
(dp4107
g67
(dp4108
sg76
g2777
sg69
(lp4109
g62
(g83
g64
NtRp4110
(dp4111
g67
(dp4112
g87
g88
ssg76
g4106
sg69
(lp4113
S'session_id_name'
p4114
asbag62
(g83
g64
NtRp4115
(dp4116
g67
(dp4117
g94
g95
ssg76
g4106
sg69
(lp4118
S':'
asbag62
(g83
g64
NtRp4119
(dp4120
g67
(dp4121
sg76
g4106
sg69
(lp4122
g62
(g63
g64
NtRp4123
(dp4124
g67
(dp4125
g75
I5
ssg76
g4119
sg69
(lp4126
g2834
asbasbasbag62
(g78
g64
NtRp4127
(dp4128
g67
(dp4129
sg76
g2777
sg69
(lp4130
g62
(g83
g64
NtRp4131
(dp4132
g67
(dp4133
g87
g88
ssg76
g4127
sg69
(lp4134
S'session_new'
p4135
asbag62
(g83
g64
NtRp4136
(dp4137
g67
(dp4138
g94
g95
ssg76
g4127
sg69
(lp4139
S':'
asbag62
(g83
g64
NtRp4140
(dp4141
g67
(dp4142
sg76
g4127
sg69
(lp4143
g62
(g63
g64
NtRp4144
(dp4145
g67
(dp4146
g75
I5
ssg76
g4140
sg69
(lp4147
g105
asbasbasbag62
(g78
g64
NtRp4148
(dp4149
g67
(dp4150
sg76
g2777
sg69
(lp4151
g62
(g83
g64
NtRp4152
(dp4153
g67
(dp4154
g87
g88
ssg76
g4148
sg69
(lp4155
S'status'
p4156
asbag62
(g83
g64
NtRp4157
(dp4158
g67
(dp4159
g94
g95
ssg76
g4148
sg69
(lp4160
S':'
asbag62
(g83
g64
NtRp4161
(dp4162
g67
(dp4163
sg76
g4148
sg69
(lp4164
g62
(g63
g64
NtRp4165
(dp4166
g67
(dp4167
g75
I5
ssg76
g4161
sg69
(lp4168
S'200'
p4169
asbasbasbag62
(g78
g64
NtRp4170
(dp4171
g67
(dp4172
sg76
g2777
sg69
(lp4173
g62
(g83
g64
NtRp4174
(dp4175
g67
(dp4176
g87
g88
ssg76
g4170
sg69
(lp4177
S'subtitle'
p4178
asbag62
(g83
g64
NtRp4179
(dp4180
g67
(dp4181
g94
g95
ssg76
g4170
sg69
(lp4182
S':'
asbag62
(g83
g64
NtRp4183
(dp4184
g67
(dp4185
sg76
g4170
sg69
(lp4186
g62
(g63
g64
NtRp4187
(dp4188
g67
(dp4189
g75
I5
ssg76
g4183
sg69
(lp4190
g3282
(S's\r\x00\x00\x00customize me!'
tRp4191
asbasbasbag62
(g78
g64
NtRp4192
(dp4193
g67
(dp4194
sg76
g2777
sg69
(lp4195
g62
(g83
g64
NtRp4196
(dp4197
g67
(dp4198
g87
g88
ssg76
g4192
sg69
(lp4199
S'title'
p4200
asbag62
(g83
g64
NtRp4201
(dp4202
g67
(dp4203
g94
g95
ssg76
g4192
sg69
(lp4204
S':'
asbag62
(g83
g64
NtRp4205
(dp4206
g67
(dp4207
sg76
g4192
sg69
(lp4208
g62
(g63
g64
NtRp4209
(dp4210
g67
(dp4211
g75
I5
ssg76
g4205
sg69
(lp4212
S'Phyloshiny'
p4213
asbasbasbag62
(g78
g64
NtRp4214
(dp4215
g67
(dp4216
sg76
g2777
sg69
(lp4217
g62
(g83
g64
NtRp4218
(dp4219
g67
(dp4220
g87
g88
ssg76
g4214
sg69
(lp4221
g2000
asbag62
(g83
g64
NtRp4222
(dp4223
g67
(dp4224
g94
g95
ssg76
g4214
sg69
(lp4225
S':'
asbag62
(g83
g64
NtRp4226
(dp4227
g67
(dp4228
sg76
g4214
sg69
(lp4229
g62
(g63
g64
NtRp4230
(dp4231
g67
(dp4232
g75
I5
ssg76
g4226
sg69
(lp4233
g2013
asbasbasbag62
(g78
g64
NtRp4234
(dp4235
g67
(dp4236
sg76
g2777
sg69
(lp4237
g62
(g83
g64
NtRp4238
(dp4239
g67
(dp4240
g87
g88
ssg76
g4234
sg69
(lp4241
S'view'
p4242
asbag62
(g83
g64
NtRp4243
(dp4244
g67
(dp4245
g94
g95
ssg76
g4234
sg69
(lp4246
S':'
asbag62
(g83
g64
NtRp4247
(dp4248
g67
(dp4249
sg76
g4234
sg69
(lp4250
g62
(g63
g64
NtRp4251
(dp4252
g67
(dp4253
g75
I5
ssg76
g4247
sg69
(lp4254
S'reconciliotastic/getSpeciesList.html'
p4255
asbasbasbasbasbsS'locals'
p4256
(dp4257
S'absoluteFileName'
p4258
S"'/home/prateek/web2py/applications/phyloShiny/sta...ata/demo_Mammal_Hemoglobin/input_genetree.nwk.txt'"
p4259
sS'shellCall'
p4260
S"'java -Xmx1024m -cp /home/prateek/web2py/applicat...ata/demo_Mammal_Hemoglobin/input_genetree.nwk.txt'"
p4261
sS'filePrefix'
p4262
S"'/home/prateek/web2py/applications/phyloShiny/sta...le_data/demo_Mammal_Hemoglobin/input_genetree.nwk'"
p4263
sssS'traceback'
p4264
S'Traceback (most recent call last):\n  File "/usr/lib/pymodules/python2.7/gluon/restricted.py", line 204, in restricted\n    exec ccode in environment\n  File "/home/prateek/web2py/applications/phyloShiny/controllers/reconciliotastic.py", line 169, in <module>\n  File "/usr/lib/pymodules/python2.7/gluon/globals.py", line 172, in <lambda>\n    self._caller = lambda f: f()\n  File "/home/prateek/web2py/applications/phyloShiny/controllers/reconciliotastic.py", line 86, in getSpeciesList\n    removedNodes = [l.strip() for l in open(filePrefix+\'_removed_nodes.txt\').readlines()]\nIOError: [Errno 2] No such file or directory: \'/home/prateek/web2py/applications/phyloShiny/static/sample_data/demo_Mammal_Hemoglobin/input_genetree.nwk_removed_nodes.txt\'\n'
p4265
s.