(dp1
S'output'
p2
S"<class 'urllib2.URLError'> <urlopen error [Errno 22] Invalid argument>"
p3
sS'layer'
p4
S'/home/prateek/web2py/applications/phyloShiny/controllers/reconciliotastic.py'
p5
sS'code'
p6
S'# -*- coding: utf-8 -*-\n# this file is released under public domain and you can use without limitations\n\n#########################################################################\n## This is a sample controller\n## - index is the default action of any application\n## - user is required for authentication and authorization\n## - download is for downloading files uploaded in the db (does streaming)\n## - call exposes all registered services (none by default)\n#########################################################################\nimport os\nimport socket\nimport urllib2\nfrom gluon import *\nfrom Bio import Phylo\nfrom Bio.Phylo import BaseTree , PhyloXML\t\t\t\t\t\t\t#import biopython modules as per requirement \nfrom Bio.Phylo.BaseTree import TreeMixin\n\ndef index():\n    rootFolder = current.request.folder\n    folders = os.listdir(rootFolder+\'static/sample_data/\')\n\n    # Go through the subfolders within sample_data, only keep folders\n    # that match \'demo\'\n    folders = [x.split(\'_\',1)[1] for x in folders if x.split(\'_\')[0] == \'demo\']\n    folderLabels = [x.replace(\'_\', \' \') for x in folders]\n\n    # Return a list of tuples, like [ [\'Mammal_Hemoglobin\', \'Mammal Hemoglobin\'] , ... ]\n    # This lets us have nice display names in the <select> element in the view.\n    foldersAndLabels = zip(folders, folderLabels)\n    return dict(foldersAndLabels=foldersAndLabels)\n\ndef getFileName():\n    # Returns the absolute filename for the "input" gene tree\n    # file. Uses the treeFileName request parameter, as that\'s our\n    # main state-tracking value passed between the view and controller\n    # between each step.\n    rootFolder = current.request.folder\n    absoluteFileName = rootFolder+current.request.vars.treeFileName\n    return absoluteFileName\n\ndef getRelativeWebPath(suffix):\n    # Currently a no-op.\n    return suffix\n\ndef visualize():\n    # Visualize controller. Does some preprocessing before generating\n    # the HTML for viewing a given tree.\n\n    # Takes in the \'treeName\' and \'file\' params, and creates the URL\n    # which can be used to access / download the given tree file. This\n    # is only really necessary because the <applet> tag requires a\n    # parameter, which is then sent to Archaeopteryx, that requires\n    # the *entire* URL of the tree to load. With a non-applet based\n    # visualization this wouldn\'t be an issue.\n    treeFile = current.request.vars.treeName\n    suffix = current.request.vars.file\n\n    # Use the request http_host.\n    hostname = current.request.env.http_host\n\n    # Toggle to phylotastic URL if we detect a NESCENT socket host.\n    socket_hostname = socket.gethostname()\n    if \'phylotastic\' in socket_hostname.lower():\n        hostname = \'phylotastic.nescent.org\'\n\n    treeUrl = URL(\'static\', \'sample_data/demo_\'+treeFile+\'/input_genetree.nwk\'+suffix,\n                 scheme=\'http\', host=hostname)\n\n    return dict(treeUrl=treeUrl,\n                header=current.request.vars.header)\n\ndef getSpeciesList():\n    # Absolute file name of the input tree file.\n    absoluteFileName = getFileName()\n    # "Prefix", i.e. the input tree file without the ending\n    # \'.txt\'. This is used as the prefix for all generated output\n    # files\n    filePrefix = absoluteFileName[:-4]\n\n    shellCall = \'java -Xmx1024m -cp \'\n    shellCall += current.request.folder+\'static/lib/forester.jar \'\n    shellCall += \'org.forester.application.gene_tree_preprocess \'\n    shellCall += absoluteFileName\n    os.system(shellCall)\n\n    removedNodes = [l.strip() for l in open(filePrefix+\'_removed_nodes.txt\').readlines()]\n    keptNodes = [l.strip() for l in open(filePrefix+\'_species_present.txt\').readlines()]\n    \n    geneTreeFile = getRelativeWebPath(\'_preprocessed_gene_tree.phylo.xml\')\n\n    # Note: we always return the \'vizFile\' and \'vizLabel\' data values\n    # from each Ajax call, as they\'re used consistently by the\n    # front-end to generate visualization links.\n    return response.json( dict(vizFile = geneTreeFile,\n                               vizLabel = "Input Gene Tree",\n                               removedNodes = removedNodes, \n                               keptNodes = keptNodes))\n\ndef getPhylotasticTree():\n    absoluteFileName = getFileName()\n    filePrefix = absoluteFileName[:-4]\n\n    # Load the kept nodes and create the comma-delimited species\n    # string for sending to PTastic\n    speciesList = [l.strip() for l in open(filePrefix+\'_species_present.txt\').readlines()]\n    # Need underscores instead of spaces\n    speciesList = [x.replace(\' \', \'_\') for x in speciesList]\n    speciesString = \',\'.join(speciesList)\n\n    phylotasticUrlBase = \'http://phylotastic-wg.nescent.org/script/phylotastic.cgi?species=\'\n    speciesTreeUrl = phylotasticUrlBase+speciesString+\'&tree=mammals&format=newick\'\n    conn = urllib2.urlopen(speciesTreeUrl)\n    speciesTreeString = conn.read()\n    speciesTreeString = speciesTreeString.strip()\n\n    speciesTreeFilename = filePrefix+\'_species_tree.txt\'\n    open(speciesTreeFilename,\'w\').write(speciesTreeString)\n\n    # TODO: It would be nice here to count the number of species in\n    # the returned species tree, so we can let users know if PTastic\n    # found everything we searched for. This would require parsing the\n    # Newick and counting nodes, probably using something like\n    # BioPython rather than making an external call to Java again.\n    \n    count=0\t\t\t\t\t\t\t\t\t#global counter to keep the count of the nodes\n    tree = Phylo.read(speciesTreeFilename, \'newick\')\t\t\t\t#tree reads the species labels in newick format\n##    for node in tree.get_terminals(): \t\t\t\t\t#loop to traverse through these nodes\n##\t    count+=1\t\t\t\t\t\t\t\t\t#updating counter value\n##    count=tree.count_terminals;\n##    return count\t\t\t\t\t\t\t\t#counter value return\n    got_nodes=tree.count_terminals;\n    #no. of non-terminal nodes received in got_nodes.Now can be printed or checked with user input value to test if all species received.\n    #then further we can maintain a textview in the frontend indicating the number of nodes(i.e. the number of species)\n\n    speciesTreeWebFile = getRelativeWebPath(\'_species_tree.txt\')\n\n    return response.json( dict(vizFile = speciesTreeWebFile,\n                               vizLabel = "Phylotastic Species Tree",\n\t\t\t       got_nodes=got_nodes\n                               ) )\n\n##def countnodes():\n\n    #setting a counter for counting nodes i.e.number of species in the species newick tree.\n    #I have referenced the link http://biopython.org/DIST/docs/tutorial/Tutorial.html#htoc182 to know the get_terminals() function\n\n##    count=0\t\t\t\t\t\t\t\t\t#global counter to keep the count of the nodes\n##    tree = Phylo.read(speciesTreeFilename, \'newick\')\t\t\t\t#tree reads the species labels in newick format\n##    for node in tree.get_terminals(): \t\t\t\t\t#loop to traverse through these nodes\n##\t    count+=1\t\t\t\t\t\t\t\t\t#updating counter value\n##    count=tree.count_terminals;\n##    return count\t\t\t\t\t\t\t\t#counter value return\n\n\ndef reconcileTrees():\n    absoluteFileName = getFileName()\n    filePrefix = absoluteFileName[:-4]\n\n    geneTreeFile = filePrefix+\'_preprocessed_gene_tree.phylo.xml\'\n    speciesTreeFile = filePrefix+\'_species_tree.txt\'\n\n    shellCall = \'java -Xmx1024m -cp \'\n    shellCall += current.request.folder+\'static/lib/forester.jar \'\n    shellCall += \'org.forester.application.gsdi \'\n    shellCall += \'-m -q \'\n    shellCall += geneTreeFile\n    shellCall += \' \'+speciesTreeFile\n\n    os.system(shellCall)\n    \n    reconciledTreeWebFile = getRelativeWebPath(\'_preprocessed_gene_tree.phylo_gsdi_out.phylo.xml\')\n    \n    return response.json( dict(vizFile = reconciledTreeWebFile,\n                               vizLabel = "Reconciled Tree (red=duplication, green=speciation)"\n                               ) )\n\nresponse._vars=response._caller(getPhylotasticTree)\n'
p7
sS'snapshot'
p8
(dp9
S'exception'
p10
(dp11
S'__module__'
p12
S"'urllib2'"
p13
sS'__getslice__'
p14
S"<method-wrapper '__getslice__' of URLError object>"
p15
sS'__str__'
p16
S"<bound method URLError.__str__ of URLError(error(22, 'Invalid argument'),)>"
p17
sS'__reduce__'
p18
S'<built-in method __reduce__ of URLError object>'
p19
sS'__dict__'
p20
S"{'reason': error(22, 'Invalid argument')}"
p21
sS'__sizeof__'
p22
S'<built-in method __sizeof__ of URLError object>'
p23
sS'__weakref__'
p24
S'None'
p25
sS'__init__'
p26
S"<bound method URLError.__init__ of URLError(error(22, 'Invalid argument'),)>"
p27
sS'__setattr__'
p28
S"<method-wrapper '__setattr__' of URLError object>"
p29
sS'__reduce_ex__'
p30
S'<built-in method __reduce_ex__ of URLError object>'
p31
sS'__new__'
p32
S'<built-in method __new__ of type object>'
p33
sS'errno'
p34
S'None'
p35
sS'__format__'
p36
S'<built-in method __format__ of URLError object>'
p37
sS'__class__'
p38
S"<class 'urllib2.URLError'>"
p39
sS'filename'
p40
S'None'
p41
sS'__doc__'
p42
S'None'
p43
sS'__getitem__'
p44
S"<method-wrapper '__getitem__' of URLError object>"
p45
sS'__setstate__'
p46
S'<built-in method __setstate__ of URLError object>'
p47
sS'__getattribute__'
p48
S"<method-wrapper '__getattribute__' of URLError object>"
p49
sS'args'
p50
S"(error(22, 'Invalid argument'),)"
p51
sS'reason'
p52
S"error(22, 'Invalid argument')"
p53
sS'__subclasshook__'
p54
S'<built-in method __subclasshook__ of type object>'
p55
sS'__unicode__'
p56
S'<built-in method __unicode__ of URLError object>'
p57
sS'strerror'
p58
S'None'
p59
sS'__delattr__'
p60
S"<method-wrapper '__delattr__' of URLError object>"
p61
sS'__repr__'
p62
S"<method-wrapper '__repr__' of URLError object>"
p63
sS'__hash__'
p64
S"<method-wrapper '__hash__' of URLError object>"
p65
ssS'evalue'
p66
S'<urlopen error [Errno 22] Invalid argument>'
p67
sS'request'
p68
ccopy_reg
_reconstructor
p69
(cgluon.html
BEAUTIFY
p70
c__builtin__
object
p71
NtRp72
(dp73
S'attributes'
p74
(dp75
sS'components'
p76
(lp77
g69
(cgluon.html
TABLE
p78
g71
NtRp79
(dp80
g74
(dp81
S'level'
p82
I5
ssS'parent'
p83
Nsg76
(lp84
g69
(cgluon.html
TR
p85
g71
NtRp86
(dp87
g74
(dp88
sg83
g79
sg76
(lp89
g69
(cgluon.html
TD
p90
g71
NtRp91
(dp92
g74
(dp93
S'_style'
p94
S'font-weight:bold;vertical-align:top'
p95
ssg83
g86
sg76
(lp96
S'ajax'
p97
asbag69
(g90
g71
NtRp98
(dp99
g74
(dp100
S'_valign'
p101
S'top'
p102
ssg83
g86
sg76
(lp103
S':'
asbag69
(g90
g71
NtRp104
(dp105
g74
(dp106
sg83
g86
sg76
(lp107
g69
(g70
g71
NtRp108
(dp109
g74
(dp110
g82
I5
ssg83
g104
sg76
(lp111
S'True'
p112
asbasbasbag69
(g85
g71
NtRp113
(dp114
g74
(dp115
sg83
g79
sg76
(lp116
g69
(g90
g71
NtRp117
(dp118
g74
(dp119
g94
g95
ssg83
g113
sg76
(lp120
S'application'
p121
asbag69
(g90
g71
NtRp122
(dp123
g74
(dp124
g101
g102
ssg83
g113
sg76
(lp125
S':'
asbag69
(g90
g71
NtRp126
(dp127
g74
(dp128
sg83
g113
sg76
(lp129
g69
(g70
g71
NtRp130
(dp131
g74
(dp132
g82
I5
ssg83
g126
sg76
(lp133
S'phyloShiny'
p134
asbasbasbag69
(g85
g71
NtRp135
(dp136
g74
(dp137
sg83
g79
sg76
(lp138
g69
(g90
g71
NtRp139
(dp140
g74
(dp141
g94
g95
ssg83
g135
sg76
(lp142
g50
asbag69
(g90
g71
NtRp143
(dp144
g74
(dp145
g101
g102
ssg83
g135
sg76
(lp146
S':'
asbag69
(g90
g71
NtRp147
(dp148
g74
(dp149
sg83
g135
sg76
(lp150
g69
(g70
g71
NtRp151
(dp152
g74
(dp153
g82
I5
ssg83
g147
sg76
(lp154
g69
(g78
g71
NtRp155
(dp156
g74
(dp157
g82
I4
ssg83
Nsg76
(lp158
sbasbasbasbag69
(g85
g71
NtRp159
(dp160
g74
(dp161
sg83
g79
sg76
(lp162
g69
(g90
g71
NtRp163
(dp164
g74
(dp165
g94
g95
ssg83
g159
sg76
(lp166
S'body'
p167
asbag69
(g90
g71
NtRp168
(dp169
g74
(dp170
g101
g102
ssg83
g159
sg76
(lp171
S':'
asbag69
(g90
g71
NtRp172
(dp173
g74
(dp174
sg83
g159
sg76
(lp175
g69
(g70
g71
NtRp176
(dp177
g74
(dp178
g82
I5
ssg83
g172
sg76
(lp179
S'<cStringIO.StringO object at 0xb3dd60e0>'
p180
asbasbasbag69
(g85
g71
NtRp181
(dp182
g74
(dp183
sg83
g79
sg76
(lp184
g69
(g90
g71
NtRp185
(dp186
g74
(dp187
g94
g95
ssg83
g181
sg76
(lp188
S'client'
p189
asbag69
(g90
g71
NtRp190
(dp191
g74
(dp192
g101
g102
ssg83
g181
sg76
(lp193
S':'
asbag69
(g90
g71
NtRp194
(dp195
g74
(dp196
sg83
g181
sg76
(lp197
g69
(g70
g71
NtRp198
(dp199
g74
(dp200
g82
I5
ssg83
g194
sg76
(lp201
S'127.0.0.1'
p202
asbasbasbag69
(g85
g71
NtRp203
(dp204
g74
(dp205
sg83
g79
sg76
(lp206
g69
(g90
g71
NtRp207
(dp208
g74
(dp209
g94
g95
ssg83
g203
sg76
(lp210
S'controller'
p211
asbag69
(g90
g71
NtRp212
(dp213
g74
(dp214
g101
g102
ssg83
g203
sg76
(lp215
S':'
asbag69
(g90
g71
NtRp216
(dp217
g74
(dp218
sg83
g203
sg76
(lp219
g69
(g70
g71
NtRp220
(dp221
g74
(dp222
g82
I5
ssg83
g216
sg76
(lp223
S'reconciliotastic'
p224
asbasbasbag69
(g85
g71
NtRp225
(dp226
g74
(dp227
sg83
g79
sg76
(lp228
g69
(g90
g71
NtRp229
(dp230
g74
(dp231
g94
g95
ssg83
g225
sg76
(lp232
S'cookies'
p233
asbag69
(g90
g71
NtRp234
(dp235
g74
(dp236
g101
g102
ssg83
g225
sg76
(lp237
S':'
asbag69
(g90
g71
NtRp238
(dp239
g74
(dp240
sg83
g225
sg76
(lp241
g69
(g70
g71
NtRp242
(dp243
g74
(dp244
g82
I5
ssg83
g238
sg76
(lp245
g69
(g78
g71
NtRp246
(dp247
g74
(dp248
g82
I4
ssg83
Nsg76
(lp249
g69
(g85
g71
NtRp250
(dp251
g74
(dp252
sg83
g246
sg76
(lp253
g69
(g90
g71
NtRp254
(dp255
g74
(dp256
g94
g95
ssg83
g250
sg76
(lp257
S'session_id_admin'
p258
asbag69
(g90
g71
NtRp259
(dp260
g74
(dp261
g101
g102
ssg83
g250
sg76
(lp262
S':'
asbag69
(g90
g71
NtRp263
(dp264
g74
(dp265
sg83
g250
sg76
(lp266
g69
(g70
g71
NtRp267
(dp268
g74
(dp269
g82
I4
ssg83
g263
sg76
(lp270
g69
(g78
g71
NtRp271
(dp272
g74
(dp273
g82
I3
ssg83
Nsg76
(lp274
g69
(g85
g71
NtRp275
(dp276
g74
(dp277
sg83
g271
sg76
(lp278
g69
(g90
g71
NtRp279
(dp280
g74
(dp281
g94
g95
ssg83
g275
sg76
(lp282
S'comment'
p283
asbag69
(g90
g71
NtRp284
(dp285
g74
(dp286
g101
g102
ssg83
g275
sg76
(lp287
S':'
asbag69
(g90
g71
NtRp288
(dp289
g74
(dp290
sg83
g275
sg76
(lp291
g69
(g70
g71
NtRp292
(dp293
g74
(dp294
g82
I3
ssg83
g288
sg76
(lp295
S''
asbasbasbag69
(g85
g71
NtRp296
(dp297
g74
(dp298
sg83
g271
sg76
(lp299
g69
(g90
g71
NtRp300
(dp301
g74
(dp302
g94
g95
ssg83
g296
sg76
(lp303
S'domain'
p304
asbag69
(g90
g71
NtRp305
(dp306
g74
(dp307
g101
g102
ssg83
g296
sg76
(lp308
S':'
asbag69
(g90
g71
NtRp309
(dp310
g74
(dp311
sg83
g296
sg76
(lp312
g69
(g70
g71
NtRp313
(dp314
g74
(dp315
g82
I3
ssg83
g309
sg76
(lp316
S''
asbasbasbag69
(g85
g71
NtRp317
(dp318
g74
(dp319
sg83
g271
sg76
(lp320
g69
(g90
g71
NtRp321
(dp322
g74
(dp323
g94
g95
ssg83
g317
sg76
(lp324
S'expires'
p325
asbag69
(g90
g71
NtRp326
(dp327
g74
(dp328
g101
g102
ssg83
g317
sg76
(lp329
S':'
asbag69
(g90
g71
NtRp330
(dp331
g74
(dp332
sg83
g317
sg76
(lp333
g69
(g70
g71
NtRp334
(dp335
g74
(dp336
g82
I3
ssg83
g330
sg76
(lp337
S''
asbasbasbag69
(g85
g71
NtRp338
(dp339
g74
(dp340
sg83
g271
sg76
(lp341
g69
(g90
g71
NtRp342
(dp343
g74
(dp344
g94
g95
ssg83
g338
sg76
(lp345
S'httponly'
p346
asbag69
(g90
g71
NtRp347
(dp348
g74
(dp349
g101
g102
ssg83
g338
sg76
(lp350
S':'
asbag69
(g90
g71
NtRp351
(dp352
g74
(dp353
sg83
g338
sg76
(lp354
g69
(g70
g71
NtRp355
(dp356
g74
(dp357
g82
I3
ssg83
g351
sg76
(lp358
S''
asbasbasbag69
(g85
g71
NtRp359
(dp360
g74
(dp361
sg83
g271
sg76
(lp362
g69
(g90
g71
NtRp363
(dp364
g74
(dp365
g94
g95
ssg83
g359
sg76
(lp366
S'max-age'
p367
asbag69
(g90
g71
NtRp368
(dp369
g74
(dp370
g101
g102
ssg83
g359
sg76
(lp371
S':'
asbag69
(g90
g71
NtRp372
(dp373
g74
(dp374
sg83
g359
sg76
(lp375
g69
(g70
g71
NtRp376
(dp377
g74
(dp378
g82
I3
ssg83
g372
sg76
(lp379
S''
asbasbasbag69
(g85
g71
NtRp380
(dp381
g74
(dp382
sg83
g271
sg76
(lp383
g69
(g90
g71
NtRp384
(dp385
g74
(dp386
g94
g95
ssg83
g380
sg76
(lp387
S'path'
p388
asbag69
(g90
g71
NtRp389
(dp390
g74
(dp391
g101
g102
ssg83
g380
sg76
(lp392
S':'
asbag69
(g90
g71
NtRp393
(dp394
g74
(dp395
sg83
g380
sg76
(lp396
g69
(g70
g71
NtRp397
(dp398
g74
(dp399
g82
I3
ssg83
g393
sg76
(lp400
S''
asbasbasbag69
(g85
g71
NtRp401
(dp402
g74
(dp403
sg83
g271
sg76
(lp404
g69
(g90
g71
NtRp405
(dp406
g74
(dp407
g94
g95
ssg83
g401
sg76
(lp408
S'secure'
p409
asbag69
(g90
g71
NtRp410
(dp411
g74
(dp412
g101
g102
ssg83
g401
sg76
(lp413
S':'
asbag69
(g90
g71
NtRp414
(dp415
g74
(dp416
sg83
g401
sg76
(lp417
g69
(g70
g71
NtRp418
(dp419
g74
(dp420
g82
I3
ssg83
g414
sg76
(lp421
S''
asbasbasbag69
(g85
g71
NtRp422
(dp423
g74
(dp424
sg83
g271
sg76
(lp425
g69
(g90
g71
NtRp426
(dp427
g74
(dp428
g94
g95
ssg83
g422
sg76
(lp429
S'version'
p430
asbag69
(g90
g71
NtRp431
(dp432
g74
(dp433
g101
g102
ssg83
g422
sg76
(lp434
S':'
asbag69
(g90
g71
NtRp435
(dp436
g74
(dp437
sg83
g422
sg76
(lp438
g69
(g70
g71
NtRp439
(dp440
g74
(dp441
g82
I3
ssg83
g435
sg76
(lp442
S''
asbasbasbasbasbasbasbag69
(g85
g71
NtRp443
(dp444
g74
(dp445
sg83
g246
sg76
(lp446
g69
(g90
g71
NtRp447
(dp448
g74
(dp449
g94
g95
ssg83
g443
sg76
(lp450
S'session_id_phyloshiny'
p451
asbag69
(g90
g71
NtRp452
(dp453
g74
(dp454
g101
g102
ssg83
g443
sg76
(lp455
S':'
asbag69
(g90
g71
NtRp456
(dp457
g74
(dp458
sg83
g443
sg76
(lp459
g69
(g70
g71
NtRp460
(dp461
g74
(dp462
g82
I4
ssg83
g456
sg76
(lp463
g69
(g78
g71
NtRp464
(dp465
g74
(dp466
g82
I3
ssg83
Nsg76
(lp467
g69
(g85
g71
NtRp468
(dp469
g74
(dp470
sg83
g464
sg76
(lp471
g69
(g90
g71
NtRp472
(dp473
g74
(dp474
g94
g95
ssg83
g468
sg76
(lp475
g283
asbag69
(g90
g71
NtRp476
(dp477
g74
(dp478
g101
g102
ssg83
g468
sg76
(lp479
S':'
asbag69
(g90
g71
NtRp480
(dp481
g74
(dp482
sg83
g468
sg76
(lp483
g69
(g70
g71
NtRp484
(dp485
g74
(dp486
g82
I3
ssg83
g480
sg76
(lp487
S''
asbasbasbag69
(g85
g71
NtRp488
(dp489
g74
(dp490
sg83
g464
sg76
(lp491
g69
(g90
g71
NtRp492
(dp493
g74
(dp494
g94
g95
ssg83
g488
sg76
(lp495
g304
asbag69
(g90
g71
NtRp496
(dp497
g74
(dp498
g101
g102
ssg83
g488
sg76
(lp499
S':'
asbag69
(g90
g71
NtRp500
(dp501
g74
(dp502
sg83
g488
sg76
(lp503
g69
(g70
g71
NtRp504
(dp505
g74
(dp506
g82
I3
ssg83
g500
sg76
(lp507
S''
asbasbasbag69
(g85
g71
NtRp508
(dp509
g74
(dp510
sg83
g464
sg76
(lp511
g69
(g90
g71
NtRp512
(dp513
g74
(dp514
g94
g95
ssg83
g508
sg76
(lp515
g325
asbag69
(g90
g71
NtRp516
(dp517
g74
(dp518
g101
g102
ssg83
g508
sg76
(lp519
S':'
asbag69
(g90
g71
NtRp520
(dp521
g74
(dp522
sg83
g508
sg76
(lp523
g69
(g70
g71
NtRp524
(dp525
g74
(dp526
g82
I3
ssg83
g520
sg76
(lp527
S''
asbasbasbag69
(g85
g71
NtRp528
(dp529
g74
(dp530
sg83
g464
sg76
(lp531
g69
(g90
g71
NtRp532
(dp533
g74
(dp534
g94
g95
ssg83
g528
sg76
(lp535
g346
asbag69
(g90
g71
NtRp536
(dp537
g74
(dp538
g101
g102
ssg83
g528
sg76
(lp539
S':'
asbag69
(g90
g71
NtRp540
(dp541
g74
(dp542
sg83
g528
sg76
(lp543
g69
(g70
g71
NtRp544
(dp545
g74
(dp546
g82
I3
ssg83
g540
sg76
(lp547
S''
asbasbasbag69
(g85
g71
NtRp548
(dp549
g74
(dp550
sg83
g464
sg76
(lp551
g69
(g90
g71
NtRp552
(dp553
g74
(dp554
g94
g95
ssg83
g548
sg76
(lp555
g367
asbag69
(g90
g71
NtRp556
(dp557
g74
(dp558
g101
g102
ssg83
g548
sg76
(lp559
S':'
asbag69
(g90
g71
NtRp560
(dp561
g74
(dp562
sg83
g548
sg76
(lp563
g69
(g70
g71
NtRp564
(dp565
g74
(dp566
g82
I3
ssg83
g560
sg76
(lp567
S''
asbasbasbag69
(g85
g71
NtRp568
(dp569
g74
(dp570
sg83
g464
sg76
(lp571
g69
(g90
g71
NtRp572
(dp573
g74
(dp574
g94
g95
ssg83
g568
sg76
(lp575
g388
asbag69
(g90
g71
NtRp576
(dp577
g74
(dp578
g101
g102
ssg83
g568
sg76
(lp579
S':'
asbag69
(g90
g71
NtRp580
(dp581
g74
(dp582
sg83
g568
sg76
(lp583
g69
(g70
g71
NtRp584
(dp585
g74
(dp586
g82
I3
ssg83
g580
sg76
(lp587
S''
asbasbasbag69
(g85
g71
NtRp588
(dp589
g74
(dp590
sg83
g464
sg76
(lp591
g69
(g90
g71
NtRp592
(dp593
g74
(dp594
g94
g95
ssg83
g588
sg76
(lp595
g409
asbag69
(g90
g71
NtRp596
(dp597
g74
(dp598
g101
g102
ssg83
g588
sg76
(lp599
S':'
asbag69
(g90
g71
NtRp600
(dp601
g74
(dp602
sg83
g588
sg76
(lp603
g69
(g70
g71
NtRp604
(dp605
g74
(dp606
g82
I3
ssg83
g600
sg76
(lp607
S''
asbasbasbag69
(g85
g71
NtRp608
(dp609
g74
(dp610
sg83
g464
sg76
(lp611
g69
(g90
g71
NtRp612
(dp613
g74
(dp614
g94
g95
ssg83
g608
sg76
(lp615
g430
asbag69
(g90
g71
NtRp616
(dp617
g74
(dp618
g101
g102
ssg83
g608
sg76
(lp619
S':'
asbag69
(g90
g71
NtRp620
(dp621
g74
(dp622
sg83
g608
sg76
(lp623
g69
(g70
g71
NtRp624
(dp625
g74
(dp626
g82
I3
ssg83
g620
sg76
(lp627
S''
asbasbasbasbasbasbasbasbasbasbasbag69
(g85
g71
NtRp628
(dp629
g74
(dp630
sg83
g79
sg76
(lp631
g69
(g90
g71
NtRp632
(dp633
g74
(dp634
g94
g95
ssg83
g628
sg76
(lp635
S'env'
p636
asbag69
(g90
g71
NtRp637
(dp638
g74
(dp639
g101
g102
ssg83
g628
sg76
(lp640
S':'
asbag69
(g90
g71
NtRp641
(dp642
g74
(dp643
sg83
g628
sg76
(lp644
g69
(g70
g71
NtRp645
(dp646
g74
(dp647
g82
I5
ssg83
g641
sg76
(lp648
g69
(g78
g71
NtRp649
(dp650
g74
(dp651
g82
I4
ssg83
Nsg76
(lp652
g69
(g85
g71
NtRp653
(dp654
g74
(dp655
sg83
g649
sg76
(lp656
g69
(g90
g71
NtRp657
(dp658
g74
(dp659
g94
g95
ssg83
g653
sg76
(lp660
S'app_folders'
p661
asbag69
(g90
g71
NtRp662
(dp663
g74
(dp664
g101
g102
ssg83
g653
sg76
(lp665
S':'
asbag69
(g90
g71
NtRp666
(dp667
g74
(dp668
sg83
g653
sg76
(lp669
g69
(g70
g71
NtRp670
(dp671
g74
(dp672
g82
I4
ssg83
g666
sg76
(lp673
S"set(['/home/prateek/web2py/applications/phyloShiny/', '/home/prateek/web2py/applications/welcome/'])"
p674
asbasbasbag69
(g85
g71
NtRp675
(dp676
g74
(dp677
sg83
g649
sg76
(lp678
g69
(g90
g71
NtRp679
(dp680
g74
(dp681
g94
g95
ssg83
g675
sg76
(lp682
S'applications_parent'
p683
asbag69
(g90
g71
NtRp684
(dp685
g74
(dp686
g101
g102
ssg83
g675
sg76
(lp687
S':'
asbag69
(g90
g71
NtRp688
(dp689
g74
(dp690
sg83
g675
sg76
(lp691
g69
(g70
g71
NtRp692
(dp693
g74
(dp694
g82
I4
ssg83
g688
sg76
(lp695
S'/home/prateek/web2py'
p696
asbasbasbag69
(g85
g71
NtRp697
(dp698
g74
(dp699
sg83
g649
sg76
(lp700
g69
(g90
g71
NtRp701
(dp702
g74
(dp703
g94
g95
ssg83
g697
sg76
(lp704
S'cmd_args'
p705
asbag69
(g90
g71
NtRp706
(dp707
g74
(dp708
g101
g102
ssg83
g697
sg76
(lp709
S':'
asbag69
(g90
g71
NtRp710
(dp711
g74
(dp712
sg83
g697
sg76
(lp713
g69
(g70
g71
NtRp714
(dp715
g74
(dp716
g82
I4
ssg83
g710
sg76
(lp717
g69
(g78
g71
NtRp718
(dp719
g74
(dp720
g82
I3
ssg83
Nsg76
(lp721
sbasbasbasbag69
(g85
g71
NtRp722
(dp723
g74
(dp724
sg83
g649
sg76
(lp725
g69
(g90
g71
NtRp726
(dp727
g74
(dp728
g94
g95
ssg83
g722
sg76
(lp729
S'cmd_options'
p730
asbag69
(g90
g71
NtRp731
(dp732
g74
(dp733
g101
g102
ssg83
g722
sg76
(lp734
S':'
asbag69
(g90
g71
NtRp735
(dp736
g74
(dp737
sg83
g722
sg76
(lp738
g69
(g70
g71
NtRp739
(dp740
g74
(dp741
g82
I4
ssg83
g735
sg76
(lp742
S"<Values at 0x90665ec: {'verbose': False, 'ip': '127.0.0.1', 'shutdown_timeout': 5, 'taskbar': False, 'port': 8000, 'maxthreads': None, 'softcron': False, 'server_name': 'prateek-Inspiron-N5110', 'bpython': False, 'nogui': False, 'nocron': False, 'extcron': False, 'debuglevel': 30, 'test': None, 'folder': '/home/prateek/web2py', 'config': '', 'import_models': False, 'winservice': '', 'shell': None, 'run': '', 'log_filename': 'httpserver.log', 'args': [''], 'socket_timeout': 1, 'profiler_filename': None, 'ssl_private_key': '', 'password': '<ask>', 'request_queue_size': 5, 'ssl_certificate': '', 'cronjob': False, 'plain': False, 'quiet': False, 'interfaces': None, 'minthreads': None, 'timeout': 10, 'numthreads': None, 'nobanner': False, 'pid_filename': 'httpserver.pid'}>"
p743
asbasbasbag69
(g85
g71
NtRp744
(dp745
g74
(dp746
sg83
g649
sg76
(lp747
g69
(g90
g71
NtRp748
(dp749
g74
(dp750
g94
g95
ssg83
g744
sg76
(lp751
S'db_sessions'
p752
asbag69
(g90
g71
NtRp753
(dp754
g74
(dp755
g101
g102
ssg83
g744
sg76
(lp756
S':'
asbag69
(g90
g71
NtRp757
(dp758
g74
(dp759
sg83
g744
sg76
(lp760
g69
(g70
g71
NtRp761
(dp762
g74
(dp763
g82
I4
ssg83
g757
sg76
(lp764
S'set([])'
p765
asbasbasbag69
(g85
g71
NtRp766
(dp767
g74
(dp768
sg83
g649
sg76
(lp769
g69
(g90
g71
NtRp770
(dp771
g74
(dp772
g94
g95
ssg83
g766
sg76
(lp773
S'debugging'
p774
asbag69
(g90
g71
NtRp775
(dp776
g74
(dp777
g101
g102
ssg83
g766
sg76
(lp778
S':'
asbag69
(g90
g71
NtRp779
(dp780
g74
(dp781
sg83
g766
sg76
(lp782
g69
(g70
g71
NtRp783
(dp784
g74
(dp785
g82
I4
ssg83
g779
sg76
(lp786
S'False'
p787
asbasbasbag69
(g85
g71
NtRp788
(dp789
g74
(dp790
sg83
g649
sg76
(lp791
g69
(g90
g71
NtRp792
(dp793
g74
(dp794
g94
g95
ssg83
g788
sg76
(lp795
S'gluon_parent'
p796
asbag69
(g90
g71
NtRp797
(dp798
g74
(dp799
g101
g102
ssg83
g788
sg76
(lp800
S':'
asbag69
(g90
g71
NtRp801
(dp802
g74
(dp803
sg83
g788
sg76
(lp804
g69
(g70
g71
NtRp805
(dp806
g74
(dp807
g82
I4
ssg83
g801
sg76
(lp808
S'/usr/share/web2py'
p809
asbasbasbag69
(g85
g71
NtRp810
(dp811
g74
(dp812
sg83
g649
sg76
(lp813
g69
(g90
g71
NtRp814
(dp815
g74
(dp816
g94
g95
ssg83
g810
sg76
(lp817
S'http_accept'
p818
asbag69
(g90
g71
NtRp819
(dp820
g74
(dp821
g101
g102
ssg83
g810
sg76
(lp822
S':'
asbag69
(g90
g71
NtRp823
(dp824
g74
(dp825
sg83
g810
sg76
(lp826
g69
(g70
g71
NtRp827
(dp828
g74
(dp829
g82
I4
ssg83
g823
sg76
(lp830
S'*/*'
p831
asbasbasbag69
(g85
g71
NtRp832
(dp833
g74
(dp834
sg83
g649
sg76
(lp835
g69
(g90
g71
NtRp836
(dp837
g74
(dp838
g94
g95
ssg83
g832
sg76
(lp839
S'http_accept_encoding'
p840
asbag69
(g90
g71
NtRp841
(dp842
g74
(dp843
g101
g102
ssg83
g832
sg76
(lp844
S':'
asbag69
(g90
g71
NtRp845
(dp846
g74
(dp847
sg83
g832
sg76
(lp848
g69
(g70
g71
NtRp849
(dp850
g74
(dp851
g82
I4
ssg83
g845
sg76
(lp852
S'gzip, deflate'
p853
asbasbasbag69
(g85
g71
NtRp854
(dp855
g74
(dp856
sg83
g649
sg76
(lp857
g69
(g90
g71
NtRp858
(dp859
g74
(dp860
g94
g95
ssg83
g854
sg76
(lp861
S'http_accept_language'
p862
asbag69
(g90
g71
NtRp863
(dp864
g74
(dp865
g101
g102
ssg83
g854
sg76
(lp866
S':'
asbag69
(g90
g71
NtRp867
(dp868
g74
(dp869
sg83
g854
sg76
(lp870
g69
(g70
g71
NtRp871
(dp872
g74
(dp873
g82
I4
ssg83
g867
sg76
(lp874
S'en-US,en;q=0.5'
p875
asbasbasbag69
(g85
g71
NtRp876
(dp877
g74
(dp878
sg83
g649
sg76
(lp879
g69
(g90
g71
NtRp880
(dp881
g74
(dp882
g94
g95
ssg83
g876
sg76
(lp883
S'http_connection'
p884
asbag69
(g90
g71
NtRp885
(dp886
g74
(dp887
g101
g102
ssg83
g876
sg76
(lp888
S':'
asbag69
(g90
g71
NtRp889
(dp890
g74
(dp891
sg83
g876
sg76
(lp892
g69
(g70
g71
NtRp893
(dp894
g74
(dp895
g82
I4
ssg83
g889
sg76
(lp896
S'keep-alive'
p897
asbasbasbag69
(g85
g71
NtRp898
(dp899
g74
(dp900
sg83
g649
sg76
(lp901
g69
(g90
g71
NtRp902
(dp903
g74
(dp904
g94
g95
ssg83
g898
sg76
(lp905
S'http_cookie'
p906
asbag69
(g90
g71
NtRp907
(dp908
g74
(dp909
g101
g102
ssg83
g898
sg76
(lp910
S':'
asbag69
(g90
g71
NtRp911
(dp912
g74
(dp913
sg83
g898
sg76
(lp914
g69
(g70
g71
NtRp915
(dp916
g74
(dp917
g82
I4
ssg83
g911
sg76
(lp918
S'session_id_admin=127.0.0.1-93eaccf7-6654-4138-a9b6-5466fa6c980f; session_id_phyloshiny=127.0.0.1-c5571c8a-15ff-409f-b96c-edbd4a1702b5'
p919
asbasbasbag69
(g85
g71
NtRp920
(dp921
g74
(dp922
sg83
g649
sg76
(lp923
g69
(g90
g71
NtRp924
(dp925
g74
(dp926
g94
g95
ssg83
g920
sg76
(lp927
S'http_host'
p928
asbag69
(g90
g71
NtRp929
(dp930
g74
(dp931
g101
g102
ssg83
g920
sg76
(lp932
S':'
asbag69
(g90
g71
NtRp933
(dp934
g74
(dp935
sg83
g920
sg76
(lp936
g69
(g70
g71
NtRp937
(dp938
g74
(dp939
g82
I4
ssg83
g933
sg76
(lp940
S'127.0.0.1:8000'
p941
asbasbasbag69
(g85
g71
NtRp942
(dp943
g74
(dp944
sg83
g649
sg76
(lp945
g69
(g90
g71
NtRp946
(dp947
g74
(dp948
g94
g95
ssg83
g942
sg76
(lp949
S'http_referer'
p950
asbag69
(g90
g71
NtRp951
(dp952
g74
(dp953
g101
g102
ssg83
g942
sg76
(lp954
S':'
asbag69
(g90
g71
NtRp955
(dp956
g74
(dp957
sg83
g942
sg76
(lp958
g69
(g70
g71
NtRp959
(dp960
g74
(dp961
g82
I4
ssg83
g955
sg76
(lp962
S'http://127.0.0.1:8000/phyloShiny/reconciliotastic/index'
p963
asbasbasbag69
(g85
g71
NtRp964
(dp965
g74
(dp966
sg83
g649
sg76
(lp967
g69
(g90
g71
NtRp968
(dp969
g74
(dp970
g94
g95
ssg83
g964
sg76
(lp971
S'http_user_agent'
p972
asbag69
(g90
g71
NtRp973
(dp974
g74
(dp975
g101
g102
ssg83
g964
sg76
(lp976
S':'
asbag69
(g90
g71
NtRp977
(dp978
g74
(dp979
sg83
g964
sg76
(lp980
g69
(g70
g71
NtRp981
(dp982
g74
(dp983
g82
I4
ssg83
g977
sg76
(lp984
S'Mozilla/5.0 (X11; Ubuntu; Linux i686; rv:20.0) Gecko/20100101 Firefox/20.0'
p985
asbasbasbag69
(g85
g71
NtRp986
(dp987
g74
(dp988
sg83
g649
sg76
(lp989
g69
(g90
g71
NtRp990
(dp991
g74
(dp992
g94
g95
ssg83
g986
sg76
(lp993
S'http_x_requested_with'
p994
asbag69
(g90
g71
NtRp995
(dp996
g74
(dp997
g101
g102
ssg83
g986
sg76
(lp998
S':'
asbag69
(g90
g71
NtRp999
(dp1000
g74
(dp1001
sg83
g986
sg76
(lp1002
g69
(g70
g71
NtRp1003
(dp1004
g74
(dp1005
g82
I4
ssg83
g999
sg76
(lp1006
S'XMLHttpRequest'
p1007
asbasbasbag69
(g85
g71
NtRp1008
(dp1009
g74
(dp1010
sg83
g649
sg76
(lp1011
g69
(g90
g71
NtRp1012
(dp1013
g74
(dp1014
g94
g95
ssg83
g1008
sg76
(lp1015
S'is_jython'
p1016
asbag69
(g90
g71
NtRp1017
(dp1018
g74
(dp1019
g101
g102
ssg83
g1008
sg76
(lp1020
S':'
asbag69
(g90
g71
NtRp1021
(dp1022
g74
(dp1023
sg83
g1008
sg76
(lp1024
g69
(g70
g71
NtRp1025
(dp1026
g74
(dp1027
g82
I4
ssg83
g1021
sg76
(lp1028
g787
asbasbasbag69
(g85
g71
NtRp1029
(dp1030
g74
(dp1031
sg83
g649
sg76
(lp1032
g69
(g90
g71
NtRp1033
(dp1034
g74
(dp1035
g94
g95
ssg83
g1029
sg76
(lp1036
S'is_pypy'
p1037
asbag69
(g90
g71
NtRp1038
(dp1039
g74
(dp1040
g101
g102
ssg83
g1029
sg76
(lp1041
S':'
asbag69
(g90
g71
NtRp1042
(dp1043
g74
(dp1044
sg83
g1029
sg76
(lp1045
g69
(g70
g71
NtRp1046
(dp1047
g74
(dp1048
g82
I4
ssg83
g1042
sg76
(lp1049
g787
asbasbasbag69
(g85
g71
NtRp1050
(dp1051
g74
(dp1052
sg83
g649
sg76
(lp1053
g69
(g90
g71
NtRp1054
(dp1055
g74
(dp1056
g94
g95
ssg83
g1050
sg76
(lp1057
S'path_info'
p1058
asbag69
(g90
g71
NtRp1059
(dp1060
g74
(dp1061
g101
g102
ssg83
g1050
sg76
(lp1062
S':'
asbag69
(g90
g71
NtRp1063
(dp1064
g74
(dp1065
sg83
g1050
sg76
(lp1066
g69
(g70
g71
NtRp1067
(dp1068
g74
(dp1069
g82
I4
ssg83
g1063
sg76
(lp1070
S'/phyloShiny/reconciliotastic/getPhylotasticTree'
p1071
asbasbasbag69
(g85
g71
NtRp1072
(dp1073
g74
(dp1074
sg83
g649
sg76
(lp1075
g69
(g90
g71
NtRp1076
(dp1077
g74
(dp1078
g94
g95
ssg83
g1072
sg76
(lp1079
S'query_string'
p1080
asbag69
(g90
g71
NtRp1081
(dp1082
g74
(dp1083
g101
g102
ssg83
g1072
sg76
(lp1084
S':'
asbag69
(g90
g71
NtRp1085
(dp1086
g74
(dp1087
sg83
g1072
sg76
(lp1088
g69
(g70
g71
NtRp1089
(dp1090
g74
(dp1091
g82
I4
ssg83
g1085
sg76
(lp1092
S'treeFileName=static%2Fsample_data%2Fdemo_Primate_Tubulin1%2Finput_genetree.nwk.txt'
p1093
asbasbasbag69
(g85
g71
NtRp1094
(dp1095
g74
(dp1096
sg83
g649
sg76
(lp1097
g69
(g90
g71
NtRp1098
(dp1099
g74
(dp1100
g94
g95
ssg83
g1094
sg76
(lp1101
S'remote_addr'
p1102
asbag69
(g90
g71
NtRp1103
(dp1104
g74
(dp1105
g101
g102
ssg83
g1094
sg76
(lp1106
S':'
asbag69
(g90
g71
NtRp1107
(dp1108
g74
(dp1109
sg83
g1094
sg76
(lp1110
g69
(g70
g71
NtRp1111
(dp1112
g74
(dp1113
g82
I4
ssg83
g1107
sg76
(lp1114
g202
asbasbasbag69
(g85
g71
NtRp1115
(dp1116
g74
(dp1117
sg83
g649
sg76
(lp1118
g69
(g90
g71
NtRp1119
(dp1120
g74
(dp1121
g94
g95
ssg83
g1115
sg76
(lp1122
S'remote_port'
p1123
asbag69
(g90
g71
NtRp1124
(dp1125
g74
(dp1126
g101
g102
ssg83
g1115
sg76
(lp1127
S':'
asbag69
(g90
g71
NtRp1128
(dp1129
g74
(dp1130
sg83
g1115
sg76
(lp1131
g69
(g70
g71
NtRp1132
(dp1133
g74
(dp1134
g82
I4
ssg83
g1128
sg76
(lp1135
S'34831'
p1136
asbasbasbag69
(g85
g71
NtRp1137
(dp1138
g74
(dp1139
sg83
g649
sg76
(lp1140
g69
(g90
g71
NtRp1141
(dp1142
g74
(dp1143
g94
g95
ssg83
g1137
sg76
(lp1144
S'request_method'
p1145
asbag69
(g90
g71
NtRp1146
(dp1147
g74
(dp1148
g101
g102
ssg83
g1137
sg76
(lp1149
S':'
asbag69
(g90
g71
NtRp1150
(dp1151
g74
(dp1152
sg83
g1137
sg76
(lp1153
g69
(g70
g71
NtRp1154
(dp1155
g74
(dp1156
g82
I4
ssg83
g1150
sg76
(lp1157
S'GET'
p1158
asbasbasbag69
(g85
g71
NtRp1159
(dp1160
g74
(dp1161
sg83
g649
sg76
(lp1162
g69
(g90
g71
NtRp1163
(dp1164
g74
(dp1165
g94
g95
ssg83
g1159
sg76
(lp1166
S'script_name'
p1167
asbag69
(g90
g71
NtRp1168
(dp1169
g74
(dp1170
g101
g102
ssg83
g1159
sg76
(lp1171
S':'
asbag69
(g90
g71
NtRp1172
(dp1173
g74
(dp1174
sg83
g1159
sg76
(lp1175
g69
(g70
g71
NtRp1176
(dp1177
g74
(dp1178
g82
I4
ssg83
g1172
sg76
(lp1179
S''
asbasbasbag69
(g85
g71
NtRp1180
(dp1181
g74
(dp1182
sg83
g649
sg76
(lp1183
g69
(g90
g71
NtRp1184
(dp1185
g74
(dp1186
g94
g95
ssg83
g1180
sg76
(lp1187
S'server_name'
p1188
asbag69
(g90
g71
NtRp1189
(dp1190
g74
(dp1191
g101
g102
ssg83
g1180
sg76
(lp1192
S':'
asbag69
(g90
g71
NtRp1193
(dp1194
g74
(dp1195
sg83
g1180
sg76
(lp1196
g69
(g70
g71
NtRp1197
(dp1198
g74
(dp1199
g82
I4
ssg83
g1193
sg76
(lp1200
S'prateek-Inspiron-N5110'
p1201
asbasbasbag69
(g85
g71
NtRp1202
(dp1203
g74
(dp1204
sg83
g649
sg76
(lp1205
g69
(g90
g71
NtRp1206
(dp1207
g74
(dp1208
g94
g95
ssg83
g1202
sg76
(lp1209
S'server_port'
p1210
asbag69
(g90
g71
NtRp1211
(dp1212
g74
(dp1213
g101
g102
ssg83
g1202
sg76
(lp1214
S':'
asbag69
(g90
g71
NtRp1215
(dp1216
g74
(dp1217
sg83
g1202
sg76
(lp1218
g69
(g70
g71
NtRp1219
(dp1220
g74
(dp1221
g82
I4
ssg83
g1215
sg76
(lp1222
S'8000'
p1223
asbasbasbag69
(g85
g71
NtRp1224
(dp1225
g74
(dp1226
sg83
g649
sg76
(lp1227
g69
(g90
g71
NtRp1228
(dp1229
g74
(dp1230
g94
g95
ssg83
g1224
sg76
(lp1231
S'server_protocol'
p1232
asbag69
(g90
g71
NtRp1233
(dp1234
g74
(dp1235
g101
g102
ssg83
g1224
sg76
(lp1236
S':'
asbag69
(g90
g71
NtRp1237
(dp1238
g74
(dp1239
sg83
g1224
sg76
(lp1240
g69
(g70
g71
NtRp1241
(dp1242
g74
(dp1243
g82
I4
ssg83
g1237
sg76
(lp1244
S'HTTP/1.1'
p1245
asbasbasbag69
(g85
g71
NtRp1246
(dp1247
g74
(dp1248
sg83
g649
sg76
(lp1249
g69
(g90
g71
NtRp1250
(dp1251
g74
(dp1252
g94
g95
ssg83
g1246
sg76
(lp1253
S'server_software'
p1254
asbag69
(g90
g71
NtRp1255
(dp1256
g74
(dp1257
g101
g102
ssg83
g1246
sg76
(lp1258
S':'
asbag69
(g90
g71
NtRp1259
(dp1260
g74
(dp1261
sg83
g1246
sg76
(lp1262
g69
(g70
g71
NtRp1263
(dp1264
g74
(dp1265
g82
I4
ssg83
g1259
sg76
(lp1266
S'Rocket 1.2.4'
p1267
asbasbasbag69
(g85
g71
NtRp1268
(dp1269
g74
(dp1270
sg83
g649
sg76
(lp1271
g69
(g90
g71
NtRp1272
(dp1273
g74
(dp1274
g94
g95
ssg83
g1268
sg76
(lp1275
S'web2py_crontype'
p1276
asbag69
(g90
g71
NtRp1277
(dp1278
g74
(dp1279
g101
g102
ssg83
g1268
sg76
(lp1280
S':'
asbag69
(g90
g71
NtRp1281
(dp1282
g74
(dp1283
sg83
g1268
sg76
(lp1284
g69
(g70
g71
NtRp1285
(dp1286
g74
(dp1287
g82
I4
ssg83
g1281
sg76
(lp1288
S'hard'
p1289
asbasbasbag69
(g85
g71
NtRp1290
(dp1291
g74
(dp1292
sg83
g649
sg76
(lp1293
g69
(g90
g71
NtRp1294
(dp1295
g74
(dp1296
g94
g95
ssg83
g1290
sg76
(lp1297
S'web2py_path'
p1298
asbag69
(g90
g71
NtRp1299
(dp1300
g74
(dp1301
g101
g102
ssg83
g1290
sg76
(lp1302
S':'
asbag69
(g90
g71
NtRp1303
(dp1304
g74
(dp1305
sg83
g1290
sg76
(lp1306
g69
(g70
g71
NtRp1307
(dp1308
g74
(dp1309
g82
I4
ssg83
g1303
sg76
(lp1310
g696
asbasbasbag69
(g85
g71
NtRp1311
(dp1312
g74
(dp1313
sg83
g649
sg76
(lp1314
g69
(g90
g71
NtRp1315
(dp1316
g74
(dp1317
g94
g95
ssg83
g1311
sg76
(lp1318
S'web2py_version'
p1319
asbag69
(g90
g71
NtRp1320
(dp1321
g74
(dp1322
g101
g102
ssg83
g1311
sg76
(lp1323
S':'
asbag69
(g90
g71
NtRp1324
(dp1325
g74
(dp1326
sg83
g1311
sg76
(lp1327
g69
(g70
g71
NtRp1328
(dp1329
g74
(dp1330
g82
I4
ssg83
g1324
sg76
(lp1331
g69
(g78
g71
NtRp1332
(dp1333
g74
(dp1334
g82
I3
ssg83
Nsg76
(lp1335
g69
(g85
g71
NtRp1336
(dp1337
g74
(dp1338
sg83
g1332
sg76
(lp1339
g69
(g90
g71
NtRp1340
(dp1341
g74
(dp1342
sg83
g1336
sg76
(lp1343
g69
(g70
g71
NtRp1344
(dp1345
g74
(dp1346
g82
I3
ssg83
g1340
sg76
(lp1347
S'1'
asbasbasbag69
(g85
g71
NtRp1348
(dp1349
g74
(dp1350
sg83
g1332
sg76
(lp1351
g69
(g90
g71
NtRp1352
(dp1353
g74
(dp1354
sg83
g1348
sg76
(lp1355
g69
(g70
g71
NtRp1356
(dp1357
g74
(dp1358
g82
I3
ssg83
g1352
sg76
(lp1359
S'99'
p1360
asbasbasbag69
(g85
g71
NtRp1361
(dp1362
g74
(dp1363
sg83
g1332
sg76
(lp1364
g69
(g90
g71
NtRp1365
(dp1366
g74
(dp1367
sg83
g1361
sg76
(lp1368
g69
(g70
g71
NtRp1369
(dp1370
g74
(dp1371
g82
I3
ssg83
g1365
sg76
(lp1372
S'4'
asbasbasbag69
(g85
g71
NtRp1373
(dp1374
g74
(dp1375
sg83
g1332
sg76
(lp1376
g69
(g90
g71
NtRp1377
(dp1378
g74
(dp1379
sg83
g1373
sg76
(lp1380
g69
(g70
g71
NtRp1381
(dp1382
g74
(dp1383
g82
I3
ssg83
g1377
sg76
(lp1384
S'datetime.datetime(2011, 12, 14, 14, 46, 14)'
p1385
asbasbasbag69
(g85
g71
NtRp1386
(dp1387
g74
(dp1388
sg83
g1332
sg76
(lp1389
g69
(g90
g71
NtRp1390
(dp1391
g74
(dp1392
sg83
g1386
sg76
(lp1393
g69
(g70
g71
NtRp1394
(dp1395
g74
(dp1396
g82
I3
ssg83
g1390
sg76
(lp1397
S'stable'
p1398
asbasbasbasbasbasbasbag69
(g85
g71
NtRp1399
(dp1400
g74
(dp1401
sg83
g649
sg76
(lp1402
g69
(g90
g71
NtRp1403
(dp1404
g74
(dp1405
g94
g95
ssg83
g1399
sg76
(lp1406
S'wsgi_errors'
p1407
asbag69
(g90
g71
NtRp1408
(dp1409
g74
(dp1410
g101
g102
ssg83
g1399
sg76
(lp1411
S':'
asbag69
(g90
g71
NtRp1412
(dp1413
g74
(dp1414
sg83
g1399
sg76
(lp1415
g69
(g70
g71
NtRp1416
(dp1417
g74
(dp1418
g82
I4
ssg83
g1412
sg76
(lp1419
S"<open file '<stderr>', mode 'w' at 0xb72970d0>"
p1420
asbasbasbag69
(g85
g71
NtRp1421
(dp1422
g74
(dp1423
sg83
g649
sg76
(lp1424
g69
(g90
g71
NtRp1425
(dp1426
g74
(dp1427
g94
g95
ssg83
g1421
sg76
(lp1428
S'wsgi_file_wrapper'
p1429
asbag69
(g90
g71
NtRp1430
(dp1431
g74
(dp1432
g101
g102
ssg83
g1421
sg76
(lp1433
S':'
asbag69
(g90
g71
NtRp1434
(dp1435
g74
(dp1436
sg83
g1421
sg76
(lp1437
g69
(g70
g71
NtRp1438
(dp1439
g74
(dp1440
g82
I4
ssg83
g1434
sg76
(lp1441
S'<class wsgiref.util.FileWrapper at 0x8e2e23c>'
p1442
asbasbasbag69
(g85
g71
NtRp1443
(dp1444
g74
(dp1445
sg83
g649
sg76
(lp1446
g69
(g90
g71
NtRp1447
(dp1448
g74
(dp1449
g94
g95
ssg83
g1443
sg76
(lp1450
S'wsgi_input'
p1451
asbag69
(g90
g71
NtRp1452
(dp1453
g74
(dp1454
g101
g102
ssg83
g1443
sg76
(lp1455
S':'
asbag69
(g90
g71
NtRp1456
(dp1457
g74
(dp1458
sg83
g1443
sg76
(lp1459
g69
(g70
g71
NtRp1460
(dp1461
g74
(dp1462
g82
I4
ssg83
g1456
sg76
(lp1463
S'<socket._fileobject object at 0xb47c102c>'
p1464
asbasbasbag69
(g85
g71
NtRp1465
(dp1466
g74
(dp1467
sg83
g649
sg76
(lp1468
g69
(g90
g71
NtRp1469
(dp1470
g74
(dp1471
g94
g95
ssg83
g1465
sg76
(lp1472
S'wsgi_multiprocess'
p1473
asbag69
(g90
g71
NtRp1474
(dp1475
g74
(dp1476
g101
g102
ssg83
g1465
sg76
(lp1477
S':'
asbag69
(g90
g71
NtRp1478
(dp1479
g74
(dp1480
sg83
g1465
sg76
(lp1481
g69
(g70
g71
NtRp1482
(dp1483
g74
(dp1484
g82
I4
ssg83
g1478
sg76
(lp1485
g787
asbasbasbag69
(g85
g71
NtRp1486
(dp1487
g74
(dp1488
sg83
g649
sg76
(lp1489
g69
(g90
g71
NtRp1490
(dp1491
g74
(dp1492
g94
g95
ssg83
g1486
sg76
(lp1493
S'wsgi_multithread'
p1494
asbag69
(g90
g71
NtRp1495
(dp1496
g74
(dp1497
g101
g102
ssg83
g1486
sg76
(lp1498
S':'
asbag69
(g90
g71
NtRp1499
(dp1500
g74
(dp1501
sg83
g1486
sg76
(lp1502
g69
(g70
g71
NtRp1503
(dp1504
g74
(dp1505
g82
I4
ssg83
g1499
sg76
(lp1506
g112
asbasbasbag69
(g85
g71
NtRp1507
(dp1508
g74
(dp1509
sg83
g649
sg76
(lp1510
g69
(g90
g71
NtRp1511
(dp1512
g74
(dp1513
g94
g95
ssg83
g1507
sg76
(lp1514
S'wsgi_run_once'
p1515
asbag69
(g90
g71
NtRp1516
(dp1517
g74
(dp1518
g101
g102
ssg83
g1507
sg76
(lp1519
S':'
asbag69
(g90
g71
NtRp1520
(dp1521
g74
(dp1522
sg83
g1507
sg76
(lp1523
g69
(g70
g71
NtRp1524
(dp1525
g74
(dp1526
g82
I4
ssg83
g1520
sg76
(lp1527
g787
asbasbasbag69
(g85
g71
NtRp1528
(dp1529
g74
(dp1530
sg83
g649
sg76
(lp1531
g69
(g90
g71
NtRp1532
(dp1533
g74
(dp1534
g94
g95
ssg83
g1528
sg76
(lp1535
S'wsgi_url_scheme'
p1536
asbag69
(g90
g71
NtRp1537
(dp1538
g74
(dp1539
g101
g102
ssg83
g1528
sg76
(lp1540
S':'
asbag69
(g90
g71
NtRp1541
(dp1542
g74
(dp1543
sg83
g1528
sg76
(lp1544
g69
(g70
g71
NtRp1545
(dp1546
g74
(dp1547
g82
I4
ssg83
g1541
sg76
(lp1548
S'http'
p1549
asbasbasbag69
(g85
g71
NtRp1550
(dp1551
g74
(dp1552
sg83
g649
sg76
(lp1553
g69
(g90
g71
NtRp1554
(dp1555
g74
(dp1556
g94
g95
ssg83
g1550
sg76
(lp1557
S'wsgi_version'
p1558
asbag69
(g90
g71
NtRp1559
(dp1560
g74
(dp1561
g101
g102
ssg83
g1550
sg76
(lp1562
S':'
asbag69
(g90
g71
NtRp1563
(dp1564
g74
(dp1565
sg83
g1550
sg76
(lp1566
g69
(g70
g71
NtRp1567
(dp1568
g74
(dp1569
g82
I4
ssg83
g1563
sg76
(lp1570
g69
(g78
g71
NtRp1571
(dp1572
g74
(dp1573
g82
I3
ssg83
Nsg76
(lp1574
g69
(g85
g71
NtRp1575
(dp1576
g74
(dp1577
sg83
g1571
sg76
(lp1578
g69
(g90
g71
NtRp1579
(dp1580
g74
(dp1581
sg83
g1575
sg76
(lp1582
g69
(g70
g71
NtRp1583
(dp1584
g74
(dp1585
g82
I3
ssg83
g1579
sg76
(lp1586
S'1'
asbasbasbag69
(g85
g71
NtRp1587
(dp1588
g74
(dp1589
sg83
g1571
sg76
(lp1590
g69
(g90
g71
NtRp1591
(dp1592
g74
(dp1593
sg83
g1587
sg76
(lp1594
g69
(g70
g71
NtRp1595
(dp1596
g74
(dp1597
g82
I3
ssg83
g1591
sg76
(lp1598
S'0'
asbasbasbasbasbasbasbasbasbasbasbag69
(g85
g71
NtRp1599
(dp1600
g74
(dp1601
sg83
g79
sg76
(lp1602
g69
(g90
g71
NtRp1603
(dp1604
g74
(dp1605
g94
g95
ssg83
g1599
sg76
(lp1606
S'extension'
p1607
asbag69
(g90
g71
NtRp1608
(dp1609
g74
(dp1610
g101
g102
ssg83
g1599
sg76
(lp1611
S':'
asbag69
(g90
g71
NtRp1612
(dp1613
g74
(dp1614
sg83
g1599
sg76
(lp1615
g69
(g70
g71
NtRp1616
(dp1617
g74
(dp1618
g82
I5
ssg83
g1612
sg76
(lp1619
S'html'
p1620
asbasbasbag69
(g85
g71
NtRp1621
(dp1622
g74
(dp1623
sg83
g79
sg76
(lp1624
g69
(g90
g71
NtRp1625
(dp1626
g74
(dp1627
g94
g95
ssg83
g1621
sg76
(lp1628
S'folder'
p1629
asbag69
(g90
g71
NtRp1630
(dp1631
g74
(dp1632
g101
g102
ssg83
g1621
sg76
(lp1633
S':'
asbag69
(g90
g71
NtRp1634
(dp1635
g74
(dp1636
sg83
g1621
sg76
(lp1637
g69
(g70
g71
NtRp1638
(dp1639
g74
(dp1640
g82
I5
ssg83
g1634
sg76
(lp1641
S'/home/prateek/web2py/applications/phyloShiny/'
p1642
asbasbasbag69
(g85
g71
NtRp1643
(dp1644
g74
(dp1645
sg83
g79
sg76
(lp1646
g69
(g90
g71
NtRp1647
(dp1648
g74
(dp1649
g94
g95
ssg83
g1643
sg76
(lp1650
S'function'
p1651
asbag69
(g90
g71
NtRp1652
(dp1653
g74
(dp1654
g101
g102
ssg83
g1643
sg76
(lp1655
S':'
asbag69
(g90
g71
NtRp1656
(dp1657
g74
(dp1658
sg83
g1643
sg76
(lp1659
g69
(g70
g71
NtRp1660
(dp1661
g74
(dp1662
g82
I5
ssg83
g1656
sg76
(lp1663
S'getPhylotasticTree'
p1664
asbasbasbag69
(g85
g71
NtRp1665
(dp1666
g74
(dp1667
sg83
g79
sg76
(lp1668
g69
(g90
g71
NtRp1669
(dp1670
g74
(dp1671
g94
g95
ssg83
g1665
sg76
(lp1672
S'get_vars'
p1673
asbag69
(g90
g71
NtRp1674
(dp1675
g74
(dp1676
g101
g102
ssg83
g1665
sg76
(lp1677
S':'
asbag69
(g90
g71
NtRp1678
(dp1679
g74
(dp1680
sg83
g1665
sg76
(lp1681
g69
(g70
g71
NtRp1682
(dp1683
g74
(dp1684
g82
I5
ssg83
g1678
sg76
(lp1685
g69
(g78
g71
NtRp1686
(dp1687
g74
(dp1688
g82
I4
ssg83
Nsg76
(lp1689
g69
(g85
g71
NtRp1690
(dp1691
g74
(dp1692
sg83
g1686
sg76
(lp1693
g69
(g90
g71
NtRp1694
(dp1695
g74
(dp1696
g94
g95
ssg83
g1690
sg76
(lp1697
S'treeFileName'
p1698
asbag69
(g90
g71
NtRp1699
(dp1700
g74
(dp1701
g101
g102
ssg83
g1690
sg76
(lp1702
S':'
asbag69
(g90
g71
NtRp1703
(dp1704
g74
(dp1705
sg83
g1690
sg76
(lp1706
g69
(g70
g71
NtRp1707
(dp1708
g74
(dp1709
g82
I4
ssg83
g1703
sg76
(lp1710
S'static/sample_data/demo_Primate_Tubulin1/input_genetree.nwk.txt'
p1711
asbasbasbasbasbasbasbag69
(g85
g71
NtRp1712
(dp1713
g74
(dp1714
sg83
g79
sg76
(lp1715
g69
(g90
g71
NtRp1716
(dp1717
g74
(dp1718
g94
g95
ssg83
g1712
sg76
(lp1719
S'global_settings'
p1720
asbag69
(g90
g71
NtRp1721
(dp1722
g74
(dp1723
g101
g102
ssg83
g1712
sg76
(lp1724
S':'
asbag69
(g90
g71
NtRp1725
(dp1726
g74
(dp1727
sg83
g1712
sg76
(lp1728
g69
(g70
g71
NtRp1729
(dp1730
g74
(dp1731
g82
I5
ssg83
g1725
sg76
(lp1732
g69
(g78
g71
NtRp1733
(dp1734
g74
(dp1735
g82
I4
ssg83
Nsg76
(lp1736
g69
(g85
g71
NtRp1737
(dp1738
g74
(dp1739
sg83
g1733
sg76
(lp1740
g69
(g90
g71
NtRp1741
(dp1742
g74
(dp1743
g94
g95
ssg83
g1737
sg76
(lp1744
g661
asbag69
(g90
g71
NtRp1745
(dp1746
g74
(dp1747
g101
g102
ssg83
g1737
sg76
(lp1748
S':'
asbag69
(g90
g71
NtRp1749
(dp1750
g74
(dp1751
sg83
g1737
sg76
(lp1752
g69
(g70
g71
NtRp1753
(dp1754
g74
(dp1755
g82
I4
ssg83
g1749
sg76
(lp1756
S"set(['/home/prateek/web2py/applications/phyloShiny/', '/home/prateek/web2py/applications/welcome/'])"
p1757
asbasbasbag69
(g85
g71
NtRp1758
(dp1759
g74
(dp1760
sg83
g1733
sg76
(lp1761
g69
(g90
g71
NtRp1762
(dp1763
g74
(dp1764
g94
g95
ssg83
g1758
sg76
(lp1765
g683
asbag69
(g90
g71
NtRp1766
(dp1767
g74
(dp1768
g101
g102
ssg83
g1758
sg76
(lp1769
S':'
asbag69
(g90
g71
NtRp1770
(dp1771
g74
(dp1772
sg83
g1758
sg76
(lp1773
g69
(g70
g71
NtRp1774
(dp1775
g74
(dp1776
g82
I4
ssg83
g1770
sg76
(lp1777
g696
asbasbasbag69
(g85
g71
NtRp1778
(dp1779
g74
(dp1780
sg83
g1733
sg76
(lp1781
g69
(g90
g71
NtRp1782
(dp1783
g74
(dp1784
g94
g95
ssg83
g1778
sg76
(lp1785
g705
asbag69
(g90
g71
NtRp1786
(dp1787
g74
(dp1788
g101
g102
ssg83
g1778
sg76
(lp1789
S':'
asbag69
(g90
g71
NtRp1790
(dp1791
g74
(dp1792
sg83
g1778
sg76
(lp1793
g69
(g70
g71
NtRp1794
(dp1795
g74
(dp1796
g82
I4
ssg83
g1790
sg76
(lp1797
g69
(g78
g71
NtRp1798
(dp1799
g74
(dp1800
g82
I3
ssg83
Nsg76
(lp1801
sbasbasbasbag69
(g85
g71
NtRp1802
(dp1803
g74
(dp1804
sg83
g1733
sg76
(lp1805
g69
(g90
g71
NtRp1806
(dp1807
g74
(dp1808
g94
g95
ssg83
g1802
sg76
(lp1809
g730
asbag69
(g90
g71
NtRp1810
(dp1811
g74
(dp1812
g101
g102
ssg83
g1802
sg76
(lp1813
S':'
asbag69
(g90
g71
NtRp1814
(dp1815
g74
(dp1816
sg83
g1802
sg76
(lp1817
g69
(g70
g71
NtRp1818
(dp1819
g74
(dp1820
g82
I4
ssg83
g1814
sg76
(lp1821
S"<Values at 0x90665ec: {'verbose': False, 'ip': '127.0.0.1', 'shutdown_timeout': 5, 'taskbar': False, 'port': 8000, 'maxthreads': None, 'softcron': False, 'server_name': 'prateek-Inspiron-N5110', 'bpython': False, 'nogui': False, 'nocron': False, 'extcron': False, 'debuglevel': 30, 'test': None, 'folder': '/home/prateek/web2py', 'config': '', 'import_models': False, 'winservice': '', 'shell': None, 'run': '', 'log_filename': 'httpserver.log', 'args': [''], 'socket_timeout': 1, 'profiler_filename': None, 'ssl_private_key': '', 'password': '<ask>', 'request_queue_size': 5, 'ssl_certificate': '', 'cronjob': False, 'plain': False, 'quiet': False, 'interfaces': None, 'minthreads': None, 'timeout': 10, 'numthreads': None, 'nobanner': False, 'pid_filename': 'httpserver.pid'}>"
p1822
asbasbasbag69
(g85
g71
NtRp1823
(dp1824
g74
(dp1825
sg83
g1733
sg76
(lp1826
g69
(g90
g71
NtRp1827
(dp1828
g74
(dp1829
g94
g95
ssg83
g1823
sg76
(lp1830
g752
asbag69
(g90
g71
NtRp1831
(dp1832
g74
(dp1833
g101
g102
ssg83
g1823
sg76
(lp1834
S':'
asbag69
(g90
g71
NtRp1835
(dp1836
g74
(dp1837
sg83
g1823
sg76
(lp1838
g69
(g70
g71
NtRp1839
(dp1840
g74
(dp1841
g82
I4
ssg83
g1835
sg76
(lp1842
S'set([])'
p1843
asbasbasbag69
(g85
g71
NtRp1844
(dp1845
g74
(dp1846
sg83
g1733
sg76
(lp1847
g69
(g90
g71
NtRp1848
(dp1849
g74
(dp1850
g94
g95
ssg83
g1844
sg76
(lp1851
g774
asbag69
(g90
g71
NtRp1852
(dp1853
g74
(dp1854
g101
g102
ssg83
g1844
sg76
(lp1855
S':'
asbag69
(g90
g71
NtRp1856
(dp1857
g74
(dp1858
sg83
g1844
sg76
(lp1859
g69
(g70
g71
NtRp1860
(dp1861
g74
(dp1862
g82
I4
ssg83
g1856
sg76
(lp1863
g787
asbasbasbag69
(g85
g71
NtRp1864
(dp1865
g74
(dp1866
sg83
g1733
sg76
(lp1867
g69
(g90
g71
NtRp1868
(dp1869
g74
(dp1870
g94
g95
ssg83
g1864
sg76
(lp1871
g796
asbag69
(g90
g71
NtRp1872
(dp1873
g74
(dp1874
g101
g102
ssg83
g1864
sg76
(lp1875
S':'
asbag69
(g90
g71
NtRp1876
(dp1877
g74
(dp1878
sg83
g1864
sg76
(lp1879
g69
(g70
g71
NtRp1880
(dp1881
g74
(dp1882
g82
I4
ssg83
g1876
sg76
(lp1883
g809
asbasbasbag69
(g85
g71
NtRp1884
(dp1885
g74
(dp1886
sg83
g1733
sg76
(lp1887
g69
(g90
g71
NtRp1888
(dp1889
g74
(dp1890
g94
g95
ssg83
g1884
sg76
(lp1891
g1016
asbag69
(g90
g71
NtRp1892
(dp1893
g74
(dp1894
g101
g102
ssg83
g1884
sg76
(lp1895
S':'
asbag69
(g90
g71
NtRp1896
(dp1897
g74
(dp1898
sg83
g1884
sg76
(lp1899
g69
(g70
g71
NtRp1900
(dp1901
g74
(dp1902
g82
I4
ssg83
g1896
sg76
(lp1903
g787
asbasbasbag69
(g85
g71
NtRp1904
(dp1905
g74
(dp1906
sg83
g1733
sg76
(lp1907
g69
(g90
g71
NtRp1908
(dp1909
g74
(dp1910
g94
g95
ssg83
g1904
sg76
(lp1911
g1037
asbag69
(g90
g71
NtRp1912
(dp1913
g74
(dp1914
g101
g102
ssg83
g1904
sg76
(lp1915
S':'
asbag69
(g90
g71
NtRp1916
(dp1917
g74
(dp1918
sg83
g1904
sg76
(lp1919
g69
(g70
g71
NtRp1920
(dp1921
g74
(dp1922
g82
I4
ssg83
g1916
sg76
(lp1923
g787
asbasbasbag69
(g85
g71
NtRp1924
(dp1925
g74
(dp1926
sg83
g1733
sg76
(lp1927
g69
(g90
g71
NtRp1928
(dp1929
g74
(dp1930
g94
g95
ssg83
g1924
sg76
(lp1931
g1276
asbag69
(g90
g71
NtRp1932
(dp1933
g74
(dp1934
g101
g102
ssg83
g1924
sg76
(lp1935
S':'
asbag69
(g90
g71
NtRp1936
(dp1937
g74
(dp1938
sg83
g1924
sg76
(lp1939
g69
(g70
g71
NtRp1940
(dp1941
g74
(dp1942
g82
I4
ssg83
g1936
sg76
(lp1943
g1289
asbasbasbag69
(g85
g71
NtRp1944
(dp1945
g74
(dp1946
sg83
g1733
sg76
(lp1947
g69
(g90
g71
NtRp1948
(dp1949
g74
(dp1950
g94
g95
ssg83
g1944
sg76
(lp1951
g1319
asbag69
(g90
g71
NtRp1952
(dp1953
g74
(dp1954
g101
g102
ssg83
g1944
sg76
(lp1955
S':'
asbag69
(g90
g71
NtRp1956
(dp1957
g74
(dp1958
sg83
g1944
sg76
(lp1959
g69
(g70
g71
NtRp1960
(dp1961
g74
(dp1962
g82
I4
ssg83
g1956
sg76
(lp1963
g69
(g78
g71
NtRp1964
(dp1965
g74
(dp1966
g82
I3
ssg83
Nsg76
(lp1967
g69
(g85
g71
NtRp1968
(dp1969
g74
(dp1970
sg83
g1964
sg76
(lp1971
g69
(g90
g71
NtRp1972
(dp1973
g74
(dp1974
sg83
g1968
sg76
(lp1975
g69
(g70
g71
NtRp1976
(dp1977
g74
(dp1978
g82
I3
ssg83
g1972
sg76
(lp1979
S'1'
asbasbasbag69
(g85
g71
NtRp1980
(dp1981
g74
(dp1982
sg83
g1964
sg76
(lp1983
g69
(g90
g71
NtRp1984
(dp1985
g74
(dp1986
sg83
g1980
sg76
(lp1987
g69
(g70
g71
NtRp1988
(dp1989
g74
(dp1990
g82
I3
ssg83
g1984
sg76
(lp1991
S'99'
p1992
asbasbasbag69
(g85
g71
NtRp1993
(dp1994
g74
(dp1995
sg83
g1964
sg76
(lp1996
g69
(g90
g71
NtRp1997
(dp1998
g74
(dp1999
sg83
g1993
sg76
(lp2000
g69
(g70
g71
NtRp2001
(dp2002
g74
(dp2003
g82
I3
ssg83
g1997
sg76
(lp2004
S'4'
asbasbasbag69
(g85
g71
NtRp2005
(dp2006
g74
(dp2007
sg83
g1964
sg76
(lp2008
g69
(g90
g71
NtRp2009
(dp2010
g74
(dp2011
sg83
g2005
sg76
(lp2012
g69
(g70
g71
NtRp2013
(dp2014
g74
(dp2015
g82
I3
ssg83
g2009
sg76
(lp2016
S'datetime.datetime(2011, 12, 14, 14, 46, 14)'
p2017
asbasbasbag69
(g85
g71
NtRp2018
(dp2019
g74
(dp2020
sg83
g1964
sg76
(lp2021
g69
(g90
g71
NtRp2022
(dp2023
g74
(dp2024
sg83
g2018
sg76
(lp2025
g69
(g70
g71
NtRp2026
(dp2027
g74
(dp2028
g82
I3
ssg83
g2022
sg76
(lp2029
g1398
asbasbasbasbasbasbasbasbasbasbasbag69
(g85
g71
NtRp2030
(dp2031
g74
(dp2032
sg83
g79
sg76
(lp2033
g69
(g90
g71
NtRp2034
(dp2035
g74
(dp2036
g94
g95
ssg83
g2030
sg76
(lp2037
S'is_https'
p2038
asbag69
(g90
g71
NtRp2039
(dp2040
g74
(dp2041
g101
g102
ssg83
g2030
sg76
(lp2042
S':'
asbag69
(g90
g71
NtRp2043
(dp2044
g74
(dp2045
sg83
g2030
sg76
(lp2046
g69
(g70
g71
NtRp2047
(dp2048
g74
(dp2049
g82
I5
ssg83
g2043
sg76
(lp2050
g787
asbasbasbag69
(g85
g71
NtRp2051
(dp2052
g74
(dp2053
sg83
g79
sg76
(lp2054
g69
(g90
g71
NtRp2055
(dp2056
g74
(dp2057
g94
g95
ssg83
g2051
sg76
(lp2058
S'is_local'
p2059
asbag69
(g90
g71
NtRp2060
(dp2061
g74
(dp2062
g101
g102
ssg83
g2051
sg76
(lp2063
S':'
asbag69
(g90
g71
NtRp2064
(dp2065
g74
(dp2066
sg83
g2051
sg76
(lp2067
g69
(g70
g71
NtRp2068
(dp2069
g74
(dp2070
g82
I5
ssg83
g2064
sg76
(lp2071
g112
asbasbasbag69
(g85
g71
NtRp2072
(dp2073
g74
(dp2074
sg83
g79
sg76
(lp2075
g69
(g90
g71
NtRp2076
(dp2077
g74
(dp2078
g94
g95
ssg83
g2072
sg76
(lp2079
S'is_restful'
p2080
asbag69
(g90
g71
NtRp2081
(dp2082
g74
(dp2083
g101
g102
ssg83
g2072
sg76
(lp2084
S':'
asbag69
(g90
g71
NtRp2085
(dp2086
g74
(dp2087
sg83
g2072
sg76
(lp2088
g69
(g70
g71
NtRp2089
(dp2090
g74
(dp2091
g82
I5
ssg83
g2085
sg76
(lp2092
g787
asbasbasbag69
(g85
g71
NtRp2093
(dp2094
g74
(dp2095
sg83
g79
sg76
(lp2096
g69
(g90
g71
NtRp2097
(dp2098
g74
(dp2099
g94
g95
ssg83
g2093
sg76
(lp2100
S'now'
p2101
asbag69
(g90
g71
NtRp2102
(dp2103
g74
(dp2104
g101
g102
ssg83
g2093
sg76
(lp2105
S':'
asbag69
(g90
g71
NtRp2106
(dp2107
g74
(dp2108
sg83
g2093
sg76
(lp2109
g69
(g70
g71
NtRp2110
(dp2111
g74
(dp2112
g82
I5
ssg83
g2106
sg76
(lp2113
S'datetime.datetime(2013, 5, 17, 13, 33, 37, 54939)'
p2114
asbasbasbag69
(g85
g71
NtRp2115
(dp2116
g74
(dp2117
sg83
g79
sg76
(lp2118
g69
(g90
g71
NtRp2119
(dp2120
g74
(dp2121
g94
g95
ssg83
g2115
sg76
(lp2122
S'post_vars'
p2123
asbag69
(g90
g71
NtRp2124
(dp2125
g74
(dp2126
g101
g102
ssg83
g2115
sg76
(lp2127
S':'
asbag69
(g90
g71
NtRp2128
(dp2129
g74
(dp2130
sg83
g2115
sg76
(lp2131
g69
(g70
g71
NtRp2132
(dp2133
g74
(dp2134
g82
I5
ssg83
g2128
sg76
(lp2135
g69
(g78
g71
NtRp2136
(dp2137
g74
(dp2138
g82
I4
ssg83
Nsg76
(lp2139
sbasbasbasbag69
(g85
g71
NtRp2140
(dp2141
g74
(dp2142
sg83
g79
sg76
(lp2143
g69
(g90
g71
NtRp2144
(dp2145
g74
(dp2146
g94
g95
ssg83
g2140
sg76
(lp2147
S'url'
p2148
asbag69
(g90
g71
NtRp2149
(dp2150
g74
(dp2151
g101
g102
ssg83
g2140
sg76
(lp2152
S':'
asbag69
(g90
g71
NtRp2153
(dp2154
g74
(dp2155
sg83
g2140
sg76
(lp2156
g69
(g70
g71
NtRp2157
(dp2158
g74
(dp2159
g82
I5
ssg83
g2153
sg76
(lp2160
S'/phyloShiny/reconciliotastic/getPhylotasticTree'
p2161
asbasbasbag69
(g85
g71
NtRp2162
(dp2163
g74
(dp2164
sg83
g79
sg76
(lp2165
g69
(g90
g71
NtRp2166
(dp2167
g74
(dp2168
g94
g95
ssg83
g2162
sg76
(lp2169
S'utcnow'
p2170
asbag69
(g90
g71
NtRp2171
(dp2172
g74
(dp2173
g101
g102
ssg83
g2162
sg76
(lp2174
S':'
asbag69
(g90
g71
NtRp2175
(dp2176
g74
(dp2177
sg83
g2162
sg76
(lp2178
g69
(g70
g71
NtRp2179
(dp2180
g74
(dp2181
g82
I5
ssg83
g2175
sg76
(lp2182
S'datetime.datetime(2013, 5, 17, 8, 3, 37, 54997)'
p2183
asbasbasbag69
(g85
g71
NtRp2184
(dp2185
g74
(dp2186
sg83
g79
sg76
(lp2187
g69
(g90
g71
NtRp2188
(dp2189
g74
(dp2190
g94
g95
ssg83
g2184
sg76
(lp2191
S'uuid'
p2192
asbag69
(g90
g71
NtRp2193
(dp2194
g74
(dp2195
g101
g102
ssg83
g2184
sg76
(lp2196
S':'
asbag69
(g90
g71
NtRp2197
(dp2198
g74
(dp2199
sg83
g2184
sg76
(lp2200
g69
(g70
g71
NtRp2201
(dp2202
g74
(dp2203
g82
I5
ssg83
g2197
sg76
(lp2204
S'phyloShiny/127.0.0.1.2013-05-17.13-33-37.1af2d392-9fdc-4636-b408-507a5dcfcc88'
p2205
asbasbasbag69
(g85
g71
NtRp2206
(dp2207
g74
(dp2208
sg83
g79
sg76
(lp2209
g69
(g90
g71
NtRp2210
(dp2211
g74
(dp2212
g94
g95
ssg83
g2206
sg76
(lp2213
S'vars'
p2214
asbag69
(g90
g71
NtRp2215
(dp2216
g74
(dp2217
g101
g102
ssg83
g2206
sg76
(lp2218
S':'
asbag69
(g90
g71
NtRp2219
(dp2220
g74
(dp2221
sg83
g2206
sg76
(lp2222
g69
(g70
g71
NtRp2223
(dp2224
g74
(dp2225
g82
I5
ssg83
g2219
sg76
(lp2226
g69
(g78
g71
NtRp2227
(dp2228
g74
(dp2229
g82
I4
ssg83
Nsg76
(lp2230
g69
(g85
g71
NtRp2231
(dp2232
g74
(dp2233
sg83
g2227
sg76
(lp2234
g69
(g90
g71
NtRp2235
(dp2236
g74
(dp2237
g94
g95
ssg83
g2231
sg76
(lp2238
g1698
asbag69
(g90
g71
NtRp2239
(dp2240
g74
(dp2241
g101
g102
ssg83
g2231
sg76
(lp2242
S':'
asbag69
(g90
g71
NtRp2243
(dp2244
g74
(dp2245
sg83
g2231
sg76
(lp2246
g69
(g70
g71
NtRp2247
(dp2248
g74
(dp2249
g82
I4
ssg83
g2243
sg76
(lp2250
g1711
asbasbasbasbasbasbasbag69
(g85
g71
NtRp2251
(dp2252
g74
(dp2253
sg83
g79
sg76
(lp2254
g69
(g90
g71
NtRp2255
(dp2256
g74
(dp2257
g94
g95
ssg83
g2251
sg76
(lp2258
S'wsgi'
p2259
asbag69
(g90
g71
NtRp2260
(dp2261
g74
(dp2262
g101
g102
ssg83
g2251
sg76
(lp2263
S':'
asbag69
(g90
g71
NtRp2264
(dp2265
g74
(dp2266
sg83
g2251
sg76
(lp2267
g69
(g70
g71
NtRp2268
(dp2269
g74
(dp2270
g82
I5
ssg83
g2264
sg76
(lp2271
g69
(g78
g71
NtRp2272
(dp2273
g74
(dp2274
g82
I4
ssg83
Nsg76
(lp2275
g69
(g85
g71
NtRp2276
(dp2277
g74
(dp2278
sg83
g2272
sg76
(lp2279
g69
(g90
g71
NtRp2280
(dp2281
g74
(dp2282
g94
g95
ssg83
g2276
sg76
(lp2283
S'environ'
p2284
asbag69
(g90
g71
NtRp2285
(dp2286
g74
(dp2287
g101
g102
ssg83
g2276
sg76
(lp2288
S':'
asbag69
(g90
g71
NtRp2289
(dp2290
g74
(dp2291
sg83
g2276
sg76
(lp2292
g69
(g70
g71
NtRp2293
(dp2294
g74
(dp2295
g82
I4
ssg83
g2289
sg76
(lp2296
g69
(g78
g71
NtRp2297
(dp2298
g74
(dp2299
g82
I3
ssg83
Nsg76
(lp2300
g69
(g85
g71
NtRp2301
(dp2302
g74
(dp2303
sg83
g2297
sg76
(lp2304
g69
(g90
g71
NtRp2305
(dp2306
g74
(dp2307
g94
g95
ssg83
g2301
sg76
(lp2308
S'HTTP_ACCEPT'
p2309
asbag69
(g90
g71
NtRp2310
(dp2311
g74
(dp2312
g101
g102
ssg83
g2301
sg76
(lp2313
S':'
asbag69
(g90
g71
NtRp2314
(dp2315
g74
(dp2316
sg83
g2301
sg76
(lp2317
g69
(g70
g71
NtRp2318
(dp2319
g74
(dp2320
g82
I3
ssg83
g2314
sg76
(lp2321
g831
asbasbasbag69
(g85
g71
NtRp2322
(dp2323
g74
(dp2324
sg83
g2297
sg76
(lp2325
g69
(g90
g71
NtRp2326
(dp2327
g74
(dp2328
g94
g95
ssg83
g2322
sg76
(lp2329
S'HTTP_ACCEPT_ENCODING'
p2330
asbag69
(g90
g71
NtRp2331
(dp2332
g74
(dp2333
g101
g102
ssg83
g2322
sg76
(lp2334
S':'
asbag69
(g90
g71
NtRp2335
(dp2336
g74
(dp2337
sg83
g2322
sg76
(lp2338
g69
(g70
g71
NtRp2339
(dp2340
g74
(dp2341
g82
I3
ssg83
g2335
sg76
(lp2342
g853
asbasbasbag69
(g85
g71
NtRp2343
(dp2344
g74
(dp2345
sg83
g2297
sg76
(lp2346
g69
(g90
g71
NtRp2347
(dp2348
g74
(dp2349
g94
g95
ssg83
g2343
sg76
(lp2350
S'HTTP_ACCEPT_LANGUAGE'
p2351
asbag69
(g90
g71
NtRp2352
(dp2353
g74
(dp2354
g101
g102
ssg83
g2343
sg76
(lp2355
S':'
asbag69
(g90
g71
NtRp2356
(dp2357
g74
(dp2358
sg83
g2343
sg76
(lp2359
g69
(g70
g71
NtRp2360
(dp2361
g74
(dp2362
g82
I3
ssg83
g2356
sg76
(lp2363
g875
asbasbasbag69
(g85
g71
NtRp2364
(dp2365
g74
(dp2366
sg83
g2297
sg76
(lp2367
g69
(g90
g71
NtRp2368
(dp2369
g74
(dp2370
g94
g95
ssg83
g2364
sg76
(lp2371
S'HTTP_CONNECTION'
p2372
asbag69
(g90
g71
NtRp2373
(dp2374
g74
(dp2375
g101
g102
ssg83
g2364
sg76
(lp2376
S':'
asbag69
(g90
g71
NtRp2377
(dp2378
g74
(dp2379
sg83
g2364
sg76
(lp2380
g69
(g70
g71
NtRp2381
(dp2382
g74
(dp2383
g82
I3
ssg83
g2377
sg76
(lp2384
g897
asbasbasbag69
(g85
g71
NtRp2385
(dp2386
g74
(dp2387
sg83
g2297
sg76
(lp2388
g69
(g90
g71
NtRp2389
(dp2390
g74
(dp2391
g94
g95
ssg83
g2385
sg76
(lp2392
S'HTTP_COOKIE'
p2393
asbag69
(g90
g71
NtRp2394
(dp2395
g74
(dp2396
g101
g102
ssg83
g2385
sg76
(lp2397
S':'
asbag69
(g90
g71
NtRp2398
(dp2399
g74
(dp2400
sg83
g2385
sg76
(lp2401
g69
(g70
g71
NtRp2402
(dp2403
g74
(dp2404
g82
I3
ssg83
g2398
sg76
(lp2405
g919
asbasbasbag69
(g85
g71
NtRp2406
(dp2407
g74
(dp2408
sg83
g2297
sg76
(lp2409
g69
(g90
g71
NtRp2410
(dp2411
g74
(dp2412
g94
g95
ssg83
g2406
sg76
(lp2413
S'HTTP_HOST'
p2414
asbag69
(g90
g71
NtRp2415
(dp2416
g74
(dp2417
g101
g102
ssg83
g2406
sg76
(lp2418
S':'
asbag69
(g90
g71
NtRp2419
(dp2420
g74
(dp2421
sg83
g2406
sg76
(lp2422
g69
(g70
g71
NtRp2423
(dp2424
g74
(dp2425
g82
I3
ssg83
g2419
sg76
(lp2426
g941
asbasbasbag69
(g85
g71
NtRp2427
(dp2428
g74
(dp2429
sg83
g2297
sg76
(lp2430
g69
(g90
g71
NtRp2431
(dp2432
g74
(dp2433
g94
g95
ssg83
g2427
sg76
(lp2434
S'HTTP_REFERER'
p2435
asbag69
(g90
g71
NtRp2436
(dp2437
g74
(dp2438
g101
g102
ssg83
g2427
sg76
(lp2439
S':'
asbag69
(g90
g71
NtRp2440
(dp2441
g74
(dp2442
sg83
g2427
sg76
(lp2443
g69
(g70
g71
NtRp2444
(dp2445
g74
(dp2446
g82
I3
ssg83
g2440
sg76
(lp2447
g963
asbasbasbag69
(g85
g71
NtRp2448
(dp2449
g74
(dp2450
sg83
g2297
sg76
(lp2451
g69
(g90
g71
NtRp2452
(dp2453
g74
(dp2454
g94
g95
ssg83
g2448
sg76
(lp2455
S'HTTP_USER_AGENT'
p2456
asbag69
(g90
g71
NtRp2457
(dp2458
g74
(dp2459
g101
g102
ssg83
g2448
sg76
(lp2460
S':'
asbag69
(g90
g71
NtRp2461
(dp2462
g74
(dp2463
sg83
g2448
sg76
(lp2464
g69
(g70
g71
NtRp2465
(dp2466
g74
(dp2467
g82
I3
ssg83
g2461
sg76
(lp2468
g985
asbasbasbag69
(g85
g71
NtRp2469
(dp2470
g74
(dp2471
sg83
g2297
sg76
(lp2472
g69
(g90
g71
NtRp2473
(dp2474
g74
(dp2475
g94
g95
ssg83
g2469
sg76
(lp2476
S'HTTP_X_REQUESTED_WITH'
p2477
asbag69
(g90
g71
NtRp2478
(dp2479
g74
(dp2480
g101
g102
ssg83
g2469
sg76
(lp2481
S':'
asbag69
(g90
g71
NtRp2482
(dp2483
g74
(dp2484
sg83
g2469
sg76
(lp2485
g69
(g70
g71
NtRp2486
(dp2487
g74
(dp2488
g82
I3
ssg83
g2482
sg76
(lp2489
g1007
asbasbasbag69
(g85
g71
NtRp2490
(dp2491
g74
(dp2492
sg83
g2297
sg76
(lp2493
g69
(g90
g71
NtRp2494
(dp2495
g74
(dp2496
g94
g95
ssg83
g2490
sg76
(lp2497
S'PATH_INFO'
p2498
asbag69
(g90
g71
NtRp2499
(dp2500
g74
(dp2501
g101
g102
ssg83
g2490
sg76
(lp2502
S':'
asbag69
(g90
g71
NtRp2503
(dp2504
g74
(dp2505
sg83
g2490
sg76
(lp2506
g69
(g70
g71
NtRp2507
(dp2508
g74
(dp2509
g82
I3
ssg83
g2503
sg76
(lp2510
g1071
asbasbasbag69
(g85
g71
NtRp2511
(dp2512
g74
(dp2513
sg83
g2297
sg76
(lp2514
g69
(g90
g71
NtRp2515
(dp2516
g74
(dp2517
g94
g95
ssg83
g2511
sg76
(lp2518
S'QUERY_STRING'
p2519
asbag69
(g90
g71
NtRp2520
(dp2521
g74
(dp2522
g101
g102
ssg83
g2511
sg76
(lp2523
S':'
asbag69
(g90
g71
NtRp2524
(dp2525
g74
(dp2526
sg83
g2511
sg76
(lp2527
g69
(g70
g71
NtRp2528
(dp2529
g74
(dp2530
g82
I3
ssg83
g2524
sg76
(lp2531
g1093
asbasbasbag69
(g85
g71
NtRp2532
(dp2533
g74
(dp2534
sg83
g2297
sg76
(lp2535
g69
(g90
g71
NtRp2536
(dp2537
g74
(dp2538
g94
g95
ssg83
g2532
sg76
(lp2539
S'REMOTE_ADDR'
p2540
asbag69
(g90
g71
NtRp2541
(dp2542
g74
(dp2543
g101
g102
ssg83
g2532
sg76
(lp2544
S':'
asbag69
(g90
g71
NtRp2545
(dp2546
g74
(dp2547
sg83
g2532
sg76
(lp2548
g69
(g70
g71
NtRp2549
(dp2550
g74
(dp2551
g82
I3
ssg83
g2545
sg76
(lp2552
g202
asbasbasbag69
(g85
g71
NtRp2553
(dp2554
g74
(dp2555
sg83
g2297
sg76
(lp2556
g69
(g90
g71
NtRp2557
(dp2558
g74
(dp2559
g94
g95
ssg83
g2553
sg76
(lp2560
S'REMOTE_PORT'
p2561
asbag69
(g90
g71
NtRp2562
(dp2563
g74
(dp2564
g101
g102
ssg83
g2553
sg76
(lp2565
S':'
asbag69
(g90
g71
NtRp2566
(dp2567
g74
(dp2568
sg83
g2553
sg76
(lp2569
g69
(g70
g71
NtRp2570
(dp2571
g74
(dp2572
g82
I3
ssg83
g2566
sg76
(lp2573
g1136
asbasbasbag69
(g85
g71
NtRp2574
(dp2575
g74
(dp2576
sg83
g2297
sg76
(lp2577
g69
(g90
g71
NtRp2578
(dp2579
g74
(dp2580
g94
g95
ssg83
g2574
sg76
(lp2581
S'REQUEST_METHOD'
p2582
asbag69
(g90
g71
NtRp2583
(dp2584
g74
(dp2585
g101
g102
ssg83
g2574
sg76
(lp2586
S':'
asbag69
(g90
g71
NtRp2587
(dp2588
g74
(dp2589
sg83
g2574
sg76
(lp2590
g69
(g70
g71
NtRp2591
(dp2592
g74
(dp2593
g82
I3
ssg83
g2587
sg76
(lp2594
g1158
asbasbasbag69
(g85
g71
NtRp2595
(dp2596
g74
(dp2597
sg83
g2297
sg76
(lp2598
g69
(g90
g71
NtRp2599
(dp2600
g74
(dp2601
g94
g95
ssg83
g2595
sg76
(lp2602
S'SCRIPT_NAME'
p2603
asbag69
(g90
g71
NtRp2604
(dp2605
g74
(dp2606
g101
g102
ssg83
g2595
sg76
(lp2607
S':'
asbag69
(g90
g71
NtRp2608
(dp2609
g74
(dp2610
sg83
g2595
sg76
(lp2611
g69
(g70
g71
NtRp2612
(dp2613
g74
(dp2614
g82
I3
ssg83
g2608
sg76
(lp2615
S''
asbasbasbag69
(g85
g71
NtRp2616
(dp2617
g74
(dp2618
sg83
g2297
sg76
(lp2619
g69
(g90
g71
NtRp2620
(dp2621
g74
(dp2622
g94
g95
ssg83
g2616
sg76
(lp2623
S'SERVER_NAME'
p2624
asbag69
(g90
g71
NtRp2625
(dp2626
g74
(dp2627
g101
g102
ssg83
g2616
sg76
(lp2628
S':'
asbag69
(g90
g71
NtRp2629
(dp2630
g74
(dp2631
sg83
g2616
sg76
(lp2632
g69
(g70
g71
NtRp2633
(dp2634
g74
(dp2635
g82
I3
ssg83
g2629
sg76
(lp2636
g1201
asbasbasbag69
(g85
g71
NtRp2637
(dp2638
g74
(dp2639
sg83
g2297
sg76
(lp2640
g69
(g90
g71
NtRp2641
(dp2642
g74
(dp2643
g94
g95
ssg83
g2637
sg76
(lp2644
S'SERVER_PORT'
p2645
asbag69
(g90
g71
NtRp2646
(dp2647
g74
(dp2648
g101
g102
ssg83
g2637
sg76
(lp2649
S':'
asbag69
(g90
g71
NtRp2650
(dp2651
g74
(dp2652
sg83
g2637
sg76
(lp2653
g69
(g70
g71
NtRp2654
(dp2655
g74
(dp2656
g82
I3
ssg83
g2650
sg76
(lp2657
g1223
asbasbasbag69
(g85
g71
NtRp2658
(dp2659
g74
(dp2660
sg83
g2297
sg76
(lp2661
g69
(g90
g71
NtRp2662
(dp2663
g74
(dp2664
g94
g95
ssg83
g2658
sg76
(lp2665
S'SERVER_PROTOCOL'
p2666
asbag69
(g90
g71
NtRp2667
(dp2668
g74
(dp2669
g101
g102
ssg83
g2658
sg76
(lp2670
S':'
asbag69
(g90
g71
NtRp2671
(dp2672
g74
(dp2673
sg83
g2658
sg76
(lp2674
g69
(g70
g71
NtRp2675
(dp2676
g74
(dp2677
g82
I3
ssg83
g2671
sg76
(lp2678
g1245
asbasbasbag69
(g85
g71
NtRp2679
(dp2680
g74
(dp2681
sg83
g2297
sg76
(lp2682
g69
(g90
g71
NtRp2683
(dp2684
g74
(dp2685
g94
g95
ssg83
g2679
sg76
(lp2686
S'SERVER_SOFTWARE'
p2687
asbag69
(g90
g71
NtRp2688
(dp2689
g74
(dp2690
g101
g102
ssg83
g2679
sg76
(lp2691
S':'
asbag69
(g90
g71
NtRp2692
(dp2693
g74
(dp2694
sg83
g2679
sg76
(lp2695
g69
(g70
g71
NtRp2696
(dp2697
g74
(dp2698
g82
I3
ssg83
g2692
sg76
(lp2699
g1267
asbasbasbag69
(g85
g71
NtRp2700
(dp2701
g74
(dp2702
sg83
g2297
sg76
(lp2703
g69
(g90
g71
NtRp2704
(dp2705
g74
(dp2706
g94
g95
ssg83
g2700
sg76
(lp2707
S'wsgi.errors'
p2708
asbag69
(g90
g71
NtRp2709
(dp2710
g74
(dp2711
g101
g102
ssg83
g2700
sg76
(lp2712
S':'
asbag69
(g90
g71
NtRp2713
(dp2714
g74
(dp2715
sg83
g2700
sg76
(lp2716
g69
(g70
g71
NtRp2717
(dp2718
g74
(dp2719
g82
I3
ssg83
g2713
sg76
(lp2720
S"<open file '<stderr>', mode 'w' at 0xb72970d0>"
p2721
asbasbasbag69
(g85
g71
NtRp2722
(dp2723
g74
(dp2724
sg83
g2297
sg76
(lp2725
g69
(g90
g71
NtRp2726
(dp2727
g74
(dp2728
g94
g95
ssg83
g2722
sg76
(lp2729
S'wsgi.file_wrapper'
p2730
asbag69
(g90
g71
NtRp2731
(dp2732
g74
(dp2733
g101
g102
ssg83
g2722
sg76
(lp2734
S':'
asbag69
(g90
g71
NtRp2735
(dp2736
g74
(dp2737
sg83
g2722
sg76
(lp2738
g69
(g70
g71
NtRp2739
(dp2740
g74
(dp2741
g82
I3
ssg83
g2735
sg76
(lp2742
S'<class wsgiref.util.FileWrapper at 0x8e2e23c>'
p2743
asbasbasbag69
(g85
g71
NtRp2744
(dp2745
g74
(dp2746
sg83
g2297
sg76
(lp2747
g69
(g90
g71
NtRp2748
(dp2749
g74
(dp2750
g94
g95
ssg83
g2744
sg76
(lp2751
S'wsgi.input'
p2752
asbag69
(g90
g71
NtRp2753
(dp2754
g74
(dp2755
g101
g102
ssg83
g2744
sg76
(lp2756
S':'
asbag69
(g90
g71
NtRp2757
(dp2758
g74
(dp2759
sg83
g2744
sg76
(lp2760
g69
(g70
g71
NtRp2761
(dp2762
g74
(dp2763
g82
I3
ssg83
g2757
sg76
(lp2764
S'<cStringIO.StringO object at 0xb3dd60e0>'
p2765
asbasbasbag69
(g85
g71
NtRp2766
(dp2767
g74
(dp2768
sg83
g2297
sg76
(lp2769
g69
(g90
g71
NtRp2770
(dp2771
g74
(dp2772
g94
g95
ssg83
g2766
sg76
(lp2773
S'wsgi.multiprocess'
p2774
asbag69
(g90
g71
NtRp2775
(dp2776
g74
(dp2777
g101
g102
ssg83
g2766
sg76
(lp2778
S':'
asbag69
(g90
g71
NtRp2779
(dp2780
g74
(dp2781
sg83
g2766
sg76
(lp2782
g69
(g70
g71
NtRp2783
(dp2784
g74
(dp2785
g82
I3
ssg83
g2779
sg76
(lp2786
g787
asbasbasbag69
(g85
g71
NtRp2787
(dp2788
g74
(dp2789
sg83
g2297
sg76
(lp2790
g69
(g90
g71
NtRp2791
(dp2792
g74
(dp2793
g94
g95
ssg83
g2787
sg76
(lp2794
S'wsgi.multithread'
p2795
asbag69
(g90
g71
NtRp2796
(dp2797
g74
(dp2798
g101
g102
ssg83
g2787
sg76
(lp2799
S':'
asbag69
(g90
g71
NtRp2800
(dp2801
g74
(dp2802
sg83
g2787
sg76
(lp2803
g69
(g70
g71
NtRp2804
(dp2805
g74
(dp2806
g82
I3
ssg83
g2800
sg76
(lp2807
g112
asbasbasbag69
(g85
g71
NtRp2808
(dp2809
g74
(dp2810
sg83
g2297
sg76
(lp2811
g69
(g90
g71
NtRp2812
(dp2813
g74
(dp2814
g94
g95
ssg83
g2808
sg76
(lp2815
S'wsgi.run_once'
p2816
asbag69
(g90
g71
NtRp2817
(dp2818
g74
(dp2819
g101
g102
ssg83
g2808
sg76
(lp2820
S':'
asbag69
(g90
g71
NtRp2821
(dp2822
g74
(dp2823
sg83
g2808
sg76
(lp2824
g69
(g70
g71
NtRp2825
(dp2826
g74
(dp2827
g82
I3
ssg83
g2821
sg76
(lp2828
g787
asbasbasbag69
(g85
g71
NtRp2829
(dp2830
g74
(dp2831
sg83
g2297
sg76
(lp2832
g69
(g90
g71
NtRp2833
(dp2834
g74
(dp2835
g94
g95
ssg83
g2829
sg76
(lp2836
S'wsgi.url_scheme'
p2837
asbag69
(g90
g71
NtRp2838
(dp2839
g74
(dp2840
g101
g102
ssg83
g2829
sg76
(lp2841
S':'
asbag69
(g90
g71
NtRp2842
(dp2843
g74
(dp2844
sg83
g2829
sg76
(lp2845
g69
(g70
g71
NtRp2846
(dp2847
g74
(dp2848
g82
I3
ssg83
g2842
sg76
(lp2849
g1549
asbasbasbag69
(g85
g71
NtRp2850
(dp2851
g74
(dp2852
sg83
g2297
sg76
(lp2853
g69
(g90
g71
NtRp2854
(dp2855
g74
(dp2856
g94
g95
ssg83
g2850
sg76
(lp2857
S'wsgi.version'
p2858
asbag69
(g90
g71
NtRp2859
(dp2860
g74
(dp2861
g101
g102
ssg83
g2850
sg76
(lp2862
S':'
asbag69
(g90
g71
NtRp2863
(dp2864
g74
(dp2865
sg83
g2850
sg76
(lp2866
g69
(g70
g71
NtRp2867
(dp2868
g74
(dp2869
g82
I3
ssg83
g2863
sg76
(lp2870
S'1'
asbasbasbasbasbasbasbasbasbasbasbasbasbsS'frames'
p2871
(lp2872
(dp2873
S'file'
p2874
S'/usr/lib/pymodules/python2.7/gluon/restricted.py'
p2875
sS'dump'
p2876
(dp2877
S'environment'
p2878
S"{'A': <class 'gluon.html.A'>, 'Auth': <class 'gluon.tools.Auth'>, 'B': <class 'gluon.html.B'>, 'BEAUTIFY': <class 'gluon.html.BEAUTIFY'>, 'BODY': <class 'gluon.html.BODY'>, 'BR': <class 'gluon.html.BR'>, 'BUTTON': <class 'gluon.html.BUTTON'>, 'BaseTree': <module 'Bio.Phylo.BaseTree' from '/usr/local/lib/python2.7/dist-packages/Bio/Phylo/BaseTree.py'>, 'CAT': <class 'gluon.html.CAT'>, 'CENTER': <class 'gluon.html.CENTER'>, ...}"
p2879
sS'ccode'
p2880
S'<code object <module> at 0xb47c8de8, file "/home...oShiny/controllers/reconciliotastic.py", line 11>'
p2881
ssS'lnum'
p2882
I204
sS'lines'
p2883
(dp2884
I199
S'    try:'
p2885
sI200
S'        if type(code) == types.CodeType:'
p2886
sI201
S'            ccode = code'
p2887
sI202
S'        else:'
p2888
sI203
S'            ccode = compile2(code,layer)'
p2889
sI204
S'        exec ccode in environment'
p2890
sI205
S'    except HTTP:'
p2891
sI206
S'        raise'
p2892
sI207
S'    except RestrictedError:'
p2893
sI208
S'        # do not encapsulate (obfuscate) the original RestrictedError'
p2894
ssS'call'
p2895
S"(code='# -*- coding: utf-8 -*-\\n# this file is released ...ponse._vars=response._caller(getPhylotasticTree)\\n', environment={'A': <class 'gluon.html.A'>, 'Auth': <class 'gluon.tools.Auth'>, 'B': <class 'gluon.html.B'>, 'BEAUTIFY': <class 'gluon.html.BEAUTIFY'>, 'BODY': <class 'gluon.html.BODY'>, 'BR': <class 'gluon.html.BR'>, 'BUTTON': <class 'gluon.html.BUTTON'>, 'BaseTree': <module 'Bio.Phylo.BaseTree' from '/usr/local/lib/python2.7/dist-packages/Bio/Phylo/BaseTree.py'>, 'CAT': <class 'gluon.html.CAT'>, 'CENTER': <class 'gluon.html.CENTER'>, ...}, layer='/home/prateek/web2py/applications/phyloShiny/controllers/reconciliotastic.py')"
p2896
sS'func'
p2897
S'restricted'
p2898
sa(dp2899
g2874
S'/home/prateek/web2py/applications/phyloShiny/controllers/reconciliotastic.py'
p2900
sg2876
(dp2901
sg2882
I178
sg2883
(dp2902
I167
S'    shellCall += geneTreeFile'
p2903
sI168
S"    shellCall += ' '+speciesTreeFile"
p2904
sI169
S''
sI170
S'    os.system(shellCall)'
p2905
sI171
S''
sI172
S"    reconciledTreeWebFile = getRelativeWebPath('_preprocessed_gene_tree.phylo_gsdi_out.phylo.xml')"
p2906
sI173
S''
sI174
S'    return response.json( dict(vizFile = reconciledTreeWebFile,'
p2907
sI175
S'                               vizLabel = "Reconciled Tree (red=duplication, green=speciation)"'
p2908
sI176
S'                               ) )'
p2909
ssg2895
S'()'
p2910
sg2897
S'<module>'
p2911
sa(dp2912
g2874
S'/usr/lib/pymodules/python2.7/gluon/globals.py'
p2913
sg2876
(dp2914
S'self'
p2915
S'undefined'
p2916
sS'f'
S'<function getPhylotasticTree>'
p2917
ssg2882
I172
sg2883
(dp2918
I167
S'        self.meta = Storage()      # used by web2py_ajax.html'
p2919
sI168
S'        self.menu = []             # used by the default view layout'
p2920
sI169
S'        self.files = []            # used by web2py_ajax.html'
p2921
sI170
S'        self.generic_patterns = [] # patterns to allow generic views'
p2922
sI171
S'        self._vars = None'
p2923
sI172
S'        self._caller = lambda f: f()'
p2924
sI173
S'        self._view_environment = None'
p2925
sI174
S'        self._custom_commit = None'
p2926
sI175
S'        self._custom_rollback = None'
p2927
sI176
S''
ssg2895
S'(f=<function getPhylotasticTree>)'
p2928
sg2897
S'<lambda>'
p2929
sa(dp2930
g2874
S'/home/prateek/web2py/applications/phyloShiny/controllers/reconciliotastic.py'
p2931
sg2876
(dp2932
S'urllib2.urlopen'
p2933
S'<function urlopen>'
p2934
sS'global urllib2'
p2935
S"<module 'urllib2' from '/usr/lib/python2.7/urllib2.pyc'>"
p2936
sS'conn'
p2937
g2916
sS'speciesTreeUrl'
p2938
S"'http://phylotastic-wg.nescent.org/script/phylota...ulatta,Pan_troglodytes&tree=mammals&format=newick'"
p2939
ssg2882
I113
sg2883
(dp2940
I108
S"    speciesList = [x.replace(' ', '_') for x in speciesList]"
p2941
sI109
S"    speciesString = ','.join(speciesList)"
p2942
sI110
S''
sI111
S"    phylotasticUrlBase = 'http://phylotastic-wg.nescent.org/script/phylotastic.cgi?species='"
p2943
sI112
S"    speciesTreeUrl = phylotasticUrlBase+speciesString+'&tree=mammals&format=newick'"
p2944
sI113
S'    conn = urllib2.urlopen(speciesTreeUrl)'
p2945
sI114
S'    speciesTreeString = conn.read()'
p2946
sI115
S'    speciesTreeString = speciesTreeString.strip()'
p2947
sI116
S''
sI117
S"    speciesTreeFilename = filePrefix+'_species_tree.txt'"
p2948
ssg2895
S'()'
p2949
sg2897
S'getPhylotasticTree'
p2950
sa(dp2951
g2874
S'/usr/lib/python2.7/urllib2.py'
p2952
sg2876
(dp2953
S'_opener.open'
p2954
S'<bound method OpenerDirector.open of <urllib2.OpenerDirector instance>>'
p2955
sS'url'
p2956
S"'http://phylotastic-wg.nescent.org/script/phylota...ulatta,Pan_troglodytes&tree=mammals&format=newick'"
p2957
sS'data'
p2958
S'None'
p2959
sS'global _opener'
p2960
S'<urllib2.OpenerDirector instance>'
p2961
sS'timeout'
p2962
S'<object object>'
p2963
ssg2882
I126
sg2883
(dp2964
I128
S'def install_opener(opener):'
p2965
sI129
S'    global _opener'
p2966
sI130
S'    _opener = opener'
p2967
sI121
S'_opener = None'
p2968
sI122
S'def urlopen(url, data=None, timeout=socket._GLOBAL_DEFAULT_TIMEOUT):'
p2969
sI123
S'    global _opener'
p2970
sI124
S'    if _opener is None:'
p2971
sI125
S'        _opener = build_opener()'
p2972
sI126
S'    return _opener.open(url, data, timeout)'
p2973
sI127
S''
ssg2895
S"(url='http://phylotastic-wg.nescent.org/script/phylota...ulatta,Pan_troglodytes&tree=mammals&format=newick', data=None, timeout=<object object>)"
p2974
sg2897
S'urlopen'
p2975
sa(dp2976
g2874
S'/usr/lib/python2.7/urllib2.py'
p2977
sg2876
(dp2978
S'self'
p2979
S'<urllib2.OpenerDirector instance>'
p2980
sS'req'
p2981
S'<urllib2.Request instance>'
p2982
sS'data'
p2983
S'None'
p2984
sS'response'
p2985
g2916
sS'self._open'
p2986
S'<bound method OpenerDirector._open of <urllib2.OpenerDirector instance>>'
p2987
ssg2882
I400
sg2883
(dp2988
I395
S'        meth_name = protocol+"_request"'
p2989
sI396
S'        for processor in self.process_request.get(protocol, []):'
p2990
sI397
S'            meth = getattr(processor, meth_name)'
p2991
sI398
S'            req = meth(req)'
p2992
sI399
S''
sI400
S'        response = self._open(req, data)'
p2993
sI401
S''
sI402
S'        # post-process response'
p2994
sI403
S'        meth_name = protocol+"_response"'
p2995
sI404
S'        for processor in self.process_response.get(protocol, []):'
p2996
ssg2895
S"(self=<urllib2.OpenerDirector instance>, fullurl='http://phylotastic-wg.nescent.org/script/phylota...ulatta,Pan_troglodytes&tree=mammals&format=newick', data=None, timeout=<object object>)"
p2997
sg2897
S'open'
p2998
sa(dp2999
g2874
S'/usr/lib/python2.7/urllib2.py'
p3000
sg2876
(dp3001
S'req'
p3002
S'<urllib2.Request instance>'
p3003
ssg2882
I418
sg2883
(dp3004
I416
S'        protocol = req.get_type()'
p3005
sI417
S'        result = self._call_chain(self.handle_open, protocol, protocol +'
p3006
sI418
S"                                  '_open', req)"
p3007
sI419
S'        if result:'
p3008
sI420
S'            return result'
p3009
sI421
S''
sI422
S"        return self._call_chain(self.handle_open, 'unknown',"
p3010
sI413
S'        if result:'
p3011
sI414
S'            return result'
p3012
sI415
S''
ssg2895
S'(self=<urllib2.OpenerDirector instance>, req=<urllib2.Request instance>, data=None)'
p3013
sg2897
S'_open'
p3014
sa(dp3015
g2874
S'/usr/lib/python2.7/urllib2.py'
p3016
sg2876
(dp3017
S'args'
p3018
S'(<urllib2.Request instance>,)'
p3019
sS'result'
p3020
g2916
sS'func'
p3021
S'<bound method HTTPHandler.http_open of <urllib2.HTTPHandler instance>>'
p3022
ssg2882
I378
sg2883
(dp3023
I373
S'        # could.  Otherwise, they return the response.'
p3024
sI374
S'        handlers = chain.get(kind, ())'
p3025
sI375
S'        for handler in handlers:'
p3026
sI376
S'            func = getattr(handler, meth_name)'
p3027
sI377
S''
sI378
S'            result = func(*args)'
p3028
sI379
S'            if result is not None:'
p3029
sI380
S'                return result'
p3030
sI381
S''
sI382
S'    def open(self, fullurl, data=None, timeout=socket._GLOBAL_DEFAULT_TIMEOUT):'
p3031
ssg2895
S"(self=<urllib2.OpenerDirector instance>, chain={'file': [<urllib2.FileHandler instance>], 'ftp': [<urllib2.FTPHandler instance>], 'http': [<urllib2.HTTPHandler instance>], 'https': [<urllib2.HTTPSHandler instance>], 'unknown': [<urllib2.UnknownHandler instance>]}, kind='http', meth_name='http_open', *args=(<urllib2.Request instance>,))"
p3032
sg2897
S'_call_chain'
p3033
sa(dp3034
g2874
S'/usr/lib/python2.7/urllib2.py'
p3035
sg2876
(dp3036
S'self'
p3037
S'<urllib2.HTTPHandler instance>'
p3038
sS'req'
p3039
S'<urllib2.Request instance>'
p3040
sS'global httplib'
p3041
S"<module 'httplib' from '/usr/lib/python2.7/httplib.pyc'>"
p3042
sS'self.do_open'
p3043
S'<bound method HTTPHandler.do_open of <urllib2.HTTPHandler instance>>'
p3044
sS'httplib.HTTPConnection'
p3045
S'<class httplib.HTTPConnection>'
p3046
ssg2882
I1207
sg2883
(dp3047
I1202
S''
sI1203
S''
sI1204
S'class HTTPHandler(AbstractHTTPHandler):'
p3048
sI1205
S''
sI1206
S'    def http_open(self, req):'
p3049
sI1207
S'        return self.do_open(httplib.HTTPConnection, req)'
p3050
sI1208
S''
sI1209
S'    http_request = AbstractHTTPHandler.do_request_'
p3051
sI1210
S''
sI1211
S"if hasattr(httplib, 'HTTPS'):"
p3052
ssg2895
S'(self=<urllib2.HTTPHandler instance>, req=<urllib2.Request instance>)'
p3053
sg2897
S'http_open'
p3054
sa(dp3055
g2874
S'/usr/lib/python2.7/urllib2.py'
p3056
sg2876
(dp3057
S'err'
p3058
S"error(22, 'Invalid argument')"
p3059
sS'global URLError'
p3060
S"<class 'urllib2.URLError'>"
p3061
ssg2882
I1177
sg2883
(dp3062
I1172
S''
sI1173
S'        try:'
p3063
sI1174
S'            h.request(req.get_method(), req.get_selector(), req.data, headers)'
p3064
sI1175
S'        except socket.error, err: # XXX what error?'
p3065
sI1176
S'            h.close()'
p3066
sI1177
S'            raise URLError(err)'
p3067
sI1178
S'        else:'
p3068
sI1179
S'            try:'
p3069
sI1180
S'                r = h.getresponse(buffering=True)'
p3070
sI1181
S'            except TypeError: # buffering kw not supported'
p3071
ssg2895
S'(self=<urllib2.HTTPHandler instance>, http_class=<class httplib.HTTPConnection>, req=<urllib2.Request instance>)'
p3072
sg2897
S'do_open'
p3073
sasS'pyver'
p3074
S'Python 2.7.3: /usr/bin/python'
p3075
sS'session'
p3076
g69
(g70
g71
NtRp3077
(dp3078
g74
(dp3079
sg76
(lp3080
g69
(g78
g71
NtRp3081
(dp3082
g74
(dp3083
g82
I5
ssg83
Nsg76
(lp3084
sbasbsS'etype'
p3085
S"<class 'urllib2.URLError'>"
p3086
sS'date'
p3087
S'Fri May 17 13:34:40 2013'
p3088
sS'response'
p3089
g69
(g70
g71
NtRp3090
(dp3091
g74
(dp3092
sg76
(lp3093
g69
(g78
g71
NtRp3094
(dp3095
g74
(dp3096
g82
I5
ssg83
Nsg76
(lp3097
g69
(g85
g71
NtRp3098
(dp3099
g74
(dp3100
sg83
g3094
sg76
(lp3101
g69
(g90
g71
NtRp3102
(dp3103
g74
(dp3104
g94
g95
ssg83
g3098
sg76
(lp3105
g167
asbag69
(g90
g71
NtRp3106
(dp3107
g74
(dp3108
g101
g102
ssg83
g3098
sg76
(lp3109
S':'
asbag69
(g90
g71
NtRp3110
(dp3111
g74
(dp3112
sg83
g3098
sg76
(lp3113
g69
(g70
g71
NtRp3114
(dp3115
g74
(dp3116
g82
I5
ssg83
g3110
sg76
(lp3117
S'<cStringIO.StringO object at 0xb3db4440>'
p3118
asbasbasbag69
(g85
g71
NtRp3119
(dp3120
g74
(dp3121
sg83
g3094
sg76
(lp3122
g69
(g90
g71
NtRp3123
(dp3124
g74
(dp3125
g94
g95
ssg83
g3119
sg76
(lp3126
g233
asbag69
(g90
g71
NtRp3127
(dp3128
g74
(dp3129
g101
g102
ssg83
g3119
sg76
(lp3130
S':'
asbag69
(g90
g71
NtRp3131
(dp3132
g74
(dp3133
sg83
g3119
sg76
(lp3134
g69
(g70
g71
NtRp3135
(dp3136
g74
(dp3137
g82
I5
ssg83
g3131
sg76
(lp3138
g69
(g78
g71
NtRp3139
(dp3140
g74
(dp3141
g82
I4
ssg83
Nsg76
(lp3142
g69
(g85
g71
NtRp3143
(dp3144
g74
(dp3145
sg83
g3139
sg76
(lp3146
g69
(g90
g71
NtRp3147
(dp3148
g74
(dp3149
g94
g95
ssg83
g3143
sg76
(lp3150
S'session_id_phyloshiny'
p3151
asbag69
(g90
g71
NtRp3152
(dp3153
g74
(dp3154
g101
g102
ssg83
g3143
sg76
(lp3155
S':'
asbag69
(g90
g71
NtRp3156
(dp3157
g74
(dp3158
sg83
g3143
sg76
(lp3159
g69
(g70
g71
NtRp3160
(dp3161
g74
(dp3162
g82
I4
ssg83
g3156
sg76
(lp3163
g69
(g78
g71
NtRp3164
(dp3165
g74
(dp3166
g82
I3
ssg83
Nsg76
(lp3167
g69
(g85
g71
NtRp3168
(dp3169
g74
(dp3170
sg83
g3164
sg76
(lp3171
g69
(g90
g71
NtRp3172
(dp3173
g74
(dp3174
g94
g95
ssg83
g3168
sg76
(lp3175
g283
asbag69
(g90
g71
NtRp3176
(dp3177
g74
(dp3178
g101
g102
ssg83
g3168
sg76
(lp3179
S':'
asbag69
(g90
g71
NtRp3180
(dp3181
g74
(dp3182
sg83
g3168
sg76
(lp3183
g69
(g70
g71
NtRp3184
(dp3185
g74
(dp3186
g82
I3
ssg83
g3180
sg76
(lp3187
S''
asbasbasbag69
(g85
g71
NtRp3188
(dp3189
g74
(dp3190
sg83
g3164
sg76
(lp3191
g69
(g90
g71
NtRp3192
(dp3193
g74
(dp3194
g94
g95
ssg83
g3188
sg76
(lp3195
g304
asbag69
(g90
g71
NtRp3196
(dp3197
g74
(dp3198
g101
g102
ssg83
g3188
sg76
(lp3199
S':'
asbag69
(g90
g71
NtRp3200
(dp3201
g74
(dp3202
sg83
g3188
sg76
(lp3203
g69
(g70
g71
NtRp3204
(dp3205
g74
(dp3206
g82
I3
ssg83
g3200
sg76
(lp3207
S''
asbasbasbag69
(g85
g71
NtRp3208
(dp3209
g74
(dp3210
sg83
g3164
sg76
(lp3211
g69
(g90
g71
NtRp3212
(dp3213
g74
(dp3214
g94
g95
ssg83
g3208
sg76
(lp3215
g325
asbag69
(g90
g71
NtRp3216
(dp3217
g74
(dp3218
g101
g102
ssg83
g3208
sg76
(lp3219
S':'
asbag69
(g90
g71
NtRp3220
(dp3221
g74
(dp3222
sg83
g3208
sg76
(lp3223
g69
(g70
g71
NtRp3224
(dp3225
g74
(dp3226
g82
I3
ssg83
g3220
sg76
(lp3227
S''
asbasbasbag69
(g85
g71
NtRp3228
(dp3229
g74
(dp3230
sg83
g3164
sg76
(lp3231
g69
(g90
g71
NtRp3232
(dp3233
g74
(dp3234
g94
g95
ssg83
g3228
sg76
(lp3235
g346
asbag69
(g90
g71
NtRp3236
(dp3237
g74
(dp3238
g101
g102
ssg83
g3228
sg76
(lp3239
S':'
asbag69
(g90
g71
NtRp3240
(dp3241
g74
(dp3242
sg83
g3228
sg76
(lp3243
g69
(g70
g71
NtRp3244
(dp3245
g74
(dp3246
g82
I3
ssg83
g3240
sg76
(lp3247
S''
asbasbasbag69
(g85
g71
NtRp3248
(dp3249
g74
(dp3250
sg83
g3164
sg76
(lp3251
g69
(g90
g71
NtRp3252
(dp3253
g74
(dp3254
g94
g95
ssg83
g3248
sg76
(lp3255
g367
asbag69
(g90
g71
NtRp3256
(dp3257
g74
(dp3258
g101
g102
ssg83
g3248
sg76
(lp3259
S':'
asbag69
(g90
g71
NtRp3260
(dp3261
g74
(dp3262
sg83
g3248
sg76
(lp3263
g69
(g70
g71
NtRp3264
(dp3265
g74
(dp3266
g82
I3
ssg83
g3260
sg76
(lp3267
S''
asbasbasbag69
(g85
g71
NtRp3268
(dp3269
g74
(dp3270
sg83
g3164
sg76
(lp3271
g69
(g90
g71
NtRp3272
(dp3273
g74
(dp3274
g94
g95
ssg83
g3268
sg76
(lp3275
g388
asbag69
(g90
g71
NtRp3276
(dp3277
g74
(dp3278
g101
g102
ssg83
g3268
sg76
(lp3279
S':'
asbag69
(g90
g71
NtRp3280
(dp3281
g74
(dp3282
sg83
g3268
sg76
(lp3283
g69
(g70
g71
NtRp3284
(dp3285
g74
(dp3286
g82
I3
ssg83
g3280
sg76
(lp3287
S'/'
asbasbasbag69
(g85
g71
NtRp3288
(dp3289
g74
(dp3290
sg83
g3164
sg76
(lp3291
g69
(g90
g71
NtRp3292
(dp3293
g74
(dp3294
g94
g95
ssg83
g3288
sg76
(lp3295
g409
asbag69
(g90
g71
NtRp3296
(dp3297
g74
(dp3298
g101
g102
ssg83
g3288
sg76
(lp3299
S':'
asbag69
(g90
g71
NtRp3300
(dp3301
g74
(dp3302
sg83
g3288
sg76
(lp3303
g69
(g70
g71
NtRp3304
(dp3305
g74
(dp3306
g82
I3
ssg83
g3300
sg76
(lp3307
S''
asbasbasbag69
(g85
g71
NtRp3308
(dp3309
g74
(dp3310
sg83
g3164
sg76
(lp3311
g69
(g90
g71
NtRp3312
(dp3313
g74
(dp3314
g94
g95
ssg83
g3308
sg76
(lp3315
g430
asbag69
(g90
g71
NtRp3316
(dp3317
g74
(dp3318
g101
g102
ssg83
g3308
sg76
(lp3319
S':'
asbag69
(g90
g71
NtRp3320
(dp3321
g74
(dp3322
sg83
g3308
sg76
(lp3323
g69
(g70
g71
NtRp3324
(dp3325
g74
(dp3326
g82
I3
ssg83
g3320
sg76
(lp3327
S''
asbasbasbasbasbasbasbasbasbasbasbag69
(g85
g71
NtRp3328
(dp3329
g74
(dp3330
sg83
g3094
sg76
(lp3331
g69
(g90
g71
NtRp3332
(dp3333
g74
(dp3334
g94
g95
ssg83
g3328
sg76
(lp3335
S'files'
p3336
asbag69
(g90
g71
NtRp3337
(dp3338
g74
(dp3339
g101
g102
ssg83
g3328
sg76
(lp3340
S':'
asbag69
(g90
g71
NtRp3341
(dp3342
g74
(dp3343
sg83
g3328
sg76
(lp3344
g69
(g70
g71
NtRp3345
(dp3346
g74
(dp3347
g82
I5
ssg83
g3341
sg76
(lp3348
g69
(g78
g71
NtRp3349
(dp3350
g74
(dp3351
g82
I4
ssg83
Nsg76
(lp3352
sbasbasbasbag69
(g85
g71
NtRp3353
(dp3354
g74
(dp3355
sg83
g3094
sg76
(lp3356
g69
(g90
g71
NtRp3357
(dp3358
g74
(dp3359
g94
g95
ssg83
g3353
sg76
(lp3360
S'flash'
p3361
asbag69
(g90
g71
NtRp3362
(dp3363
g74
(dp3364
g101
g102
ssg83
g3353
sg76
(lp3365
S':'
asbag69
(g90
g71
NtRp3366
(dp3367
g74
(dp3368
sg83
g3353
sg76
(lp3369
g69
(g70
g71
NtRp3370
(dp3371
g74
(dp3372
g82
I5
ssg83
g3366
sg76
(lp3373
S''
asbasbasbag69
(g85
g71
NtRp3374
(dp3375
g74
(dp3376
sg83
g3094
sg76
(lp3377
g69
(g90
g71
NtRp3378
(dp3379
g74
(dp3380
g94
g95
ssg83
g3374
sg76
(lp3381
S'generic_patterns'
p3382
asbag69
(g90
g71
NtRp3383
(dp3384
g74
(dp3385
g101
g102
ssg83
g3374
sg76
(lp3386
S':'
asbag69
(g90
g71
NtRp3387
(dp3388
g74
(dp3389
sg83
g3374
sg76
(lp3390
g69
(g70
g71
NtRp3391
(dp3392
g74
(dp3393
g82
I5
ssg83
g3387
sg76
(lp3394
g69
(g78
g71
NtRp3395
(dp3396
g74
(dp3397
g82
I4
ssg83
Nsg76
(lp3398
g69
(g85
g71
NtRp3399
(dp3400
g74
(dp3401
sg83
g3395
sg76
(lp3402
g69
(g90
g71
NtRp3403
(dp3404
g74
(dp3405
sg83
g3399
sg76
(lp3406
g69
(g70
g71
NtRp3407
(dp3408
g74
(dp3409
g82
I4
ssg83
g3403
sg76
(lp3410
S'*'
asbasbasbasbasbasbasbag69
(g85
g71
NtRp3411
(dp3412
g74
(dp3413
sg83
g3094
sg76
(lp3414
g69
(g90
g71
NtRp3415
(dp3416
g74
(dp3417
g94
g95
ssg83
g3411
sg76
(lp3418
S'headers'
p3419
asbag69
(g90
g71
NtRp3420
(dp3421
g74
(dp3422
g101
g102
ssg83
g3411
sg76
(lp3423
S':'
asbag69
(g90
g71
NtRp3424
(dp3425
g74
(dp3426
sg83
g3411
sg76
(lp3427
g69
(g70
g71
NtRp3428
(dp3429
g74
(dp3430
g82
I5
ssg83
g3424
sg76
(lp3431
g69
(g78
g71
NtRp3432
(dp3433
g74
(dp3434
g82
I4
ssg83
Nsg76
(lp3435
g69
(g85
g71
NtRp3436
(dp3437
g74
(dp3438
sg83
g3432
sg76
(lp3439
g69
(g90
g71
NtRp3440
(dp3441
g74
(dp3442
g94
g95
ssg83
g3436
sg76
(lp3443
S'Cache-Control'
p3444
asbag69
(g90
g71
NtRp3445
(dp3446
g74
(dp3447
g101
g102
ssg83
g3436
sg76
(lp3448
S':'
asbag69
(g90
g71
NtRp3449
(dp3450
g74
(dp3451
sg83
g3436
sg76
(lp3452
g69
(g70
g71
NtRp3453
(dp3454
g74
(dp3455
g82
I4
ssg83
g3449
sg76
(lp3456
S'no-store, no-cache, must-revalidate, post-check=0, pre-check=0'
p3457
asbasbasbag69
(g85
g71
NtRp3458
(dp3459
g74
(dp3460
sg83
g3432
sg76
(lp3461
g69
(g90
g71
NtRp3462
(dp3463
g74
(dp3464
g94
g95
ssg83
g3458
sg76
(lp3465
S'Content-Type'
p3466
asbag69
(g90
g71
NtRp3467
(dp3468
g74
(dp3469
g101
g102
ssg83
g3458
sg76
(lp3470
S':'
asbag69
(g90
g71
NtRp3471
(dp3472
g74
(dp3473
sg83
g3458
sg76
(lp3474
g69
(g70
g71
NtRp3475
(dp3476
g74
(dp3477
g82
I4
ssg83
g3471
sg76
(lp3478
S'text/html; charset=utf-8'
p3479
asbasbasbag69
(g85
g71
NtRp3480
(dp3481
g74
(dp3482
sg83
g3432
sg76
(lp3483
g69
(g90
g71
NtRp3484
(dp3485
g74
(dp3486
g94
g95
ssg83
g3480
sg76
(lp3487
S'Expires'
p3488
asbag69
(g90
g71
NtRp3489
(dp3490
g74
(dp3491
g101
g102
ssg83
g3480
sg76
(lp3492
S':'
asbag69
(g90
g71
NtRp3493
(dp3494
g74
(dp3495
sg83
g3480
sg76
(lp3496
g69
(g70
g71
NtRp3497
(dp3498
g74
(dp3499
g82
I4
ssg83
g3493
sg76
(lp3500
S'Fri, 17 May 2013 08:03:37 GMT'
p3501
asbasbasbag69
(g85
g71
NtRp3502
(dp3503
g74
(dp3504
sg83
g3432
sg76
(lp3505
g69
(g90
g71
NtRp3506
(dp3507
g74
(dp3508
g94
g95
ssg83
g3502
sg76
(lp3509
S'Pragma'
p3510
asbag69
(g90
g71
NtRp3511
(dp3512
g74
(dp3513
g101
g102
ssg83
g3502
sg76
(lp3514
S':'
asbag69
(g90
g71
NtRp3515
(dp3516
g74
(dp3517
sg83
g3502
sg76
(lp3518
g69
(g70
g71
NtRp3519
(dp3520
g74
(dp3521
g82
I4
ssg83
g3515
sg76
(lp3522
S'no-cache'
p3523
asbasbasbag69
(g85
g71
NtRp3524
(dp3525
g74
(dp3526
sg83
g3432
sg76
(lp3527
g69
(g90
g71
NtRp3528
(dp3529
g74
(dp3530
g94
g95
ssg83
g3524
sg76
(lp3531
S'X-Powered-By'
p3532
asbag69
(g90
g71
NtRp3533
(dp3534
g74
(dp3535
g101
g102
ssg83
g3524
sg76
(lp3536
S':'
asbag69
(g90
g71
NtRp3537
(dp3538
g74
(dp3539
sg83
g3524
sg76
(lp3540
g69
(g70
g71
NtRp3541
(dp3542
g74
(dp3543
g82
I4
ssg83
g3537
sg76
(lp3544
S'web2py'
p3545
asbasbasbasbasbasbasbag69
(g85
g71
NtRp3546
(dp3547
g74
(dp3548
sg83
g3094
sg76
(lp3549
g69
(g90
g71
NtRp3550
(dp3551
g74
(dp3552
g94
g95
ssg83
g3546
sg76
(lp3553
S'menu'
p3554
asbag69
(g90
g71
NtRp3555
(dp3556
g74
(dp3557
g101
g102
ssg83
g3546
sg76
(lp3558
S':'
asbag69
(g90
g71
NtRp3559
(dp3560
g74
(dp3561
sg83
g3546
sg76
(lp3562
g69
(g70
g71
NtRp3563
(dp3564
g74
(dp3565
g82
I5
ssg83
g3559
sg76
(lp3566
g69
(g78
g71
NtRp3567
(dp3568
g74
(dp3569
g82
I4
ssg83
Nsg76
(lp3570
g69
(g85
g71
NtRp3571
(dp3572
g74
(dp3573
sg83
g3567
sg76
(lp3574
g69
(g90
g71
NtRp3575
(dp3576
g74
(dp3577
sg83
g3571
sg76
(lp3578
g69
(g70
g71
NtRp3579
(dp3580
g74
(dp3581
g82
I4
ssg83
g3575
sg76
(lp3582
g69
(g78
g71
NtRp3583
(dp3584
g74
(dp3585
g82
I3
ssg83
Nsg76
(lp3586
g69
(g85
g71
NtRp3587
(dp3588
g74
(dp3589
sg83
g3583
sg76
(lp3590
g69
(g90
g71
NtRp3591
(dp3592
g74
(dp3593
sg83
g3587
sg76
(lp3594
g69
(g70
g71
NtRp3595
(dp3596
g74
(dp3597
g82
I3
ssg83
g3591
sg76
(lp3598
cgluon.languages
lazyT_unpickle
p3599
(S't\x04\x00\x00\x00Home'
tRp3600
asbasbasbag69
(g85
g71
NtRp3601
(dp3602
g74
(dp3603
sg83
g3583
sg76
(lp3604
g69
(g90
g71
NtRp3605
(dp3606
g74
(dp3607
sg83
g3601
sg76
(lp3608
g69
(g70
g71
NtRp3609
(dp3610
g74
(dp3611
g82
I3
ssg83
g3605
sg76
(lp3612
g787
asbasbasbag69
(g85
g71
NtRp3613
(dp3614
g74
(dp3615
sg83
g3583
sg76
(lp3616
g69
(g90
g71
NtRp3617
(dp3618
g74
(dp3619
sg83
g3613
sg76
(lp3620
g69
(g70
g71
NtRp3621
(dp3622
g74
(dp3623
g82
I3
ssg83
g3617
sg76
(lp3624
S'/phyloShiny/default/index'
p3625
asbasbasbag69
(g85
g71
NtRp3626
(dp3627
g74
(dp3628
sg83
g3583
sg76
(lp3629
g69
(g90
g71
NtRp3630
(dp3631
g74
(dp3632
sg83
g3626
sg76
(lp3633
g69
(g70
g71
NtRp3634
(dp3635
g74
(dp3636
g82
I3
ssg83
g3630
sg76
(lp3637
g69
(g78
g71
NtRp3638
(dp3639
g74
(dp3640
g82
I2
ssg83
Nsg76
(lp3641
sbasbasbasbasbasbasbasbag69
(g85
g71
NtRp3642
(dp3643
g74
(dp3644
sg83
g3567
sg76
(lp3645
g69
(g90
g71
NtRp3646
(dp3647
g74
(dp3648
sg83
g3642
sg76
(lp3649
g69
(g70
g71
NtRp3650
(dp3651
g74
(dp3652
g82
I4
ssg83
g3646
sg76
(lp3653
g69
(g78
g71
NtRp3654
(dp3655
g74
(dp3656
g82
I3
ssg83
Nsg76
(lp3657
g69
(g85
g71
NtRp3658
(dp3659
g74
(dp3660
sg83
g3654
sg76
(lp3661
g69
(g90
g71
NtRp3662
(dp3663
g74
(dp3664
sg83
g3658
sg76
(lp3665
g69
(g70
g71
NtRp3666
(dp3667
g74
(dp3668
g82
I3
ssg83
g3662
sg76
(lp3669
g69
(cgluon.html
SPAN
p3670
g71
NtRp3671
(dp3672
g74
(dp3673
g94
S'color:yellow'
p3674
ssg83
Nsg76
(lp3675
g3545
asbasbasbasbag69
(g85
g71
NtRp3676
(dp3677
g74
(dp3678
sg83
g3654
sg76
(lp3679
g69
(g90
g71
NtRp3680
(dp3681
g74
(dp3682
sg83
g3676
sg76
(lp3683
g69
(g70
g71
NtRp3684
(dp3685
g74
(dp3686
g82
I3
ssg83
g3680
sg76
(lp3687
g787
asbasbasbag69
(g85
g71
NtRp3688
(dp3689
g74
(dp3690
sg83
g3654
sg76
(lp3691
g69
(g90
g71
NtRp3692
(dp3693
g74
(dp3694
sg83
g3688
sg76
(lp3695
g69
(g70
g71
NtRp3696
(dp3697
g74
(dp3698
g82
I3
ssg83
g3692
sg76
(lp3699
S'None'
p3700
asbasbasbag69
(g85
g71
NtRp3701
(dp3702
g74
(dp3703
sg83
g3654
sg76
(lp3704
g69
(g90
g71
NtRp3705
(dp3706
g74
(dp3707
sg83
g3701
sg76
(lp3708
g69
(g70
g71
NtRp3709
(dp3710
g74
(dp3711
g82
I3
ssg83
g3705
sg76
(lp3712
g69
(g78
g71
NtRp3713
(dp3714
g74
(dp3715
g82
I2
ssg83
Nsg76
(lp3716
g69
(g85
g71
NtRp3717
(dp3718
g74
(dp3719
sg83
g3713
sg76
(lp3720
g69
(g90
g71
NtRp3721
(dp3722
g74
(dp3723
sg83
g3717
sg76
(lp3724
g69
(g70
g71
NtRp3725
(dp3726
g74
(dp3727
g82
I2
ssg83
g3721
sg76
(lp3728
g69
(g78
g71
NtRp3729
(dp3730
g74
(dp3731
g82
I1
ssg83
Nsg76
(lp3732
g69
(g85
g71
NtRp3733
(dp3734
g74
(dp3735
sg83
g3729
sg76
(lp3736
g69
(g90
g71
NtRp3737
(dp3738
g74
(dp3739
sg83
g3733
sg76
(lp3740
g69
(g70
g71
NtRp3741
(dp3742
g74
(dp3743
g82
I1
ssg83
g3737
sg76
(lp3744
g3599
(S's\x08\x00\x00\x00My Sites'
tRp3745
asbasbasbag69
(g85
g71
NtRp3746
(dp3747
g74
(dp3748
sg83
g3729
sg76
(lp3749
g69
(g90
g71
NtRp3750
(dp3751
g74
(dp3752
sg83
g3746
sg76
(lp3753
g69
(g70
g71
NtRp3754
(dp3755
g74
(dp3756
g82
I1
ssg83
g3750
sg76
(lp3757
I00
asbasbasbag69
(g85
g71
NtRp3758
(dp3759
g74
(dp3760
sg83
g3729
sg76
(lp3761
g69
(g90
g71
NtRp3762
(dp3763
g74
(dp3764
sg83
g3758
sg76
(lp3765
g69
(g70
g71
NtRp3766
(dp3767
g74
(dp3768
g82
I1
ssg83
g3762
sg76
(lp3769
S'/admin/default/site'
p3770
asbasbasbasbasbasbasbag69
(g85
g71
NtRp3771
(dp3772
g74
(dp3773
sg83
g3713
sg76
(lp3774
g69
(g90
g71
NtRp3775
(dp3776
g74
(dp3777
sg83
g3771
sg76
(lp3778
g69
(g70
g71
NtRp3779
(dp3780
g74
(dp3781
g82
I2
ssg83
g3775
sg76
(lp3782
g69
(g78
g71
NtRp3783
(dp3784
g74
(dp3785
g82
I1
ssg83
Nsg76
(lp3786
g69
(g85
g71
NtRp3787
(dp3788
g74
(dp3789
sg83
g3783
sg76
(lp3790
g69
(g90
g71
NtRp3791
(dp3792
g74
(dp3793
sg83
g3787
sg76
(lp3794
g69
(g70
g71
NtRp3795
(dp3796
g74
(dp3797
g82
I1
ssg83
g3791
sg76
(lp3798
g3599
(S's\x08\x00\x00\x00This App'
tRp3799
asbasbasbag69
(g85
g71
NtRp3800
(dp3801
g74
(dp3802
sg83
g3783
sg76
(lp3803
g69
(g90
g71
NtRp3804
(dp3805
g74
(dp3806
sg83
g3800
sg76
(lp3807
g69
(g70
g71
NtRp3808
(dp3809
g74
(dp3810
g82
I1
ssg83
g3804
sg76
(lp3811
I00
asbasbasbag69
(g85
g71
NtRp3812
(dp3813
g74
(dp3814
sg83
g3783
sg76
(lp3815
g69
(g90
g71
NtRp3816
(dp3817
g74
(dp3818
sg83
g3812
sg76
(lp3819
g69
(g70
g71
NtRp3820
(dp3821
g74
(dp3822
g82
I1
ssg83
g3816
sg76
(lp3823
S'/admin/default/design/phyloShiny'
p3824
asbasbasbag69
(g85
g71
NtRp3825
(dp3826
g74
(dp3827
sg83
g3783
sg76
(lp3828
g69
(g90
g71
NtRp3829
(dp3830
g74
(dp3831
sg83
g3825
sg76
(lp3832
g69
(g70
g71
NtRp3833
(dp3834
g74
(dp3835
g82
I1
ssg83
g3829
sg76
(lp3836
(lp3837
(g3599
(S't\n\x00\x00\x00Controller'
tRp3838
I00
S'/admin/default/edit/phyloShiny/controllers/reconciliotastic.py'
tp3839
a(g3599
(S't\x04\x00\x00\x00View'
tRp3840
I00
S'/admin/default/edit/phyloShiny/views/reconciliotastic/getPhylotasticTree.html'
tp3841
a(g3599
(S't\x06\x00\x00\x00Layout'
tRp3842
I00
S'/admin/default/edit/phyloShiny/views/layout.html'
tp3843
a(g3599
(S't\n\x00\x00\x00Stylesheet'
tRp3844
I00
S'/admin/default/edit/phyloShiny/static/css/web2py.css'
tp3845
a(g3599
(S's\x08\x00\x00\x00DB Model'
tRp3846
I00
S'/admin/default/edit/phyloShiny/models/db.py'
tp3847
a(g3599
(S's\n\x00\x00\x00Menu Model'
tRp3848
I00
S'/admin/default/edit/phyloShiny/models/menu.py'
tp3849
a(g3599
(S't\x08\x00\x00\x00Database'
tRp3850
I00
S'/phyloShiny/appadmin/index'
tp3851
a(g3599
(S't\x06\x00\x00\x00Errors'
tRp3852
I00
S'/admin/default/errors/phyloShiny'
tp3853
a(g3599
(S't\x05\x00\x00\x00About'
tRp3854
I00
S'/admin/default/about/phyloShiny'
tp3855
aasbasbasbasbasbasbasbag69
(g85
g71
NtRp3856
(dp3857
g74
(dp3858
sg83
g3713
sg76
(lp3859
g69
(g90
g71
NtRp3860
(dp3861
g74
(dp3862
sg83
g3856
sg76
(lp3863
g69
(g70
g71
NtRp3864
(dp3865
g74
(dp3866
g82
I2
ssg83
g3860
sg76
(lp3867
g69
(g78
g71
NtRp3868
(dp3869
g74
(dp3870
g82
I1
ssg83
Nsg76
(lp3871
g69
(g85
g71
NtRp3872
(dp3873
g74
(dp3874
sg83
g3868
sg76
(lp3875
g69
(g90
g71
NtRp3876
(dp3877
g74
(dp3878
sg83
g3872
sg76
(lp3879
g69
(g70
g71
NtRp3880
(dp3881
g74
(dp3882
g82
I1
ssg83
g3876
sg76
(lp3883
S'web2py.com'
p3884
asbasbasbag69
(g85
g71
NtRp3885
(dp3886
g74
(dp3887
sg83
g3868
sg76
(lp3888
g69
(g90
g71
NtRp3889
(dp3890
g74
(dp3891
sg83
g3885
sg76
(lp3892
g69
(g70
g71
NtRp3893
(dp3894
g74
(dp3895
g82
I1
ssg83
g3889
sg76
(lp3896
I00
asbasbasbag69
(g85
g71
NtRp3897
(dp3898
g74
(dp3899
sg83
g3868
sg76
(lp3900
g69
(g90
g71
NtRp3901
(dp3902
g74
(dp3903
sg83
g3897
sg76
(lp3904
g69
(g70
g71
NtRp3905
(dp3906
g74
(dp3907
g82
I1
ssg83
g3901
sg76
(lp3908
S'http://www.web2py.com'
p3909
asbasbasbag69
(g85
g71
NtRp3910
(dp3911
g74
(dp3912
sg83
g3868
sg76
(lp3913
g69
(g90
g71
NtRp3914
(dp3915
g74
(dp3916
sg83
g3910
sg76
(lp3917
g69
(g70
g71
NtRp3918
(dp3919
g74
(dp3920
g82
I1
ssg83
g3914
sg76
(lp3921
(lp3922
(g3599
(S't\x08\x00\x00\x00Download'
tRp3923
I00
S'http://www.web2py.com/examples/default/download'
p3924
tp3925
a(g3599
(S't\x07\x00\x00\x00Support'
tRp3926
I00
S'http://www.web2py.com/examples/default/support'
p3927
tp3928
a(g3599
(S't\x04\x00\x00\x00Demo'
tRp3929
I00
S'http://web2py.com/demo_admin'
p3930
tp3931
a(g3599
(S's\x0e\x00\x00\x00Quick Examples'
tRp3932
I00
S'http://web2py.com/examples/default/examples'
p3933
tp3934
a(g3599
(S't\x03\x00\x00\x00FAQ'
tRp3935
I00
S'http://web2py.com/AlterEgo'
p3936
tp3937
a(g3599
(S't\x06\x00\x00\x00Videos'
tRp3938
I00
S'http://www.web2py.com/examples/default/videos/'
p3939
tp3940
a(g3599
(S's\x11\x00\x00\x00Free Applications'
tRp3941
I00
S'http://web2py.com/appliances'
p3942
tp3943
a(g3599
(S't\x07\x00\x00\x00Plugins'
tRp3944
I00
S'http://web2py.com/plugins'
p3945
tp3946
a(g3599
(S't\x07\x00\x00\x00Layouts'
tRp3947
I00
S'http://web2py.com/layouts'
p3948
tp3949
a(g3599
(S't\x07\x00\x00\x00Recipes'
tRp3950
I00
S'http://web2pyslices.com/'
p3951
tp3952
a(g3599
(S't\x08\x00\x00\x00Semantic'
tRp3953
I00
S'http://web2py.com/semantic'
p3954
tp3955
aasbasbasbasbasbasbasbag69
(g85
g71
NtRp3956
(dp3957
g74
(dp3958
sg83
g3713
sg76
(lp3959
g69
(g90
g71
NtRp3960
(dp3961
g74
(dp3962
sg83
g3956
sg76
(lp3963
g69
(g70
g71
NtRp3964
(dp3965
g74
(dp3966
g82
I2
ssg83
g3960
sg76
(lp3967
g69
(g78
g71
NtRp3968
(dp3969
g74
(dp3970
g82
I1
ssg83
Nsg76
(lp3971
g69
(g85
g71
NtRp3972
(dp3973
g74
(dp3974
sg83
g3968
sg76
(lp3975
g69
(g90
g71
NtRp3976
(dp3977
g74
(dp3978
sg83
g3972
sg76
(lp3979
g69
(g70
g71
NtRp3980
(dp3981
g74
(dp3982
g82
I1
ssg83
g3976
sg76
(lp3983
g3599
(S't\r\x00\x00\x00Documentation'
tRp3984
asbasbasbag69
(g85
g71
NtRp3985
(dp3986
g74
(dp3987
sg83
g3968
sg76
(lp3988
g69
(g90
g71
NtRp3989
(dp3990
g74
(dp3991
sg83
g3985
sg76
(lp3992
g69
(g70
g71
NtRp3993
(dp3994
g74
(dp3995
g82
I1
ssg83
g3989
sg76
(lp3996
I00
asbasbasbag69
(g85
g71
NtRp3997
(dp3998
g74
(dp3999
sg83
g3968
sg76
(lp4000
g69
(g90
g71
NtRp4001
(dp4002
g74
(dp4003
sg83
g3997
sg76
(lp4004
g69
(g70
g71
NtRp4005
(dp4006
g74
(dp4007
g82
I1
ssg83
g4001
sg76
(lp4008
S'http://www.web2py.com/book'
p4009
asbasbasbag69
(g85
g71
NtRp4010
(dp4011
g74
(dp4012
sg83
g3968
sg76
(lp4013
g69
(g90
g71
NtRp4014
(dp4015
g74
(dp4016
sg83
g4010
sg76
(lp4017
g69
(g70
g71
NtRp4018
(dp4019
g74
(dp4020
g82
I1
ssg83
g4014
sg76
(lp4021
(lp4022
(g3599
(S't\x07\x00\x00\x00Preface'
tRp4023
I00
S'http://www.web2py.com/book/default/chapter/00'
p4024
tp4025
a(g3599
(S't\x0c\x00\x00\x00Introduction'
tRp4026
I00
S'http://www.web2py.com/book/default/chapter/01'
p4027
tp4028
a(g3599
(S't\x06\x00\x00\x00Python'
tRp4029
I00
S'http://www.web2py.com/book/default/chapter/02'
p4030
tp4031
a(g3599
(S't\x08\x00\x00\x00Overview'
tRp4032
I00
S'http://www.web2py.com/book/default/chapter/03'
p4033
tp4034
a(g3599
(S's\x08\x00\x00\x00The Core'
tRp4035
I00
S'http://www.web2py.com/book/default/chapter/04'
p4036
tp4037
a(g3599
(S's\t\x00\x00\x00The Views'
tRp4038
I00
S'http://www.web2py.com/book/default/chapter/05'
p4039
tp4040
a(g3599
(S't\x08\x00\x00\x00Database'
tRp4041
I00
S'http://www.web2py.com/book/default/chapter/06'
p4042
tp4043
a(g3599
(S's\x14\x00\x00\x00Forms and Validators'
tRp4044
I00
S'http://www.web2py.com/book/default/chapter/07'
p4045
tp4046
a(g3599
(S's\r\x00\x00\x00Email and SMS'
tRp4047
I00
S'http://www.web2py.com/book/default/chapter/08'
p4048
tp4049
a(g3599
(S's\x0e\x00\x00\x00Access Control'
tRp4050
I00
S'http://www.web2py.com/book/default/chapter/09'
p4051
tp4052
a(g3599
(S't\x08\x00\x00\x00Services'
tRp4053
I00
S'http://www.web2py.com/book/default/chapter/10'
p4054
tp4055
a(g3599
(S's\x0c\x00\x00\x00Ajax Recipes'
tRp4056
I00
S'http://www.web2py.com/book/default/chapter/11'
p4057
tp4058
a(g3599
(S's\x16\x00\x00\x00Components and Plugins'
tRp4059
I00
S'http://www.web2py.com/book/default/chapter/12'
p4060
tp4061
a(g3599
(S's\x12\x00\x00\x00Deployment Recipes'
tRp4062
I00
S'http://www.web2py.com/book/default/chapter/13'
p4063
tp4064
a(g3599
(S's\r\x00\x00\x00Other Recipes'
tRp4065
I00
S'http://www.web2py.com/book/default/chapter/14'
p4066
tp4067
a(g3599
(S's\r\x00\x00\x00Buy this book'
tRp4068
I00
S'http://stores.lulu.com/web2py'
p4069
tp4070
aasbasbasbasbasbasbasbag69
(g85
g71
NtRp4071
(dp4072
g74
(dp4073
sg83
g3713
sg76
(lp4074
g69
(g90
g71
NtRp4075
(dp4076
g74
(dp4077
sg83
g4071
sg76
(lp4078
g69
(g70
g71
NtRp4079
(dp4080
g74
(dp4081
g82
I2
ssg83
g4075
sg76
(lp4082
g69
(g78
g71
NtRp4083
(dp4084
g74
(dp4085
g82
I1
ssg83
Nsg76
(lp4086
g69
(g85
g71
NtRp4087
(dp4088
g74
(dp4089
sg83
g4083
sg76
(lp4090
g69
(g90
g71
NtRp4091
(dp4092
g74
(dp4093
sg83
g4087
sg76
(lp4094
g69
(g70
g71
NtRp4095
(dp4096
g74
(dp4097
g82
I1
ssg83
g4091
sg76
(lp4098
g3599
(S't\t\x00\x00\x00Community'
tRp4099
asbasbasbag69
(g85
g71
NtRp4100
(dp4101
g74
(dp4102
sg83
g4083
sg76
(lp4103
g69
(g90
g71
NtRp4104
(dp4105
g74
(dp4106
sg83
g4100
sg76
(lp4107
g69
(g70
g71
NtRp4108
(dp4109
g74
(dp4110
g82
I1
ssg83
g4104
sg76
(lp4111
I00
asbasbasbag69
(g85
g71
NtRp4112
(dp4113
g74
(dp4114
sg83
g4083
sg76
(lp4115
g69
(g90
g71
NtRp4116
(dp4117
g74
(dp4118
sg83
g4112
sg76
(lp4119
g69
(g70
g71
NtRp4120
(dp4121
g74
(dp4122
g82
I1
ssg83
g4116
sg76
(lp4123
Nasbasbasbag69
(g85
g71
NtRp4124
(dp4125
g74
(dp4126
sg83
g4083
sg76
(lp4127
g69
(g90
g71
NtRp4128
(dp4129
g74
(dp4130
sg83
g4124
sg76
(lp4131
g69
(g70
g71
NtRp4132
(dp4133
g74
(dp4134
g82
I1
ssg83
g4128
sg76
(lp4135
(lp4136
(g3599
(S't\x06\x00\x00\x00Groups'
tRp4137
I00
S'http://www.web2py.com/examples/default/usergroups'
p4138
tp4139
a(g3599
(S't\x07\x00\x00\x00Twitter'
tRp4140
I00
S'http://twitter.com/web2py'
p4141
tp4142
a(g3599
(S's\t\x00\x00\x00Live Chat'
tRp4143
I00
S'http://webchat.freenode.net/?channels=web2py'
p4144
tp4145
aasbasbasbasbasbasbasbag69
(g85
g71
NtRp4146
(dp4147
g74
(dp4148
sg83
g3713
sg76
(lp4149
g69
(g90
g71
NtRp4150
(dp4151
g74
(dp4152
sg83
g4146
sg76
(lp4153
g69
(g70
g71
NtRp4154
(dp4155
g74
(dp4156
g82
I2
ssg83
g4150
sg76
(lp4157
g69
(g78
g71
NtRp4158
(dp4159
g74
(dp4160
g82
I1
ssg83
Nsg76
(lp4161
g69
(g85
g71
NtRp4162
(dp4163
g74
(dp4164
sg83
g4158
sg76
(lp4165
g69
(g90
g71
NtRp4166
(dp4167
g74
(dp4168
sg83
g4162
sg76
(lp4169
g69
(g70
g71
NtRp4170
(dp4171
g74
(dp4172
g82
I1
ssg83
g4166
sg76
(lp4173
g3599
(S't\x07\x00\x00\x00Plugins'
tRp4174
asbasbasbag69
(g85
g71
NtRp4175
(dp4176
g74
(dp4177
sg83
g4158
sg76
(lp4178
g69
(g90
g71
NtRp4179
(dp4180
g74
(dp4181
sg83
g4175
sg76
(lp4182
g69
(g70
g71
NtRp4183
(dp4184
g74
(dp4185
g82
I1
ssg83
g4179
sg76
(lp4186
I00
asbasbasbag69
(g85
g71
NtRp4187
(dp4188
g74
(dp4189
sg83
g4158
sg76
(lp4190
g69
(g90
g71
NtRp4191
(dp4192
g74
(dp4193
sg83
g4187
sg76
(lp4194
g69
(g70
g71
NtRp4195
(dp4196
g74
(dp4197
g82
I1
ssg83
g4191
sg76
(lp4198
Nasbasbasbag69
(g85
g71
NtRp4199
(dp4200
g74
(dp4201
sg83
g4158
sg76
(lp4202
g69
(g90
g71
NtRp4203
(dp4204
g74
(dp4205
sg83
g4199
sg76
(lp4206
g69
(g70
g71
NtRp4207
(dp4208
g74
(dp4209
g82
I1
ssg83
g4203
sg76
(lp4210
(lp4211
(S'plugin_wiki'
p4212
I00
S'http://web2py.com/examples/default/download'
p4213
tp4214
a(g3599
(S's\r\x00\x00\x00Other Plugins'
tRp4215
I00
g3945
tp4216
a(g3599
(S's\x0e\x00\x00\x00Layout Plugins'
tRp4217
I00
g3948
tp4218
aasbasbasbasbasbasbasbasbasbasbasbasbasbasbasbasbasbasbasbag69
(g85
g71
NtRp4219
(dp4220
g74
(dp4221
sg83
g3094
sg76
(lp4222
g69
(g90
g71
NtRp4223
(dp4224
g74
(dp4225
g94
g95
ssg83
g4219
sg76
(lp4226
S'meta'
p4227
asbag69
(g90
g71
NtRp4228
(dp4229
g74
(dp4230
g101
g102
ssg83
g4219
sg76
(lp4231
S':'
asbag69
(g90
g71
NtRp4232
(dp4233
g74
(dp4234
sg83
g4219
sg76
(lp4235
g69
(g70
g71
NtRp4236
(dp4237
g74
(dp4238
g82
I5
ssg83
g4232
sg76
(lp4239
g69
(g78
g71
NtRp4240
(dp4241
g74
(dp4242
g82
I4
ssg83
Nsg76
(lp4243
g69
(g85
g71
NtRp4244
(dp4245
g74
(dp4246
sg83
g4240
sg76
(lp4247
g69
(g90
g71
NtRp4248
(dp4249
g74
(dp4250
g94
g95
ssg83
g4244
sg76
(lp4251
S'author'
p4252
asbag69
(g90
g71
NtRp4253
(dp4254
g74
(dp4255
g101
g102
ssg83
g4244
sg76
(lp4256
S':'
asbag69
(g90
g71
NtRp4257
(dp4258
g74
(dp4259
sg83
g4244
sg76
(lp4260
g69
(g70
g71
NtRp4261
(dp4262
g74
(dp4263
g82
I4
ssg83
g4257
sg76
(lp4264
S'Your Name <you@example.com>'
p4265
asbasbasbag69
(g85
g71
NtRp4266
(dp4267
g74
(dp4268
sg83
g4240
sg76
(lp4269
g69
(g90
g71
NtRp4270
(dp4271
g74
(dp4272
g94
g95
ssg83
g4266
sg76
(lp4273
S'copyright'
p4274
asbag69
(g90
g71
NtRp4275
(dp4276
g74
(dp4277
g101
g102
ssg83
g4266
sg76
(lp4278
S':'
asbag69
(g90
g71
NtRp4279
(dp4280
g74
(dp4281
sg83
g4266
sg76
(lp4282
g69
(g70
g71
NtRp4283
(dp4284
g74
(dp4285
g82
I4
ssg83
g4279
sg76
(lp4286
S'Copyright 2011'
p4287
asbasbasbag69
(g85
g71
NtRp4288
(dp4289
g74
(dp4290
sg83
g4240
sg76
(lp4291
g69
(g90
g71
NtRp4292
(dp4293
g74
(dp4294
g94
g95
ssg83
g4288
sg76
(lp4295
S'description'
p4296
asbag69
(g90
g71
NtRp4297
(dp4298
g74
(dp4299
g101
g102
ssg83
g4288
sg76
(lp4300
S':'
asbag69
(g90
g71
NtRp4301
(dp4302
g74
(dp4303
sg83
g4288
sg76
(lp4304
g69
(g70
g71
NtRp4305
(dp4306
g74
(dp4307
g82
I4
ssg83
g4301
sg76
(lp4308
S'a cool new app'
p4309
asbasbasbag69
(g85
g71
NtRp4310
(dp4311
g74
(dp4312
sg83
g4240
sg76
(lp4313
g69
(g90
g71
NtRp4314
(dp4315
g74
(dp4316
g94
g95
ssg83
g4310
sg76
(lp4317
S'generator'
p4318
asbag69
(g90
g71
NtRp4319
(dp4320
g74
(dp4321
g101
g102
ssg83
g4310
sg76
(lp4322
S':'
asbag69
(g90
g71
NtRp4323
(dp4324
g74
(dp4325
sg83
g4310
sg76
(lp4326
g69
(g70
g71
NtRp4327
(dp4328
g74
(dp4329
g82
I4
ssg83
g4323
sg76
(lp4330
S'Web2py Web Framework'
p4331
asbasbasbag69
(g85
g71
NtRp4332
(dp4333
g74
(dp4334
sg83
g4240
sg76
(lp4335
g69
(g90
g71
NtRp4336
(dp4337
g74
(dp4338
g94
g95
ssg83
g4332
sg76
(lp4339
S'keywords'
p4340
asbag69
(g90
g71
NtRp4341
(dp4342
g74
(dp4343
g101
g102
ssg83
g4332
sg76
(lp4344
S':'
asbag69
(g90
g71
NtRp4345
(dp4346
g74
(dp4347
sg83
g4332
sg76
(lp4348
g69
(g70
g71
NtRp4349
(dp4350
g74
(dp4351
g82
I4
ssg83
g4345
sg76
(lp4352
S'web2py, python, framework'
p4353
asbasbasbasbasbasbasbag69
(g85
g71
NtRp4354
(dp4355
g74
(dp4356
sg83
g3094
sg76
(lp4357
g69
(g90
g71
NtRp4358
(dp4359
g74
(dp4360
g94
g95
ssg83
g4354
sg76
(lp4361
S'postprocessing'
p4362
asbag69
(g90
g71
NtRp4363
(dp4364
g74
(dp4365
g101
g102
ssg83
g4354
sg76
(lp4366
S':'
asbag69
(g90
g71
NtRp4367
(dp4368
g74
(dp4369
sg83
g4354
sg76
(lp4370
g69
(g70
g71
NtRp4371
(dp4372
g74
(dp4373
g82
I5
ssg83
g4367
sg76
(lp4374
g69
(g78
g71
NtRp4375
(dp4376
g74
(dp4377
g82
I4
ssg83
Nsg76
(lp4378
sbasbasbasbag69
(g85
g71
NtRp4379
(dp4380
g74
(dp4381
sg83
g3094
sg76
(lp4382
g69
(g90
g71
NtRp4383
(dp4384
g74
(dp4385
g94
g95
ssg83
g4379
sg76
(lp4386
S'session_filename'
p4387
asbag69
(g90
g71
NtRp4388
(dp4389
g74
(dp4390
g101
g102
ssg83
g4379
sg76
(lp4391
S':'
asbag69
(g90
g71
NtRp4392
(dp4393
g74
(dp4394
sg83
g4379
sg76
(lp4395
g69
(g70
g71
NtRp4396
(dp4397
g74
(dp4398
g82
I5
ssg83
g4392
sg76
(lp4399
S'/home/prateek/web2py/applications/phyloShiny/sessions/127.0.0.1-f433c40d-7791-4270-aeb0-00e97d39c5ab'
p4400
asbasbasbag69
(g85
g71
NtRp4401
(dp4402
g74
(dp4403
sg83
g3094
sg76
(lp4404
g69
(g90
g71
NtRp4405
(dp4406
g74
(dp4407
g94
g95
ssg83
g4401
sg76
(lp4408
S'session_id'
p4409
asbag69
(g90
g71
NtRp4410
(dp4411
g74
(dp4412
g101
g102
ssg83
g4401
sg76
(lp4413
S':'
asbag69
(g90
g71
NtRp4414
(dp4415
g74
(dp4416
sg83
g4401
sg76
(lp4417
g69
(g70
g71
NtRp4418
(dp4419
g74
(dp4420
g82
I5
ssg83
g4414
sg76
(lp4421
S'127.0.0.1-f433c40d-7791-4270-aeb0-00e97d39c5ab'
p4422
asbasbasbag69
(g85
g71
NtRp4423
(dp4424
g74
(dp4425
sg83
g3094
sg76
(lp4426
g69
(g90
g71
NtRp4427
(dp4428
g74
(dp4429
g94
g95
ssg83
g4423
sg76
(lp4430
S'session_id_name'
p4431
asbag69
(g90
g71
NtRp4432
(dp4433
g74
(dp4434
g101
g102
ssg83
g4423
sg76
(lp4435
S':'
asbag69
(g90
g71
NtRp4436
(dp4437
g74
(dp4438
sg83
g4423
sg76
(lp4439
g69
(g70
g71
NtRp4440
(dp4441
g74
(dp4442
g82
I5
ssg83
g4436
sg76
(lp4443
g3151
asbasbasbag69
(g85
g71
NtRp4444
(dp4445
g74
(dp4446
sg83
g3094
sg76
(lp4447
g69
(g90
g71
NtRp4448
(dp4449
g74
(dp4450
g94
g95
ssg83
g4444
sg76
(lp4451
S'session_new'
p4452
asbag69
(g90
g71
NtRp4453
(dp4454
g74
(dp4455
g101
g102
ssg83
g4444
sg76
(lp4456
S':'
asbag69
(g90
g71
NtRp4457
(dp4458
g74
(dp4459
sg83
g4444
sg76
(lp4460
g69
(g70
g71
NtRp4461
(dp4462
g74
(dp4463
g82
I5
ssg83
g4457
sg76
(lp4464
g112
asbasbasbag69
(g85
g71
NtRp4465
(dp4466
g74
(dp4467
sg83
g3094
sg76
(lp4468
g69
(g90
g71
NtRp4469
(dp4470
g74
(dp4471
g94
g95
ssg83
g4465
sg76
(lp4472
S'status'
p4473
asbag69
(g90
g71
NtRp4474
(dp4475
g74
(dp4476
g101
g102
ssg83
g4465
sg76
(lp4477
S':'
asbag69
(g90
g71
NtRp4478
(dp4479
g74
(dp4480
sg83
g4465
sg76
(lp4481
g69
(g70
g71
NtRp4482
(dp4483
g74
(dp4484
g82
I5
ssg83
g4478
sg76
(lp4485
S'200'
p4486
asbasbasbag69
(g85
g71
NtRp4487
(dp4488
g74
(dp4489
sg83
g3094
sg76
(lp4490
g69
(g90
g71
NtRp4491
(dp4492
g74
(dp4493
g94
g95
ssg83
g4487
sg76
(lp4494
S'subtitle'
p4495
asbag69
(g90
g71
NtRp4496
(dp4497
g74
(dp4498
g101
g102
ssg83
g4487
sg76
(lp4499
S':'
asbag69
(g90
g71
NtRp4500
(dp4501
g74
(dp4502
sg83
g4487
sg76
(lp4503
g69
(g70
g71
NtRp4504
(dp4505
g74
(dp4506
g82
I5
ssg83
g4500
sg76
(lp4507
g3599
(S's\r\x00\x00\x00customize me!'
tRp4508
asbasbasbag69
(g85
g71
NtRp4509
(dp4510
g74
(dp4511
sg83
g3094
sg76
(lp4512
g69
(g90
g71
NtRp4513
(dp4514
g74
(dp4515
g94
g95
ssg83
g4509
sg76
(lp4516
S'title'
p4517
asbag69
(g90
g71
NtRp4518
(dp4519
g74
(dp4520
g101
g102
ssg83
g4509
sg76
(lp4521
S':'
asbag69
(g90
g71
NtRp4522
(dp4523
g74
(dp4524
sg83
g4509
sg76
(lp4525
g69
(g70
g71
NtRp4526
(dp4527
g74
(dp4528
g82
I5
ssg83
g4522
sg76
(lp4529
S'Phyloshiny'
p4530
asbasbasbag69
(g85
g71
NtRp4531
(dp4532
g74
(dp4533
sg83
g3094
sg76
(lp4534
g69
(g90
g71
NtRp4535
(dp4536
g74
(dp4537
g94
g95
ssg83
g4531
sg76
(lp4538
g2192
asbag69
(g90
g71
NtRp4539
(dp4540
g74
(dp4541
g101
g102
ssg83
g4531
sg76
(lp4542
S':'
asbag69
(g90
g71
NtRp4543
(dp4544
g74
(dp4545
sg83
g4531
sg76
(lp4546
g69
(g70
g71
NtRp4547
(dp4548
g74
(dp4549
g82
I5
ssg83
g4543
sg76
(lp4550
g2205
asbasbasbag69
(g85
g71
NtRp4551
(dp4552
g74
(dp4553
sg83
g3094
sg76
(lp4554
g69
(g90
g71
NtRp4555
(dp4556
g74
(dp4557
g94
g95
ssg83
g4551
sg76
(lp4558
S'view'
p4559
asbag69
(g90
g71
NtRp4560
(dp4561
g74
(dp4562
g101
g102
ssg83
g4551
sg76
(lp4563
S':'
asbag69
(g90
g71
NtRp4564
(dp4565
g74
(dp4566
sg83
g4551
sg76
(lp4567
g69
(g70
g71
NtRp4568
(dp4569
g74
(dp4570
g82
I5
ssg83
g4564
sg76
(lp4571
S'reconciliotastic/getPhylotasticTree.html'
p4572
asbasbasbasbasbsS'locals'
p4573
(dp4574
S'err'
p4575
S"error(22, 'Invalid argument')"
p4576
sS'h'
S'<httplib.HTTPConnection instance>'
p4577
sS'self'
p4578
S'<urllib2.HTTPHandler instance>'
p4579
sS'req'
p4580
S'<urllib2.Request instance>'
p4581
sg3419
S"{'Connection': 'close', 'Host': 'phylotastic-wg.nescent.org', 'User-Agent': 'Python-urllib/2.7'}"
p4582
sS'host'
p4583
S"'phylotastic-wg.nescent.org'"
p4584
sS'http_class'
p4585
S'<class httplib.HTTPConnection>'
p4586
sssS'traceback'
p4587
S'Traceback (most recent call last):\n  File "/usr/lib/pymodules/python2.7/gluon/restricted.py", line 204, in restricted\n    exec ccode in environment\n  File "/home/prateek/web2py/applications/phyloShiny/controllers/reconciliotastic.py", line 178, in <module>\n  File "/usr/lib/pymodules/python2.7/gluon/globals.py", line 172, in <lambda>\n    self._caller = lambda f: f()\n  File "/home/prateek/web2py/applications/phyloShiny/controllers/reconciliotastic.py", line 113, in getPhylotasticTree\n    conn = urllib2.urlopen(speciesTreeUrl)\n  File "/usr/lib/python2.7/urllib2.py", line 126, in urlopen\n    return _opener.open(url, data, timeout)\n  File "/usr/lib/python2.7/urllib2.py", line 400, in open\n    response = self._open(req, data)\n  File "/usr/lib/python2.7/urllib2.py", line 418, in _open\n    \'_open\', req)\n  File "/usr/lib/python2.7/urllib2.py", line 378, in _call_chain\n    result = func(*args)\n  File "/usr/lib/python2.7/urllib2.py", line 1207, in http_open\n    return self.do_open(httplib.HTTPConnection, req)\n  File "/usr/lib/python2.7/urllib2.py", line 1177, in do_open\n    raise URLError(err)\nURLError: <urlopen error [Errno 22] Invalid argument>\n'
p4588
s.