(dp1
S'output'
p2
S"<type 'exceptions.IOError'> [Errno 2] No such file or directory: 'speciesTreeFilename'"
p3
sS'layer'
p4
S'/home/prateek/web2py/applications/phyloShiny/controllers/reconciliotastic.py'
p5
sS'code'
p6
S'# -*- coding: utf-8 -*-\n# this file is released under public domain and you can use without limitations\n\n#########################################################################\n## This is a sample controller\n## - index is the default action of any application\n## - user is required for authentication and authorization\n## - download is for downloading files uploaded in the db (does streaming)\n## - call exposes all registered services (none by default)\n#########################################################################\nimport os\nimport socket\nimport urllib2\nfrom gluon import *\nimport Bio\nfrom Bio import Phylo\t\t\t\t\t\t \t\t#import biopython modules as per requirement \n\ndef index():\n    rootFolder = current.request.folder\n    folders = os.listdir(rootFolder+\'static/sample_data/\')\n\n    # Go through the subfolders within sample_data, only keep folders\n    # that match \'demo\'\n    folders = [x.split(\'_\',1)[1] for x in folders if x.split(\'_\')[0] == \'demo\']\n    folderLabels = [x.replace(\'_\', \' \') for x in folders]\n\n    # Return a list of tuples, like [ [\'Mammal_Hemoglobin\', \'Mammal Hemoglobin\'] , ... ]\n    # This lets us have nice display names in the <select> element in the view.\n    foldersAndLabels = zip(folders, folderLabels)\n    return dict(foldersAndLabels=foldersAndLabels)\n\ndef getFileName():\n    # Returns the absolute filename for the "input" gene tree\n    # file. Uses the treeFileName request parameter, as that\'s our\n    # main state-tracking value passed between the view and controller\n    # between each step.\n    rootFolder = current.request.folder\n    absoluteFileName = rootFolder+current.request.vars.treeFileName\n    return absoluteFileName\n\ndef getRelativeWebPath(suffix):\n    # Currently a no-op.\n    return suffix\n\ndef visualize():\n    # Visualize controller. Does some preprocessing before generating\n    # the HTML for viewing a given tree.\n\n    # Takes in the \'treeName\' and \'file\' params, and creates the URL\n    # which can be used to access / download the given tree file. This\n    # is only really necessary because the <applet> tag requires a\n    # parameter, which is then sent to Archaeopteryx, that requires\n    # the *entire* URL of the tree to load. With a non-applet based\n    # visualization this wouldn\'t be an issue.\n    treeFile = current.request.vars.treeName\n    suffix = current.request.vars.file\n\n    # Use the request http_host.\n    hostname = current.request.env.http_host\n\n    # Toggle to phylotastic URL if we detect a NESCENT socket host.\n    socket_hostname = socket.gethostname()\n    if \'phylotastic\' in socket_hostname.lower():\n        hostname = \'phylotastic.nescent.org\'\n\n    treeUrl = URL(\'static\', \'sample_data/demo_\'+treeFile+\'/input_genetree.nwk\'+suffix,\n                 scheme=\'http\', host=hostname)\n\n    return dict(treeUrl=treeUrl,\n                header=current.request.vars.header)\n\ndef getSpeciesList():\n    # Absolute file name of the input tree file.\n    absoluteFileName = getFileName()\n    # "Prefix", i.e. the input tree file without the ending\n    # \'.txt\'. This is used as the prefix for all generated output\n    # files\n    filePrefix = absoluteFileName[:-4]\n\n    shellCall = \'java -Xmx1024m -cp \'\n    shellCall += current.request.folder+\'static/lib/forester.jar \'\n    shellCall += \'org.forester.application.gene_tree_preprocess \'\n    shellCall += absoluteFileName\n    os.system(shellCall)\n\n    removedNodes = [l.strip() for l in open(filePrefix+\'_removed_nodes.txt\').readlines()]\n    keptNodes = [l.strip() for l in open(filePrefix+\'_species_present.txt\').readlines()]\n    \n    geneTreeFile = getRelativeWebPath(\'_preprocessed_gene_tree.phylo.xml\')\n\n    # Note: we always return the \'vizFile\' and \'vizLabel\' data values\n    # from each Ajax call, as they\'re used consistently by the\n    # front-end to generate visualization links.\n    return response.json( dict(vizFile = geneTreeFile,\n                               vizLabel = "Input Gene Tree",\n                               removedNodes = removedNodes, \n                               keptNodes = keptNodes))\n\ndef getPhylotasticTree():\n    absoluteFileName = getFileName()\n    filePrefix = absoluteFileName[:-4]\n\n    # Load the kept nodes and create the comma-delimited species\n    # string for sending to PTastic\n    speciesList = [l.strip() for l in open(filePrefix+\'_species_present.txt\').readlines()]\n    # Need underscores instead of spaces\n    speciesList = [x.replace(\' \', \'_\') for x in speciesList]\n    speciesString = \',\'.join(speciesList)\n\n    phylotasticUrlBase = \'http://phylotastic-wg.nescent.org/script/phylotastic.cgi?species=\'\n    speciesTreeUrl = phylotasticUrlBase+speciesString+\'&tree=mammals&format=newick\'\n    conn = urllib2.urlopen(speciesTreeUrl)\n    speciesTreeString = conn.read()\n    speciesTreeString = speciesTreeString.strip()\n\n    speciesTreeFilename = filePrefix+\'_species_tree.txt\'\n    open(speciesTreeFilename,\'w\').write(speciesTreeString)\n\n    # TODO: It would be nice here to count the number of species in\n    # the returned species tree, so we can let users know if PTastic\n    # found everything we searched for. This would require parsing the\n    # Newick and counting nodes, probably using something like\n    # BioPython rather than making an external call to Java again.\n    \n    got_nodes=countnodes()\n    #no. of non-terminal nodes received in got_nodes.Now can be printed or checked with user input value to test if all species received.\n    #then further we can maintain a textview in the frontend indicating the number of nodes(i.e. the number of species)\n\n    speciesTreeWebFile = getRelativeWebPath(\'_species_tree.txt\')\n\n    return response.json( dict(vizFile = speciesTreeWebFile,\n                               vizLabel = "Phylotastic Species Tree",\n\t\t\t       got_nodes=got_nodes\n                               ) )\n\ndef countnodes():\n\n    #setting a counter for counting nodes i.e.number of species in the species newick tree.\n    #I have referenced the link http://biopython.org/DIST/docs/tutorial/Tutorial.html#htoc182 to know the get_terminals() function\n\n    count=0\t\t\t\t\t\t\t\t\t#global counter to keep the count of the nodes\n    tree = Phylo.read(\'speciesTreeFilename\', \'newick\')\t\t\t\t#tree reads the species labels in newick format\n    for node in tree.get_terminals(): \t\t\t\t\t#loop to traverse through these nodes\n\t    count+=1\t\t\t\t\t\t\t\t\t#updating counter value\n    return count\t\t\t\t\t\t\t\t#counter value return\n\n\ndef reconcileTrees():\n    absoluteFileName = getFileName()\n    filePrefix = absoluteFileName[:-4]\n\n    geneTreeFile = filePrefix+\'_preprocessed_gene_tree.phylo.xml\'\n    speciesTreeFile = filePrefix+\'_species_tree.txt\'\n\n    shellCall = \'java -Xmx1024m -cp \'\n    shellCall += current.request.folder+\'static/lib/forester.jar \'\n    shellCall += \'org.forester.application.gsdi \'\n    shellCall += \'-m -q \'\n    shellCall += geneTreeFile\n    shellCall += \' \'+speciesTreeFile\n\n    os.system(shellCall)\n    \n    reconciledTreeWebFile = getRelativeWebPath(\'_preprocessed_gene_tree.phylo_gsdi_out.phylo.xml\')\n    \n    return response.json( dict(vizFile = reconciledTreeWebFile,\n                               vizLabel = "Reconciled Tree (red=duplication, green=speciation)"\n                               ) )\n\nresponse._vars=response._caller(getPhylotasticTree)\n'
p7
sS'snapshot'
p8
(dp9
S'exception'
p10
(dp11
S'__getslice__'
p12
S"<method-wrapper '__getslice__' of exceptions.IOError object>"
p13
sS'__str__'
p14
S"<method-wrapper '__str__' of exceptions.IOError object>"
p15
sS'__reduce__'
p16
S'<built-in method __reduce__ of exceptions.IOError object>'
p17
sS'__dict__'
p18
S'{}'
p19
sS'__sizeof__'
p20
S'<built-in method __sizeof__ of exceptions.IOError object>'
p21
sS'__init__'
p22
S"<method-wrapper '__init__' of exceptions.IOError object>"
p23
sS'__setattr__'
p24
S"<method-wrapper '__setattr__' of exceptions.IOError object>"
p25
sS'__reduce_ex__'
p26
S'<built-in method __reduce_ex__ of exceptions.IOError object>'
p27
sS'__new__'
p28
S'<built-in method __new__ of type object>'
p29
sS'errno'
p30
S'2'
sS'__format__'
p31
S'<built-in method __format__ of exceptions.IOError object>'
p32
sS'__class__'
p33
S"<type 'exceptions.IOError'>"
p34
sS'filename'
p35
S"'speciesTreeFilename'"
p36
sS'__doc__'
p37
S"'I/O operation failed.'"
p38
sS'__getitem__'
p39
S"<method-wrapper '__getitem__' of exceptions.IOError object>"
p40
sS'__setstate__'
p41
S'<built-in method __setstate__ of exceptions.IOError object>'
p42
sS'__getattribute__'
p43
S"<method-wrapper '__getattribute__' of exceptions.IOError object>"
p44
sS'args'
p45
S"(2, 'No such file or directory')"
p46
sS'__subclasshook__'
p47
S'<built-in method __subclasshook__ of type object>'
p48
sS'__unicode__'
p49
S'<built-in method __unicode__ of exceptions.IOError object>'
p50
sS'strerror'
p51
S"'No such file or directory'"
p52
sS'__delattr__'
p53
S"<method-wrapper '__delattr__' of exceptions.IOError object>"
p54
sS'__repr__'
p55
S"<method-wrapper '__repr__' of exceptions.IOError object>"
p56
sS'__hash__'
p57
S"<method-wrapper '__hash__' of exceptions.IOError object>"
p58
ssS'evalue'
p59
S"[Errno 2] No such file or directory: 'speciesTreeFilename'"
p60
sS'request'
p61
ccopy_reg
_reconstructor
p62
(cgluon.html
BEAUTIFY
p63
c__builtin__
object
p64
NtRp65
(dp66
S'attributes'
p67
(dp68
sS'components'
p69
(lp70
g62
(cgluon.html
TABLE
p71
g64
NtRp72
(dp73
g67
(dp74
S'level'
p75
I5
ssS'parent'
p76
Nsg69
(lp77
g62
(cgluon.html
TR
p78
g64
NtRp79
(dp80
g67
(dp81
sg76
g72
sg69
(lp82
g62
(cgluon.html
TD
p83
g64
NtRp84
(dp85
g67
(dp86
S'_style'
p87
S'font-weight:bold;vertical-align:top'
p88
ssg76
g79
sg69
(lp89
S'ajax'
p90
asbag62
(g83
g64
NtRp91
(dp92
g67
(dp93
S'_valign'
p94
S'top'
p95
ssg76
g79
sg69
(lp96
S':'
asbag62
(g83
g64
NtRp97
(dp98
g67
(dp99
sg76
g79
sg69
(lp100
g62
(g63
g64
NtRp101
(dp102
g67
(dp103
g75
I5
ssg76
g97
sg69
(lp104
S'True'
p105
asbasbasbag62
(g78
g64
NtRp106
(dp107
g67
(dp108
sg76
g72
sg69
(lp109
g62
(g83
g64
NtRp110
(dp111
g67
(dp112
g87
g88
ssg76
g106
sg69
(lp113
S'application'
p114
asbag62
(g83
g64
NtRp115
(dp116
g67
(dp117
g94
g95
ssg76
g106
sg69
(lp118
S':'
asbag62
(g83
g64
NtRp119
(dp120
g67
(dp121
sg76
g106
sg69
(lp122
g62
(g63
g64
NtRp123
(dp124
g67
(dp125
g75
I5
ssg76
g119
sg69
(lp126
S'phyloShiny'
p127
asbasbasbag62
(g78
g64
NtRp128
(dp129
g67
(dp130
sg76
g72
sg69
(lp131
g62
(g83
g64
NtRp132
(dp133
g67
(dp134
g87
g88
ssg76
g128
sg69
(lp135
g45
asbag62
(g83
g64
NtRp136
(dp137
g67
(dp138
g94
g95
ssg76
g128
sg69
(lp139
S':'
asbag62
(g83
g64
NtRp140
(dp141
g67
(dp142
sg76
g128
sg69
(lp143
g62
(g63
g64
NtRp144
(dp145
g67
(dp146
g75
I5
ssg76
g140
sg69
(lp147
g62
(g71
g64
NtRp148
(dp149
g67
(dp150
g75
I4
ssg76
Nsg69
(lp151
sbasbasbasbag62
(g78
g64
NtRp152
(dp153
g67
(dp154
sg76
g72
sg69
(lp155
g62
(g83
g64
NtRp156
(dp157
g67
(dp158
g87
g88
ssg76
g152
sg69
(lp159
S'body'
p160
asbag62
(g83
g64
NtRp161
(dp162
g67
(dp163
g94
g95
ssg76
g152
sg69
(lp164
S':'
asbag62
(g83
g64
NtRp165
(dp166
g67
(dp167
sg76
g152
sg69
(lp168
g62
(g63
g64
NtRp169
(dp170
g67
(dp171
g75
I5
ssg76
g165
sg69
(lp172
S'<cStringIO.StringO object at 0xaafc84c0>'
p173
asbasbasbag62
(g78
g64
NtRp174
(dp175
g67
(dp176
sg76
g72
sg69
(lp177
g62
(g83
g64
NtRp178
(dp179
g67
(dp180
g87
g88
ssg76
g174
sg69
(lp181
S'client'
p182
asbag62
(g83
g64
NtRp183
(dp184
g67
(dp185
g94
g95
ssg76
g174
sg69
(lp186
S':'
asbag62
(g83
g64
NtRp187
(dp188
g67
(dp189
sg76
g174
sg69
(lp190
g62
(g63
g64
NtRp191
(dp192
g67
(dp193
g75
I5
ssg76
g187
sg69
(lp194
S'127.0.0.1'
p195
asbasbasbag62
(g78
g64
NtRp196
(dp197
g67
(dp198
sg76
g72
sg69
(lp199
g62
(g83
g64
NtRp200
(dp201
g67
(dp202
g87
g88
ssg76
g196
sg69
(lp203
S'controller'
p204
asbag62
(g83
g64
NtRp205
(dp206
g67
(dp207
g94
g95
ssg76
g196
sg69
(lp208
S':'
asbag62
(g83
g64
NtRp209
(dp210
g67
(dp211
sg76
g196
sg69
(lp212
g62
(g63
g64
NtRp213
(dp214
g67
(dp215
g75
I5
ssg76
g209
sg69
(lp216
S'reconciliotastic'
p217
asbasbasbag62
(g78
g64
NtRp218
(dp219
g67
(dp220
sg76
g72
sg69
(lp221
g62
(g83
g64
NtRp222
(dp223
g67
(dp224
g87
g88
ssg76
g218
sg69
(lp225
S'cookies'
p226
asbag62
(g83
g64
NtRp227
(dp228
g67
(dp229
g94
g95
ssg76
g218
sg69
(lp230
S':'
asbag62
(g83
g64
NtRp231
(dp232
g67
(dp233
sg76
g218
sg69
(lp234
g62
(g63
g64
NtRp235
(dp236
g67
(dp237
g75
I5
ssg76
g231
sg69
(lp238
g62
(g71
g64
NtRp239
(dp240
g67
(dp241
g75
I4
ssg76
Nsg69
(lp242
g62
(g78
g64
NtRp243
(dp244
g67
(dp245
sg76
g239
sg69
(lp246
g62
(g83
g64
NtRp247
(dp248
g67
(dp249
g87
g88
ssg76
g243
sg69
(lp250
S'session_id_admin'
p251
asbag62
(g83
g64
NtRp252
(dp253
g67
(dp254
g94
g95
ssg76
g243
sg69
(lp255
S':'
asbag62
(g83
g64
NtRp256
(dp257
g67
(dp258
sg76
g243
sg69
(lp259
g62
(g63
g64
NtRp260
(dp261
g67
(dp262
g75
I4
ssg76
g256
sg69
(lp263
g62
(g71
g64
NtRp264
(dp265
g67
(dp266
g75
I3
ssg76
Nsg69
(lp267
g62
(g78
g64
NtRp268
(dp269
g67
(dp270
sg76
g264
sg69
(lp271
g62
(g83
g64
NtRp272
(dp273
g67
(dp274
g87
g88
ssg76
g268
sg69
(lp275
S'comment'
p276
asbag62
(g83
g64
NtRp277
(dp278
g67
(dp279
g94
g95
ssg76
g268
sg69
(lp280
S':'
asbag62
(g83
g64
NtRp281
(dp282
g67
(dp283
sg76
g268
sg69
(lp284
g62
(g63
g64
NtRp285
(dp286
g67
(dp287
g75
I3
ssg76
g281
sg69
(lp288
S''
asbasbasbag62
(g78
g64
NtRp289
(dp290
g67
(dp291
sg76
g264
sg69
(lp292
g62
(g83
g64
NtRp293
(dp294
g67
(dp295
g87
g88
ssg76
g289
sg69
(lp296
S'domain'
p297
asbag62
(g83
g64
NtRp298
(dp299
g67
(dp300
g94
g95
ssg76
g289
sg69
(lp301
S':'
asbag62
(g83
g64
NtRp302
(dp303
g67
(dp304
sg76
g289
sg69
(lp305
g62
(g63
g64
NtRp306
(dp307
g67
(dp308
g75
I3
ssg76
g302
sg69
(lp309
S''
asbasbasbag62
(g78
g64
NtRp310
(dp311
g67
(dp312
sg76
g264
sg69
(lp313
g62
(g83
g64
NtRp314
(dp315
g67
(dp316
g87
g88
ssg76
g310
sg69
(lp317
S'expires'
p318
asbag62
(g83
g64
NtRp319
(dp320
g67
(dp321
g94
g95
ssg76
g310
sg69
(lp322
S':'
asbag62
(g83
g64
NtRp323
(dp324
g67
(dp325
sg76
g310
sg69
(lp326
g62
(g63
g64
NtRp327
(dp328
g67
(dp329
g75
I3
ssg76
g323
sg69
(lp330
S''
asbasbasbag62
(g78
g64
NtRp331
(dp332
g67
(dp333
sg76
g264
sg69
(lp334
g62
(g83
g64
NtRp335
(dp336
g67
(dp337
g87
g88
ssg76
g331
sg69
(lp338
S'httponly'
p339
asbag62
(g83
g64
NtRp340
(dp341
g67
(dp342
g94
g95
ssg76
g331
sg69
(lp343
S':'
asbag62
(g83
g64
NtRp344
(dp345
g67
(dp346
sg76
g331
sg69
(lp347
g62
(g63
g64
NtRp348
(dp349
g67
(dp350
g75
I3
ssg76
g344
sg69
(lp351
S''
asbasbasbag62
(g78
g64
NtRp352
(dp353
g67
(dp354
sg76
g264
sg69
(lp355
g62
(g83
g64
NtRp356
(dp357
g67
(dp358
g87
g88
ssg76
g352
sg69
(lp359
S'max-age'
p360
asbag62
(g83
g64
NtRp361
(dp362
g67
(dp363
g94
g95
ssg76
g352
sg69
(lp364
S':'
asbag62
(g83
g64
NtRp365
(dp366
g67
(dp367
sg76
g352
sg69
(lp368
g62
(g63
g64
NtRp369
(dp370
g67
(dp371
g75
I3
ssg76
g365
sg69
(lp372
S''
asbasbasbag62
(g78
g64
NtRp373
(dp374
g67
(dp375
sg76
g264
sg69
(lp376
g62
(g83
g64
NtRp377
(dp378
g67
(dp379
g87
g88
ssg76
g373
sg69
(lp380
S'path'
p381
asbag62
(g83
g64
NtRp382
(dp383
g67
(dp384
g94
g95
ssg76
g373
sg69
(lp385
S':'
asbag62
(g83
g64
NtRp386
(dp387
g67
(dp388
sg76
g373
sg69
(lp389
g62
(g63
g64
NtRp390
(dp391
g67
(dp392
g75
I3
ssg76
g386
sg69
(lp393
S''
asbasbasbag62
(g78
g64
NtRp394
(dp395
g67
(dp396
sg76
g264
sg69
(lp397
g62
(g83
g64
NtRp398
(dp399
g67
(dp400
g87
g88
ssg76
g394
sg69
(lp401
S'secure'
p402
asbag62
(g83
g64
NtRp403
(dp404
g67
(dp405
g94
g95
ssg76
g394
sg69
(lp406
S':'
asbag62
(g83
g64
NtRp407
(dp408
g67
(dp409
sg76
g394
sg69
(lp410
g62
(g63
g64
NtRp411
(dp412
g67
(dp413
g75
I3
ssg76
g407
sg69
(lp414
S''
asbasbasbag62
(g78
g64
NtRp415
(dp416
g67
(dp417
sg76
g264
sg69
(lp418
g62
(g83
g64
NtRp419
(dp420
g67
(dp421
g87
g88
ssg76
g415
sg69
(lp422
S'version'
p423
asbag62
(g83
g64
NtRp424
(dp425
g67
(dp426
g94
g95
ssg76
g415
sg69
(lp427
S':'
asbag62
(g83
g64
NtRp428
(dp429
g67
(dp430
sg76
g415
sg69
(lp431
g62
(g63
g64
NtRp432
(dp433
g67
(dp434
g75
I3
ssg76
g428
sg69
(lp435
S''
asbasbasbasbasbasbasbag62
(g78
g64
NtRp436
(dp437
g67
(dp438
sg76
g239
sg69
(lp439
g62
(g83
g64
NtRp440
(dp441
g67
(dp442
g87
g88
ssg76
g436
sg69
(lp443
S'session_id_phyloshiny'
p444
asbag62
(g83
g64
NtRp445
(dp446
g67
(dp447
g94
g95
ssg76
g436
sg69
(lp448
S':'
asbag62
(g83
g64
NtRp449
(dp450
g67
(dp451
sg76
g436
sg69
(lp452
g62
(g63
g64
NtRp453
(dp454
g67
(dp455
g75
I4
ssg76
g449
sg69
(lp456
g62
(g71
g64
NtRp457
(dp458
g67
(dp459
g75
I3
ssg76
Nsg69
(lp460
g62
(g78
g64
NtRp461
(dp462
g67
(dp463
sg76
g457
sg69
(lp464
g62
(g83
g64
NtRp465
(dp466
g67
(dp467
g87
g88
ssg76
g461
sg69
(lp468
g276
asbag62
(g83
g64
NtRp469
(dp470
g67
(dp471
g94
g95
ssg76
g461
sg69
(lp472
S':'
asbag62
(g83
g64
NtRp473
(dp474
g67
(dp475
sg76
g461
sg69
(lp476
g62
(g63
g64
NtRp477
(dp478
g67
(dp479
g75
I3
ssg76
g473
sg69
(lp480
S''
asbasbasbag62
(g78
g64
NtRp481
(dp482
g67
(dp483
sg76
g457
sg69
(lp484
g62
(g83
g64
NtRp485
(dp486
g67
(dp487
g87
g88
ssg76
g481
sg69
(lp488
g297
asbag62
(g83
g64
NtRp489
(dp490
g67
(dp491
g94
g95
ssg76
g481
sg69
(lp492
S':'
asbag62
(g83
g64
NtRp493
(dp494
g67
(dp495
sg76
g481
sg69
(lp496
g62
(g63
g64
NtRp497
(dp498
g67
(dp499
g75
I3
ssg76
g493
sg69
(lp500
S''
asbasbasbag62
(g78
g64
NtRp501
(dp502
g67
(dp503
sg76
g457
sg69
(lp504
g62
(g83
g64
NtRp505
(dp506
g67
(dp507
g87
g88
ssg76
g501
sg69
(lp508
g318
asbag62
(g83
g64
NtRp509
(dp510
g67
(dp511
g94
g95
ssg76
g501
sg69
(lp512
S':'
asbag62
(g83
g64
NtRp513
(dp514
g67
(dp515
sg76
g501
sg69
(lp516
g62
(g63
g64
NtRp517
(dp518
g67
(dp519
g75
I3
ssg76
g513
sg69
(lp520
S''
asbasbasbag62
(g78
g64
NtRp521
(dp522
g67
(dp523
sg76
g457
sg69
(lp524
g62
(g83
g64
NtRp525
(dp526
g67
(dp527
g87
g88
ssg76
g521
sg69
(lp528
g339
asbag62
(g83
g64
NtRp529
(dp530
g67
(dp531
g94
g95
ssg76
g521
sg69
(lp532
S':'
asbag62
(g83
g64
NtRp533
(dp534
g67
(dp535
sg76
g521
sg69
(lp536
g62
(g63
g64
NtRp537
(dp538
g67
(dp539
g75
I3
ssg76
g533
sg69
(lp540
S''
asbasbasbag62
(g78
g64
NtRp541
(dp542
g67
(dp543
sg76
g457
sg69
(lp544
g62
(g83
g64
NtRp545
(dp546
g67
(dp547
g87
g88
ssg76
g541
sg69
(lp548
g360
asbag62
(g83
g64
NtRp549
(dp550
g67
(dp551
g94
g95
ssg76
g541
sg69
(lp552
S':'
asbag62
(g83
g64
NtRp553
(dp554
g67
(dp555
sg76
g541
sg69
(lp556
g62
(g63
g64
NtRp557
(dp558
g67
(dp559
g75
I3
ssg76
g553
sg69
(lp560
S''
asbasbasbag62
(g78
g64
NtRp561
(dp562
g67
(dp563
sg76
g457
sg69
(lp564
g62
(g83
g64
NtRp565
(dp566
g67
(dp567
g87
g88
ssg76
g561
sg69
(lp568
g381
asbag62
(g83
g64
NtRp569
(dp570
g67
(dp571
g94
g95
ssg76
g561
sg69
(lp572
S':'
asbag62
(g83
g64
NtRp573
(dp574
g67
(dp575
sg76
g561
sg69
(lp576
g62
(g63
g64
NtRp577
(dp578
g67
(dp579
g75
I3
ssg76
g573
sg69
(lp580
S''
asbasbasbag62
(g78
g64
NtRp581
(dp582
g67
(dp583
sg76
g457
sg69
(lp584
g62
(g83
g64
NtRp585
(dp586
g67
(dp587
g87
g88
ssg76
g581
sg69
(lp588
g402
asbag62
(g83
g64
NtRp589
(dp590
g67
(dp591
g94
g95
ssg76
g581
sg69
(lp592
S':'
asbag62
(g83
g64
NtRp593
(dp594
g67
(dp595
sg76
g581
sg69
(lp596
g62
(g63
g64
NtRp597
(dp598
g67
(dp599
g75
I3
ssg76
g593
sg69
(lp600
S''
asbasbasbag62
(g78
g64
NtRp601
(dp602
g67
(dp603
sg76
g457
sg69
(lp604
g62
(g83
g64
NtRp605
(dp606
g67
(dp607
g87
g88
ssg76
g601
sg69
(lp608
g423
asbag62
(g83
g64
NtRp609
(dp610
g67
(dp611
g94
g95
ssg76
g601
sg69
(lp612
S':'
asbag62
(g83
g64
NtRp613
(dp614
g67
(dp615
sg76
g601
sg69
(lp616
g62
(g63
g64
NtRp617
(dp618
g67
(dp619
g75
I3
ssg76
g613
sg69
(lp620
S''
asbasbasbasbasbasbasbasbasbasbasbag62
(g78
g64
NtRp621
(dp622
g67
(dp623
sg76
g72
sg69
(lp624
g62
(g83
g64
NtRp625
(dp626
g67
(dp627
g87
g88
ssg76
g621
sg69
(lp628
S'env'
p629
asbag62
(g83
g64
NtRp630
(dp631
g67
(dp632
g94
g95
ssg76
g621
sg69
(lp633
S':'
asbag62
(g83
g64
NtRp634
(dp635
g67
(dp636
sg76
g621
sg69
(lp637
g62
(g63
g64
NtRp638
(dp639
g67
(dp640
g75
I5
ssg76
g634
sg69
(lp641
g62
(g71
g64
NtRp642
(dp643
g67
(dp644
g75
I4
ssg76
Nsg69
(lp645
g62
(g78
g64
NtRp646
(dp647
g67
(dp648
sg76
g642
sg69
(lp649
g62
(g83
g64
NtRp650
(dp651
g67
(dp652
g87
g88
ssg76
g646
sg69
(lp653
S'app_folders'
p654
asbag62
(g83
g64
NtRp655
(dp656
g67
(dp657
g94
g95
ssg76
g646
sg69
(lp658
S':'
asbag62
(g83
g64
NtRp659
(dp660
g67
(dp661
sg76
g646
sg69
(lp662
g62
(g63
g64
NtRp663
(dp664
g67
(dp665
g75
I4
ssg76
g659
sg69
(lp666
S"set(['/home/prateek/web2py/applications/phyloShiny/', '/home/prateek/web2py/applications/admin/', '/home/prateek/web2py/applications/welcome/'])"
p667
asbasbasbag62
(g78
g64
NtRp668
(dp669
g67
(dp670
sg76
g642
sg69
(lp671
g62
(g83
g64
NtRp672
(dp673
g67
(dp674
g87
g88
ssg76
g668
sg69
(lp675
S'applications_parent'
p676
asbag62
(g83
g64
NtRp677
(dp678
g67
(dp679
g94
g95
ssg76
g668
sg69
(lp680
S':'
asbag62
(g83
g64
NtRp681
(dp682
g67
(dp683
sg76
g668
sg69
(lp684
g62
(g63
g64
NtRp685
(dp686
g67
(dp687
g75
I4
ssg76
g681
sg69
(lp688
S'/home/prateek/web2py'
p689
asbasbasbag62
(g78
g64
NtRp690
(dp691
g67
(dp692
sg76
g642
sg69
(lp693
g62
(g83
g64
NtRp694
(dp695
g67
(dp696
g87
g88
ssg76
g690
sg69
(lp697
S'cmd_args'
p698
asbag62
(g83
g64
NtRp699
(dp700
g67
(dp701
g94
g95
ssg76
g690
sg69
(lp702
S':'
asbag62
(g83
g64
NtRp703
(dp704
g67
(dp705
sg76
g690
sg69
(lp706
g62
(g63
g64
NtRp707
(dp708
g67
(dp709
g75
I4
ssg76
g703
sg69
(lp710
g62
(g71
g64
NtRp711
(dp712
g67
(dp713
g75
I3
ssg76
Nsg69
(lp714
sbasbasbasbag62
(g78
g64
NtRp715
(dp716
g67
(dp717
sg76
g642
sg69
(lp718
g62
(g83
g64
NtRp719
(dp720
g67
(dp721
g87
g88
ssg76
g715
sg69
(lp722
S'cmd_options'
p723
asbag62
(g83
g64
NtRp724
(dp725
g67
(dp726
g94
g95
ssg76
g715
sg69
(lp727
S':'
asbag62
(g83
g64
NtRp728
(dp729
g67
(dp730
sg76
g715
sg69
(lp731
g62
(g63
g64
NtRp732
(dp733
g67
(dp734
g75
I4
ssg76
g728
sg69
(lp735
S"<Values at 0x9aab5ec: {'verbose': False, 'ip': '127.0.0.1', 'shutdown_timeout': 5, 'taskbar': False, 'port': 8000, 'maxthreads': None, 'softcron': False, 'server_name': 'prateek-Inspiron-N5110', 'bpython': False, 'nogui': False, 'nocron': False, 'extcron': False, 'debuglevel': 30, 'test': None, 'folder': '/home/prateek/web2py', 'config': '', 'import_models': False, 'winservice': '', 'shell': None, 'run': '', 'log_filename': 'httpserver.log', 'args': [''], 'socket_timeout': 1, 'profiler_filename': None, 'ssl_private_key': '', 'password': '<ask>', 'request_queue_size': 5, 'ssl_certificate': '', 'cronjob': False, 'plain': False, 'quiet': False, 'interfaces': None, 'minthreads': None, 'timeout': 10, 'numthreads': None, 'nobanner': False, 'pid_filename': 'httpserver.pid'}>"
p736
asbasbasbag62
(g78
g64
NtRp737
(dp738
g67
(dp739
sg76
g642
sg69
(lp740
g62
(g83
g64
NtRp741
(dp742
g67
(dp743
g87
g88
ssg76
g737
sg69
(lp744
S'db_sessions'
p745
asbag62
(g83
g64
NtRp746
(dp747
g67
(dp748
g94
g95
ssg76
g737
sg69
(lp749
S':'
asbag62
(g83
g64
NtRp750
(dp751
g67
(dp752
sg76
g737
sg69
(lp753
g62
(g63
g64
NtRp754
(dp755
g67
(dp756
g75
I4
ssg76
g750
sg69
(lp757
S'set([])'
p758
asbasbasbag62
(g78
g64
NtRp759
(dp760
g67
(dp761
sg76
g642
sg69
(lp762
g62
(g83
g64
NtRp763
(dp764
g67
(dp765
g87
g88
ssg76
g759
sg69
(lp766
S'debugging'
p767
asbag62
(g83
g64
NtRp768
(dp769
g67
(dp770
g94
g95
ssg76
g759
sg69
(lp771
S':'
asbag62
(g83
g64
NtRp772
(dp773
g67
(dp774
sg76
g759
sg69
(lp775
g62
(g63
g64
NtRp776
(dp777
g67
(dp778
g75
I4
ssg76
g772
sg69
(lp779
S'False'
p780
asbasbasbag62
(g78
g64
NtRp781
(dp782
g67
(dp783
sg76
g642
sg69
(lp784
g62
(g83
g64
NtRp785
(dp786
g67
(dp787
g87
g88
ssg76
g781
sg69
(lp788
S'gluon_parent'
p789
asbag62
(g83
g64
NtRp790
(dp791
g67
(dp792
g94
g95
ssg76
g781
sg69
(lp793
S':'
asbag62
(g83
g64
NtRp794
(dp795
g67
(dp796
sg76
g781
sg69
(lp797
g62
(g63
g64
NtRp798
(dp799
g67
(dp800
g75
I4
ssg76
g794
sg69
(lp801
S'/usr/share/web2py'
p802
asbasbasbag62
(g78
g64
NtRp803
(dp804
g67
(dp805
sg76
g642
sg69
(lp806
g62
(g83
g64
NtRp807
(dp808
g67
(dp809
g87
g88
ssg76
g803
sg69
(lp810
S'http_accept'
p811
asbag62
(g83
g64
NtRp812
(dp813
g67
(dp814
g94
g95
ssg76
g803
sg69
(lp815
S':'
asbag62
(g83
g64
NtRp816
(dp817
g67
(dp818
sg76
g803
sg69
(lp819
g62
(g63
g64
NtRp820
(dp821
g67
(dp822
g75
I4
ssg76
g816
sg69
(lp823
S'*/*'
p824
asbasbasbag62
(g78
g64
NtRp825
(dp826
g67
(dp827
sg76
g642
sg69
(lp828
g62
(g83
g64
NtRp829
(dp830
g67
(dp831
g87
g88
ssg76
g825
sg69
(lp832
S'http_accept_encoding'
p833
asbag62
(g83
g64
NtRp834
(dp835
g67
(dp836
g94
g95
ssg76
g825
sg69
(lp837
S':'
asbag62
(g83
g64
NtRp838
(dp839
g67
(dp840
sg76
g825
sg69
(lp841
g62
(g63
g64
NtRp842
(dp843
g67
(dp844
g75
I4
ssg76
g838
sg69
(lp845
S'gzip, deflate'
p846
asbasbasbag62
(g78
g64
NtRp847
(dp848
g67
(dp849
sg76
g642
sg69
(lp850
g62
(g83
g64
NtRp851
(dp852
g67
(dp853
g87
g88
ssg76
g847
sg69
(lp854
S'http_accept_language'
p855
asbag62
(g83
g64
NtRp856
(dp857
g67
(dp858
g94
g95
ssg76
g847
sg69
(lp859
S':'
asbag62
(g83
g64
NtRp860
(dp861
g67
(dp862
sg76
g847
sg69
(lp863
g62
(g63
g64
NtRp864
(dp865
g67
(dp866
g75
I4
ssg76
g860
sg69
(lp867
S'en-US,en;q=0.5'
p868
asbasbasbag62
(g78
g64
NtRp869
(dp870
g67
(dp871
sg76
g642
sg69
(lp872
g62
(g83
g64
NtRp873
(dp874
g67
(dp875
g87
g88
ssg76
g869
sg69
(lp876
S'http_connection'
p877
asbag62
(g83
g64
NtRp878
(dp879
g67
(dp880
g94
g95
ssg76
g869
sg69
(lp881
S':'
asbag62
(g83
g64
NtRp882
(dp883
g67
(dp884
sg76
g869
sg69
(lp885
g62
(g63
g64
NtRp886
(dp887
g67
(dp888
g75
I4
ssg76
g882
sg69
(lp889
S'keep-alive'
p890
asbasbasbag62
(g78
g64
NtRp891
(dp892
g67
(dp893
sg76
g642
sg69
(lp894
g62
(g83
g64
NtRp895
(dp896
g67
(dp897
g87
g88
ssg76
g891
sg69
(lp898
S'http_cookie'
p899
asbag62
(g83
g64
NtRp900
(dp901
g67
(dp902
g94
g95
ssg76
g891
sg69
(lp903
S':'
asbag62
(g83
g64
NtRp904
(dp905
g67
(dp906
sg76
g891
sg69
(lp907
g62
(g63
g64
NtRp908
(dp909
g67
(dp910
g75
I4
ssg76
g904
sg69
(lp911
S'session_id_phyloshiny=127.0.0.1-bb56c1aa-c270-478e-8a04-dd1bdc22e71f; session_id_admin=127.0.0.1-93eaccf7-6654-4138-a9b6-5466fa6c980f'
p912
asbasbasbag62
(g78
g64
NtRp913
(dp914
g67
(dp915
sg76
g642
sg69
(lp916
g62
(g83
g64
NtRp917
(dp918
g67
(dp919
g87
g88
ssg76
g913
sg69
(lp920
S'http_host'
p921
asbag62
(g83
g64
NtRp922
(dp923
g67
(dp924
g94
g95
ssg76
g913
sg69
(lp925
S':'
asbag62
(g83
g64
NtRp926
(dp927
g67
(dp928
sg76
g913
sg69
(lp929
g62
(g63
g64
NtRp930
(dp931
g67
(dp932
g75
I4
ssg76
g926
sg69
(lp933
S'127.0.0.1:8000'
p934
asbasbasbag62
(g78
g64
NtRp935
(dp936
g67
(dp937
sg76
g642
sg69
(lp938
g62
(g83
g64
NtRp939
(dp940
g67
(dp941
g87
g88
ssg76
g935
sg69
(lp942
S'http_referer'
p943
asbag62
(g83
g64
NtRp944
(dp945
g67
(dp946
g94
g95
ssg76
g935
sg69
(lp947
S':'
asbag62
(g83
g64
NtRp948
(dp949
g67
(dp950
sg76
g935
sg69
(lp951
g62
(g63
g64
NtRp952
(dp953
g67
(dp954
g75
I4
ssg76
g948
sg69
(lp955
S'http://127.0.0.1:8000/phyloShiny/reconciliotastic/index'
p956
asbasbasbag62
(g78
g64
NtRp957
(dp958
g67
(dp959
sg76
g642
sg69
(lp960
g62
(g83
g64
NtRp961
(dp962
g67
(dp963
g87
g88
ssg76
g957
sg69
(lp964
S'http_user_agent'
p965
asbag62
(g83
g64
NtRp966
(dp967
g67
(dp968
g94
g95
ssg76
g957
sg69
(lp969
S':'
asbag62
(g83
g64
NtRp970
(dp971
g67
(dp972
sg76
g957
sg69
(lp973
g62
(g63
g64
NtRp974
(dp975
g67
(dp976
g75
I4
ssg76
g970
sg69
(lp977
S'Mozilla/5.0 (X11; Ubuntu; Linux i686; rv:20.0) Gecko/20100101 Firefox/20.0'
p978
asbasbasbag62
(g78
g64
NtRp979
(dp980
g67
(dp981
sg76
g642
sg69
(lp982
g62
(g83
g64
NtRp983
(dp984
g67
(dp985
g87
g88
ssg76
g979
sg69
(lp986
S'http_x_requested_with'
p987
asbag62
(g83
g64
NtRp988
(dp989
g67
(dp990
g94
g95
ssg76
g979
sg69
(lp991
S':'
asbag62
(g83
g64
NtRp992
(dp993
g67
(dp994
sg76
g979
sg69
(lp995
g62
(g63
g64
NtRp996
(dp997
g67
(dp998
g75
I4
ssg76
g992
sg69
(lp999
S'XMLHttpRequest'
p1000
asbasbasbag62
(g78
g64
NtRp1001
(dp1002
g67
(dp1003
sg76
g642
sg69
(lp1004
g62
(g83
g64
NtRp1005
(dp1006
g67
(dp1007
g87
g88
ssg76
g1001
sg69
(lp1008
S'is_jython'
p1009
asbag62
(g83
g64
NtRp1010
(dp1011
g67
(dp1012
g94
g95
ssg76
g1001
sg69
(lp1013
S':'
asbag62
(g83
g64
NtRp1014
(dp1015
g67
(dp1016
sg76
g1001
sg69
(lp1017
g62
(g63
g64
NtRp1018
(dp1019
g67
(dp1020
g75
I4
ssg76
g1014
sg69
(lp1021
g780
asbasbasbag62
(g78
g64
NtRp1022
(dp1023
g67
(dp1024
sg76
g642
sg69
(lp1025
g62
(g83
g64
NtRp1026
(dp1027
g67
(dp1028
g87
g88
ssg76
g1022
sg69
(lp1029
S'is_pypy'
p1030
asbag62
(g83
g64
NtRp1031
(dp1032
g67
(dp1033
g94
g95
ssg76
g1022
sg69
(lp1034
S':'
asbag62
(g83
g64
NtRp1035
(dp1036
g67
(dp1037
sg76
g1022
sg69
(lp1038
g62
(g63
g64
NtRp1039
(dp1040
g67
(dp1041
g75
I4
ssg76
g1035
sg69
(lp1042
g780
asbasbasbag62
(g78
g64
NtRp1043
(dp1044
g67
(dp1045
sg76
g642
sg69
(lp1046
g62
(g83
g64
NtRp1047
(dp1048
g67
(dp1049
g87
g88
ssg76
g1043
sg69
(lp1050
S'path_info'
p1051
asbag62
(g83
g64
NtRp1052
(dp1053
g67
(dp1054
g94
g95
ssg76
g1043
sg69
(lp1055
S':'
asbag62
(g83
g64
NtRp1056
(dp1057
g67
(dp1058
sg76
g1043
sg69
(lp1059
g62
(g63
g64
NtRp1060
(dp1061
g67
(dp1062
g75
I4
ssg76
g1056
sg69
(lp1063
S'/phyloShiny/reconciliotastic/getPhylotasticTree'
p1064
asbasbasbag62
(g78
g64
NtRp1065
(dp1066
g67
(dp1067
sg76
g642
sg69
(lp1068
g62
(g83
g64
NtRp1069
(dp1070
g67
(dp1071
g87
g88
ssg76
g1065
sg69
(lp1072
S'query_string'
p1073
asbag62
(g83
g64
NtRp1074
(dp1075
g67
(dp1076
g94
g95
ssg76
g1065
sg69
(lp1077
S':'
asbag62
(g83
g64
NtRp1078
(dp1079
g67
(dp1080
sg76
g1065
sg69
(lp1081
g62
(g63
g64
NtRp1082
(dp1083
g67
(dp1084
g75
I4
ssg76
g1078
sg69
(lp1085
S'treeFileName=static%2Fsample_data%2Fdemo_Primate_Tubulin1%2Finput_genetree.nwk.txt'
p1086
asbasbasbag62
(g78
g64
NtRp1087
(dp1088
g67
(dp1089
sg76
g642
sg69
(lp1090
g62
(g83
g64
NtRp1091
(dp1092
g67
(dp1093
g87
g88
ssg76
g1087
sg69
(lp1094
S'remote_addr'
p1095
asbag62
(g83
g64
NtRp1096
(dp1097
g67
(dp1098
g94
g95
ssg76
g1087
sg69
(lp1099
S':'
asbag62
(g83
g64
NtRp1100
(dp1101
g67
(dp1102
sg76
g1087
sg69
(lp1103
g62
(g63
g64
NtRp1104
(dp1105
g67
(dp1106
g75
I4
ssg76
g1100
sg69
(lp1107
g195
asbasbasbag62
(g78
g64
NtRp1108
(dp1109
g67
(dp1110
sg76
g642
sg69
(lp1111
g62
(g83
g64
NtRp1112
(dp1113
g67
(dp1114
g87
g88
ssg76
g1108
sg69
(lp1115
S'remote_port'
p1116
asbag62
(g83
g64
NtRp1117
(dp1118
g67
(dp1119
g94
g95
ssg76
g1108
sg69
(lp1120
S':'
asbag62
(g83
g64
NtRp1121
(dp1122
g67
(dp1123
sg76
g1108
sg69
(lp1124
g62
(g63
g64
NtRp1125
(dp1126
g67
(dp1127
g75
I4
ssg76
g1121
sg69
(lp1128
S'46498'
p1129
asbasbasbag62
(g78
g64
NtRp1130
(dp1131
g67
(dp1132
sg76
g642
sg69
(lp1133
g62
(g83
g64
NtRp1134
(dp1135
g67
(dp1136
g87
g88
ssg76
g1130
sg69
(lp1137
S'request_method'
p1138
asbag62
(g83
g64
NtRp1139
(dp1140
g67
(dp1141
g94
g95
ssg76
g1130
sg69
(lp1142
S':'
asbag62
(g83
g64
NtRp1143
(dp1144
g67
(dp1145
sg76
g1130
sg69
(lp1146
g62
(g63
g64
NtRp1147
(dp1148
g67
(dp1149
g75
I4
ssg76
g1143
sg69
(lp1150
S'GET'
p1151
asbasbasbag62
(g78
g64
NtRp1152
(dp1153
g67
(dp1154
sg76
g642
sg69
(lp1155
g62
(g83
g64
NtRp1156
(dp1157
g67
(dp1158
g87
g88
ssg76
g1152
sg69
(lp1159
S'script_name'
p1160
asbag62
(g83
g64
NtRp1161
(dp1162
g67
(dp1163
g94
g95
ssg76
g1152
sg69
(lp1164
S':'
asbag62
(g83
g64
NtRp1165
(dp1166
g67
(dp1167
sg76
g1152
sg69
(lp1168
g62
(g63
g64
NtRp1169
(dp1170
g67
(dp1171
g75
I4
ssg76
g1165
sg69
(lp1172
S''
asbasbasbag62
(g78
g64
NtRp1173
(dp1174
g67
(dp1175
sg76
g642
sg69
(lp1176
g62
(g83
g64
NtRp1177
(dp1178
g67
(dp1179
g87
g88
ssg76
g1173
sg69
(lp1180
S'server_name'
p1181
asbag62
(g83
g64
NtRp1182
(dp1183
g67
(dp1184
g94
g95
ssg76
g1173
sg69
(lp1185
S':'
asbag62
(g83
g64
NtRp1186
(dp1187
g67
(dp1188
sg76
g1173
sg69
(lp1189
g62
(g63
g64
NtRp1190
(dp1191
g67
(dp1192
g75
I4
ssg76
g1186
sg69
(lp1193
S'prateek-Inspiron-N5110'
p1194
asbasbasbag62
(g78
g64
NtRp1195
(dp1196
g67
(dp1197
sg76
g642
sg69
(lp1198
g62
(g83
g64
NtRp1199
(dp1200
g67
(dp1201
g87
g88
ssg76
g1195
sg69
(lp1202
S'server_port'
p1203
asbag62
(g83
g64
NtRp1204
(dp1205
g67
(dp1206
g94
g95
ssg76
g1195
sg69
(lp1207
S':'
asbag62
(g83
g64
NtRp1208
(dp1209
g67
(dp1210
sg76
g1195
sg69
(lp1211
g62
(g63
g64
NtRp1212
(dp1213
g67
(dp1214
g75
I4
ssg76
g1208
sg69
(lp1215
S'8000'
p1216
asbasbasbag62
(g78
g64
NtRp1217
(dp1218
g67
(dp1219
sg76
g642
sg69
(lp1220
g62
(g83
g64
NtRp1221
(dp1222
g67
(dp1223
g87
g88
ssg76
g1217
sg69
(lp1224
S'server_protocol'
p1225
asbag62
(g83
g64
NtRp1226
(dp1227
g67
(dp1228
g94
g95
ssg76
g1217
sg69
(lp1229
S':'
asbag62
(g83
g64
NtRp1230
(dp1231
g67
(dp1232
sg76
g1217
sg69
(lp1233
g62
(g63
g64
NtRp1234
(dp1235
g67
(dp1236
g75
I4
ssg76
g1230
sg69
(lp1237
S'HTTP/1.1'
p1238
asbasbasbag62
(g78
g64
NtRp1239
(dp1240
g67
(dp1241
sg76
g642
sg69
(lp1242
g62
(g83
g64
NtRp1243
(dp1244
g67
(dp1245
g87
g88
ssg76
g1239
sg69
(lp1246
S'server_software'
p1247
asbag62
(g83
g64
NtRp1248
(dp1249
g67
(dp1250
g94
g95
ssg76
g1239
sg69
(lp1251
S':'
asbag62
(g83
g64
NtRp1252
(dp1253
g67
(dp1254
sg76
g1239
sg69
(lp1255
g62
(g63
g64
NtRp1256
(dp1257
g67
(dp1258
g75
I4
ssg76
g1252
sg69
(lp1259
S'Rocket 1.2.4'
p1260
asbasbasbag62
(g78
g64
NtRp1261
(dp1262
g67
(dp1263
sg76
g642
sg69
(lp1264
g62
(g83
g64
NtRp1265
(dp1266
g67
(dp1267
g87
g88
ssg76
g1261
sg69
(lp1268
S'web2py_crontype'
p1269
asbag62
(g83
g64
NtRp1270
(dp1271
g67
(dp1272
g94
g95
ssg76
g1261
sg69
(lp1273
S':'
asbag62
(g83
g64
NtRp1274
(dp1275
g67
(dp1276
sg76
g1261
sg69
(lp1277
g62
(g63
g64
NtRp1278
(dp1279
g67
(dp1280
g75
I4
ssg76
g1274
sg69
(lp1281
S'hard'
p1282
asbasbasbag62
(g78
g64
NtRp1283
(dp1284
g67
(dp1285
sg76
g642
sg69
(lp1286
g62
(g83
g64
NtRp1287
(dp1288
g67
(dp1289
g87
g88
ssg76
g1283
sg69
(lp1290
S'web2py_path'
p1291
asbag62
(g83
g64
NtRp1292
(dp1293
g67
(dp1294
g94
g95
ssg76
g1283
sg69
(lp1295
S':'
asbag62
(g83
g64
NtRp1296
(dp1297
g67
(dp1298
sg76
g1283
sg69
(lp1299
g62
(g63
g64
NtRp1300
(dp1301
g67
(dp1302
g75
I4
ssg76
g1296
sg69
(lp1303
g689
asbasbasbag62
(g78
g64
NtRp1304
(dp1305
g67
(dp1306
sg76
g642
sg69
(lp1307
g62
(g83
g64
NtRp1308
(dp1309
g67
(dp1310
g87
g88
ssg76
g1304
sg69
(lp1311
S'web2py_version'
p1312
asbag62
(g83
g64
NtRp1313
(dp1314
g67
(dp1315
g94
g95
ssg76
g1304
sg69
(lp1316
S':'
asbag62
(g83
g64
NtRp1317
(dp1318
g67
(dp1319
sg76
g1304
sg69
(lp1320
g62
(g63
g64
NtRp1321
(dp1322
g67
(dp1323
g75
I4
ssg76
g1317
sg69
(lp1324
g62
(g71
g64
NtRp1325
(dp1326
g67
(dp1327
g75
I3
ssg76
Nsg69
(lp1328
g62
(g78
g64
NtRp1329
(dp1330
g67
(dp1331
sg76
g1325
sg69
(lp1332
g62
(g83
g64
NtRp1333
(dp1334
g67
(dp1335
sg76
g1329
sg69
(lp1336
g62
(g63
g64
NtRp1337
(dp1338
g67
(dp1339
g75
I3
ssg76
g1333
sg69
(lp1340
S'1'
asbasbasbag62
(g78
g64
NtRp1341
(dp1342
g67
(dp1343
sg76
g1325
sg69
(lp1344
g62
(g83
g64
NtRp1345
(dp1346
g67
(dp1347
sg76
g1341
sg69
(lp1348
g62
(g63
g64
NtRp1349
(dp1350
g67
(dp1351
g75
I3
ssg76
g1345
sg69
(lp1352
S'99'
p1353
asbasbasbag62
(g78
g64
NtRp1354
(dp1355
g67
(dp1356
sg76
g1325
sg69
(lp1357
g62
(g83
g64
NtRp1358
(dp1359
g67
(dp1360
sg76
g1354
sg69
(lp1361
g62
(g63
g64
NtRp1362
(dp1363
g67
(dp1364
g75
I3
ssg76
g1358
sg69
(lp1365
S'4'
asbasbasbag62
(g78
g64
NtRp1366
(dp1367
g67
(dp1368
sg76
g1325
sg69
(lp1369
g62
(g83
g64
NtRp1370
(dp1371
g67
(dp1372
sg76
g1366
sg69
(lp1373
g62
(g63
g64
NtRp1374
(dp1375
g67
(dp1376
g75
I3
ssg76
g1370
sg69
(lp1377
S'datetime.datetime(2011, 12, 14, 14, 46, 14)'
p1378
asbasbasbag62
(g78
g64
NtRp1379
(dp1380
g67
(dp1381
sg76
g1325
sg69
(lp1382
g62
(g83
g64
NtRp1383
(dp1384
g67
(dp1385
sg76
g1379
sg69
(lp1386
g62
(g63
g64
NtRp1387
(dp1388
g67
(dp1389
g75
I3
ssg76
g1383
sg69
(lp1390
S'stable'
p1391
asbasbasbasbasbasbasbag62
(g78
g64
NtRp1392
(dp1393
g67
(dp1394
sg76
g642
sg69
(lp1395
g62
(g83
g64
NtRp1396
(dp1397
g67
(dp1398
g87
g88
ssg76
g1392
sg69
(lp1399
S'wsgi_errors'
p1400
asbag62
(g83
g64
NtRp1401
(dp1402
g67
(dp1403
g94
g95
ssg76
g1392
sg69
(lp1404
S':'
asbag62
(g83
g64
NtRp1405
(dp1406
g67
(dp1407
sg76
g1392
sg69
(lp1408
g62
(g63
g64
NtRp1409
(dp1410
g67
(dp1411
g75
I4
ssg76
g1405
sg69
(lp1412
S"<open file '<stderr>', mode 'w' at 0xb73650d0>"
p1413
asbasbasbag62
(g78
g64
NtRp1414
(dp1415
g67
(dp1416
sg76
g642
sg69
(lp1417
g62
(g83
g64
NtRp1418
(dp1419
g67
(dp1420
g87
g88
ssg76
g1414
sg69
(lp1421
S'wsgi_file_wrapper'
p1422
asbag62
(g83
g64
NtRp1423
(dp1424
g67
(dp1425
g94
g95
ssg76
g1414
sg69
(lp1426
S':'
asbag62
(g83
g64
NtRp1427
(dp1428
g67
(dp1429
sg76
g1414
sg69
(lp1430
g62
(g63
g64
NtRp1431
(dp1432
g67
(dp1433
g75
I4
ssg76
g1427
sg69
(lp1434
S'<class wsgiref.util.FileWrapper at 0x987423c>'
p1435
asbasbasbag62
(g78
g64
NtRp1436
(dp1437
g67
(dp1438
sg76
g642
sg69
(lp1439
g62
(g83
g64
NtRp1440
(dp1441
g67
(dp1442
g87
g88
ssg76
g1436
sg69
(lp1443
S'wsgi_input'
p1444
asbag62
(g83
g64
NtRp1445
(dp1446
g67
(dp1447
g94
g95
ssg76
g1436
sg69
(lp1448
S':'
asbag62
(g83
g64
NtRp1449
(dp1450
g67
(dp1451
sg76
g1436
sg69
(lp1452
g62
(g63
g64
NtRp1453
(dp1454
g67
(dp1455
g75
I4
ssg76
g1449
sg69
(lp1456
S'<socket._fileobject object at 0xaafe78ac>'
p1457
asbasbasbag62
(g78
g64
NtRp1458
(dp1459
g67
(dp1460
sg76
g642
sg69
(lp1461
g62
(g83
g64
NtRp1462
(dp1463
g67
(dp1464
g87
g88
ssg76
g1458
sg69
(lp1465
S'wsgi_multiprocess'
p1466
asbag62
(g83
g64
NtRp1467
(dp1468
g67
(dp1469
g94
g95
ssg76
g1458
sg69
(lp1470
S':'
asbag62
(g83
g64
NtRp1471
(dp1472
g67
(dp1473
sg76
g1458
sg69
(lp1474
g62
(g63
g64
NtRp1475
(dp1476
g67
(dp1477
g75
I4
ssg76
g1471
sg69
(lp1478
g780
asbasbasbag62
(g78
g64
NtRp1479
(dp1480
g67
(dp1481
sg76
g642
sg69
(lp1482
g62
(g83
g64
NtRp1483
(dp1484
g67
(dp1485
g87
g88
ssg76
g1479
sg69
(lp1486
S'wsgi_multithread'
p1487
asbag62
(g83
g64
NtRp1488
(dp1489
g67
(dp1490
g94
g95
ssg76
g1479
sg69
(lp1491
S':'
asbag62
(g83
g64
NtRp1492
(dp1493
g67
(dp1494
sg76
g1479
sg69
(lp1495
g62
(g63
g64
NtRp1496
(dp1497
g67
(dp1498
g75
I4
ssg76
g1492
sg69
(lp1499
g105
asbasbasbag62
(g78
g64
NtRp1500
(dp1501
g67
(dp1502
sg76
g642
sg69
(lp1503
g62
(g83
g64
NtRp1504
(dp1505
g67
(dp1506
g87
g88
ssg76
g1500
sg69
(lp1507
S'wsgi_run_once'
p1508
asbag62
(g83
g64
NtRp1509
(dp1510
g67
(dp1511
g94
g95
ssg76
g1500
sg69
(lp1512
S':'
asbag62
(g83
g64
NtRp1513
(dp1514
g67
(dp1515
sg76
g1500
sg69
(lp1516
g62
(g63
g64
NtRp1517
(dp1518
g67
(dp1519
g75
I4
ssg76
g1513
sg69
(lp1520
g780
asbasbasbag62
(g78
g64
NtRp1521
(dp1522
g67
(dp1523
sg76
g642
sg69
(lp1524
g62
(g83
g64
NtRp1525
(dp1526
g67
(dp1527
g87
g88
ssg76
g1521
sg69
(lp1528
S'wsgi_url_scheme'
p1529
asbag62
(g83
g64
NtRp1530
(dp1531
g67
(dp1532
g94
g95
ssg76
g1521
sg69
(lp1533
S':'
asbag62
(g83
g64
NtRp1534
(dp1535
g67
(dp1536
sg76
g1521
sg69
(lp1537
g62
(g63
g64
NtRp1538
(dp1539
g67
(dp1540
g75
I4
ssg76
g1534
sg69
(lp1541
S'http'
p1542
asbasbasbag62
(g78
g64
NtRp1543
(dp1544
g67
(dp1545
sg76
g642
sg69
(lp1546
g62
(g83
g64
NtRp1547
(dp1548
g67
(dp1549
g87
g88
ssg76
g1543
sg69
(lp1550
S'wsgi_version'
p1551
asbag62
(g83
g64
NtRp1552
(dp1553
g67
(dp1554
g94
g95
ssg76
g1543
sg69
(lp1555
S':'
asbag62
(g83
g64
NtRp1556
(dp1557
g67
(dp1558
sg76
g1543
sg69
(lp1559
g62
(g63
g64
NtRp1560
(dp1561
g67
(dp1562
g75
I4
ssg76
g1556
sg69
(lp1563
g62
(g71
g64
NtRp1564
(dp1565
g67
(dp1566
g75
I3
ssg76
Nsg69
(lp1567
g62
(g78
g64
NtRp1568
(dp1569
g67
(dp1570
sg76
g1564
sg69
(lp1571
g62
(g83
g64
NtRp1572
(dp1573
g67
(dp1574
sg76
g1568
sg69
(lp1575
g62
(g63
g64
NtRp1576
(dp1577
g67
(dp1578
g75
I3
ssg76
g1572
sg69
(lp1579
S'1'
asbasbasbag62
(g78
g64
NtRp1580
(dp1581
g67
(dp1582
sg76
g1564
sg69
(lp1583
g62
(g83
g64
NtRp1584
(dp1585
g67
(dp1586
sg76
g1580
sg69
(lp1587
g62
(g63
g64
NtRp1588
(dp1589
g67
(dp1590
g75
I3
ssg76
g1584
sg69
(lp1591
S'0'
asbasbasbasbasbasbasbasbasbasbasbag62
(g78
g64
NtRp1592
(dp1593
g67
(dp1594
sg76
g72
sg69
(lp1595
g62
(g83
g64
NtRp1596
(dp1597
g67
(dp1598
g87
g88
ssg76
g1592
sg69
(lp1599
S'extension'
p1600
asbag62
(g83
g64
NtRp1601
(dp1602
g67
(dp1603
g94
g95
ssg76
g1592
sg69
(lp1604
S':'
asbag62
(g83
g64
NtRp1605
(dp1606
g67
(dp1607
sg76
g1592
sg69
(lp1608
g62
(g63
g64
NtRp1609
(dp1610
g67
(dp1611
g75
I5
ssg76
g1605
sg69
(lp1612
S'html'
p1613
asbasbasbag62
(g78
g64
NtRp1614
(dp1615
g67
(dp1616
sg76
g72
sg69
(lp1617
g62
(g83
g64
NtRp1618
(dp1619
g67
(dp1620
g87
g88
ssg76
g1614
sg69
(lp1621
S'folder'
p1622
asbag62
(g83
g64
NtRp1623
(dp1624
g67
(dp1625
g94
g95
ssg76
g1614
sg69
(lp1626
S':'
asbag62
(g83
g64
NtRp1627
(dp1628
g67
(dp1629
sg76
g1614
sg69
(lp1630
g62
(g63
g64
NtRp1631
(dp1632
g67
(dp1633
g75
I5
ssg76
g1627
sg69
(lp1634
S'/home/prateek/web2py/applications/phyloShiny/'
p1635
asbasbasbag62
(g78
g64
NtRp1636
(dp1637
g67
(dp1638
sg76
g72
sg69
(lp1639
g62
(g83
g64
NtRp1640
(dp1641
g67
(dp1642
g87
g88
ssg76
g1636
sg69
(lp1643
S'function'
p1644
asbag62
(g83
g64
NtRp1645
(dp1646
g67
(dp1647
g94
g95
ssg76
g1636
sg69
(lp1648
S':'
asbag62
(g83
g64
NtRp1649
(dp1650
g67
(dp1651
sg76
g1636
sg69
(lp1652
g62
(g63
g64
NtRp1653
(dp1654
g67
(dp1655
g75
I5
ssg76
g1649
sg69
(lp1656
S'getPhylotasticTree'
p1657
asbasbasbag62
(g78
g64
NtRp1658
(dp1659
g67
(dp1660
sg76
g72
sg69
(lp1661
g62
(g83
g64
NtRp1662
(dp1663
g67
(dp1664
g87
g88
ssg76
g1658
sg69
(lp1665
S'get_vars'
p1666
asbag62
(g83
g64
NtRp1667
(dp1668
g67
(dp1669
g94
g95
ssg76
g1658
sg69
(lp1670
S':'
asbag62
(g83
g64
NtRp1671
(dp1672
g67
(dp1673
sg76
g1658
sg69
(lp1674
g62
(g63
g64
NtRp1675
(dp1676
g67
(dp1677
g75
I5
ssg76
g1671
sg69
(lp1678
g62
(g71
g64
NtRp1679
(dp1680
g67
(dp1681
g75
I4
ssg76
Nsg69
(lp1682
g62
(g78
g64
NtRp1683
(dp1684
g67
(dp1685
sg76
g1679
sg69
(lp1686
g62
(g83
g64
NtRp1687
(dp1688
g67
(dp1689
g87
g88
ssg76
g1683
sg69
(lp1690
S'treeFileName'
p1691
asbag62
(g83
g64
NtRp1692
(dp1693
g67
(dp1694
g94
g95
ssg76
g1683
sg69
(lp1695
S':'
asbag62
(g83
g64
NtRp1696
(dp1697
g67
(dp1698
sg76
g1683
sg69
(lp1699
g62
(g63
g64
NtRp1700
(dp1701
g67
(dp1702
g75
I4
ssg76
g1696
sg69
(lp1703
S'static/sample_data/demo_Primate_Tubulin1/input_genetree.nwk.txt'
p1704
asbasbasbasbasbasbasbag62
(g78
g64
NtRp1705
(dp1706
g67
(dp1707
sg76
g72
sg69
(lp1708
g62
(g83
g64
NtRp1709
(dp1710
g67
(dp1711
g87
g88
ssg76
g1705
sg69
(lp1712
S'global_settings'
p1713
asbag62
(g83
g64
NtRp1714
(dp1715
g67
(dp1716
g94
g95
ssg76
g1705
sg69
(lp1717
S':'
asbag62
(g83
g64
NtRp1718
(dp1719
g67
(dp1720
sg76
g1705
sg69
(lp1721
g62
(g63
g64
NtRp1722
(dp1723
g67
(dp1724
g75
I5
ssg76
g1718
sg69
(lp1725
g62
(g71
g64
NtRp1726
(dp1727
g67
(dp1728
g75
I4
ssg76
Nsg69
(lp1729
g62
(g78
g64
NtRp1730
(dp1731
g67
(dp1732
sg76
g1726
sg69
(lp1733
g62
(g83
g64
NtRp1734
(dp1735
g67
(dp1736
g87
g88
ssg76
g1730
sg69
(lp1737
g654
asbag62
(g83
g64
NtRp1738
(dp1739
g67
(dp1740
g94
g95
ssg76
g1730
sg69
(lp1741
S':'
asbag62
(g83
g64
NtRp1742
(dp1743
g67
(dp1744
sg76
g1730
sg69
(lp1745
g62
(g63
g64
NtRp1746
(dp1747
g67
(dp1748
g75
I4
ssg76
g1742
sg69
(lp1749
S"set(['/home/prateek/web2py/applications/phyloShiny/', '/home/prateek/web2py/applications/admin/', '/home/prateek/web2py/applications/welcome/'])"
p1750
asbasbasbag62
(g78
g64
NtRp1751
(dp1752
g67
(dp1753
sg76
g1726
sg69
(lp1754
g62
(g83
g64
NtRp1755
(dp1756
g67
(dp1757
g87
g88
ssg76
g1751
sg69
(lp1758
g676
asbag62
(g83
g64
NtRp1759
(dp1760
g67
(dp1761
g94
g95
ssg76
g1751
sg69
(lp1762
S':'
asbag62
(g83
g64
NtRp1763
(dp1764
g67
(dp1765
sg76
g1751
sg69
(lp1766
g62
(g63
g64
NtRp1767
(dp1768
g67
(dp1769
g75
I4
ssg76
g1763
sg69
(lp1770
g689
asbasbasbag62
(g78
g64
NtRp1771
(dp1772
g67
(dp1773
sg76
g1726
sg69
(lp1774
g62
(g83
g64
NtRp1775
(dp1776
g67
(dp1777
g87
g88
ssg76
g1771
sg69
(lp1778
g698
asbag62
(g83
g64
NtRp1779
(dp1780
g67
(dp1781
g94
g95
ssg76
g1771
sg69
(lp1782
S':'
asbag62
(g83
g64
NtRp1783
(dp1784
g67
(dp1785
sg76
g1771
sg69
(lp1786
g62
(g63
g64
NtRp1787
(dp1788
g67
(dp1789
g75
I4
ssg76
g1783
sg69
(lp1790
g62
(g71
g64
NtRp1791
(dp1792
g67
(dp1793
g75
I3
ssg76
Nsg69
(lp1794
sbasbasbasbag62
(g78
g64
NtRp1795
(dp1796
g67
(dp1797
sg76
g1726
sg69
(lp1798
g62
(g83
g64
NtRp1799
(dp1800
g67
(dp1801
g87
g88
ssg76
g1795
sg69
(lp1802
g723
asbag62
(g83
g64
NtRp1803
(dp1804
g67
(dp1805
g94
g95
ssg76
g1795
sg69
(lp1806
S':'
asbag62
(g83
g64
NtRp1807
(dp1808
g67
(dp1809
sg76
g1795
sg69
(lp1810
g62
(g63
g64
NtRp1811
(dp1812
g67
(dp1813
g75
I4
ssg76
g1807
sg69
(lp1814
S"<Values at 0x9aab5ec: {'verbose': False, 'ip': '127.0.0.1', 'shutdown_timeout': 5, 'taskbar': False, 'port': 8000, 'maxthreads': None, 'softcron': False, 'server_name': 'prateek-Inspiron-N5110', 'bpython': False, 'nogui': False, 'nocron': False, 'extcron': False, 'debuglevel': 30, 'test': None, 'folder': '/home/prateek/web2py', 'config': '', 'import_models': False, 'winservice': '', 'shell': None, 'run': '', 'log_filename': 'httpserver.log', 'args': [''], 'socket_timeout': 1, 'profiler_filename': None, 'ssl_private_key': '', 'password': '<ask>', 'request_queue_size': 5, 'ssl_certificate': '', 'cronjob': False, 'plain': False, 'quiet': False, 'interfaces': None, 'minthreads': None, 'timeout': 10, 'numthreads': None, 'nobanner': False, 'pid_filename': 'httpserver.pid'}>"
p1815
asbasbasbag62
(g78
g64
NtRp1816
(dp1817
g67
(dp1818
sg76
g1726
sg69
(lp1819
g62
(g83
g64
NtRp1820
(dp1821
g67
(dp1822
g87
g88
ssg76
g1816
sg69
(lp1823
g745
asbag62
(g83
g64
NtRp1824
(dp1825
g67
(dp1826
g94
g95
ssg76
g1816
sg69
(lp1827
S':'
asbag62
(g83
g64
NtRp1828
(dp1829
g67
(dp1830
sg76
g1816
sg69
(lp1831
g62
(g63
g64
NtRp1832
(dp1833
g67
(dp1834
g75
I4
ssg76
g1828
sg69
(lp1835
S'set([])'
p1836
asbasbasbag62
(g78
g64
NtRp1837
(dp1838
g67
(dp1839
sg76
g1726
sg69
(lp1840
g62
(g83
g64
NtRp1841
(dp1842
g67
(dp1843
g87
g88
ssg76
g1837
sg69
(lp1844
g767
asbag62
(g83
g64
NtRp1845
(dp1846
g67
(dp1847
g94
g95
ssg76
g1837
sg69
(lp1848
S':'
asbag62
(g83
g64
NtRp1849
(dp1850
g67
(dp1851
sg76
g1837
sg69
(lp1852
g62
(g63
g64
NtRp1853
(dp1854
g67
(dp1855
g75
I4
ssg76
g1849
sg69
(lp1856
g780
asbasbasbag62
(g78
g64
NtRp1857
(dp1858
g67
(dp1859
sg76
g1726
sg69
(lp1860
g62
(g83
g64
NtRp1861
(dp1862
g67
(dp1863
g87
g88
ssg76
g1857
sg69
(lp1864
g789
asbag62
(g83
g64
NtRp1865
(dp1866
g67
(dp1867
g94
g95
ssg76
g1857
sg69
(lp1868
S':'
asbag62
(g83
g64
NtRp1869
(dp1870
g67
(dp1871
sg76
g1857
sg69
(lp1872
g62
(g63
g64
NtRp1873
(dp1874
g67
(dp1875
g75
I4
ssg76
g1869
sg69
(lp1876
g802
asbasbasbag62
(g78
g64
NtRp1877
(dp1878
g67
(dp1879
sg76
g1726
sg69
(lp1880
g62
(g83
g64
NtRp1881
(dp1882
g67
(dp1883
g87
g88
ssg76
g1877
sg69
(lp1884
g1009
asbag62
(g83
g64
NtRp1885
(dp1886
g67
(dp1887
g94
g95
ssg76
g1877
sg69
(lp1888
S':'
asbag62
(g83
g64
NtRp1889
(dp1890
g67
(dp1891
sg76
g1877
sg69
(lp1892
g62
(g63
g64
NtRp1893
(dp1894
g67
(dp1895
g75
I4
ssg76
g1889
sg69
(lp1896
g780
asbasbasbag62
(g78
g64
NtRp1897
(dp1898
g67
(dp1899
sg76
g1726
sg69
(lp1900
g62
(g83
g64
NtRp1901
(dp1902
g67
(dp1903
g87
g88
ssg76
g1897
sg69
(lp1904
g1030
asbag62
(g83
g64
NtRp1905
(dp1906
g67
(dp1907
g94
g95
ssg76
g1897
sg69
(lp1908
S':'
asbag62
(g83
g64
NtRp1909
(dp1910
g67
(dp1911
sg76
g1897
sg69
(lp1912
g62
(g63
g64
NtRp1913
(dp1914
g67
(dp1915
g75
I4
ssg76
g1909
sg69
(lp1916
g780
asbasbasbag62
(g78
g64
NtRp1917
(dp1918
g67
(dp1919
sg76
g1726
sg69
(lp1920
g62
(g83
g64
NtRp1921
(dp1922
g67
(dp1923
g87
g88
ssg76
g1917
sg69
(lp1924
g1269
asbag62
(g83
g64
NtRp1925
(dp1926
g67
(dp1927
g94
g95
ssg76
g1917
sg69
(lp1928
S':'
asbag62
(g83
g64
NtRp1929
(dp1930
g67
(dp1931
sg76
g1917
sg69
(lp1932
g62
(g63
g64
NtRp1933
(dp1934
g67
(dp1935
g75
I4
ssg76
g1929
sg69
(lp1936
g1282
asbasbasbag62
(g78
g64
NtRp1937
(dp1938
g67
(dp1939
sg76
g1726
sg69
(lp1940
g62
(g83
g64
NtRp1941
(dp1942
g67
(dp1943
g87
g88
ssg76
g1937
sg69
(lp1944
g1312
asbag62
(g83
g64
NtRp1945
(dp1946
g67
(dp1947
g94
g95
ssg76
g1937
sg69
(lp1948
S':'
asbag62
(g83
g64
NtRp1949
(dp1950
g67
(dp1951
sg76
g1937
sg69
(lp1952
g62
(g63
g64
NtRp1953
(dp1954
g67
(dp1955
g75
I4
ssg76
g1949
sg69
(lp1956
g62
(g71
g64
NtRp1957
(dp1958
g67
(dp1959
g75
I3
ssg76
Nsg69
(lp1960
g62
(g78
g64
NtRp1961
(dp1962
g67
(dp1963
sg76
g1957
sg69
(lp1964
g62
(g83
g64
NtRp1965
(dp1966
g67
(dp1967
sg76
g1961
sg69
(lp1968
g62
(g63
g64
NtRp1969
(dp1970
g67
(dp1971
g75
I3
ssg76
g1965
sg69
(lp1972
S'1'
asbasbasbag62
(g78
g64
NtRp1973
(dp1974
g67
(dp1975
sg76
g1957
sg69
(lp1976
g62
(g83
g64
NtRp1977
(dp1978
g67
(dp1979
sg76
g1973
sg69
(lp1980
g62
(g63
g64
NtRp1981
(dp1982
g67
(dp1983
g75
I3
ssg76
g1977
sg69
(lp1984
S'99'
p1985
asbasbasbag62
(g78
g64
NtRp1986
(dp1987
g67
(dp1988
sg76
g1957
sg69
(lp1989
g62
(g83
g64
NtRp1990
(dp1991
g67
(dp1992
sg76
g1986
sg69
(lp1993
g62
(g63
g64
NtRp1994
(dp1995
g67
(dp1996
g75
I3
ssg76
g1990
sg69
(lp1997
S'4'
asbasbasbag62
(g78
g64
NtRp1998
(dp1999
g67
(dp2000
sg76
g1957
sg69
(lp2001
g62
(g83
g64
NtRp2002
(dp2003
g67
(dp2004
sg76
g1998
sg69
(lp2005
g62
(g63
g64
NtRp2006
(dp2007
g67
(dp2008
g75
I3
ssg76
g2002
sg69
(lp2009
S'datetime.datetime(2011, 12, 14, 14, 46, 14)'
p2010
asbasbasbag62
(g78
g64
NtRp2011
(dp2012
g67
(dp2013
sg76
g1957
sg69
(lp2014
g62
(g83
g64
NtRp2015
(dp2016
g67
(dp2017
sg76
g2011
sg69
(lp2018
g62
(g63
g64
NtRp2019
(dp2020
g67
(dp2021
g75
I3
ssg76
g2015
sg69
(lp2022
g1391
asbasbasbasbasbasbasbasbasbasbasbag62
(g78
g64
NtRp2023
(dp2024
g67
(dp2025
sg76
g72
sg69
(lp2026
g62
(g83
g64
NtRp2027
(dp2028
g67
(dp2029
g87
g88
ssg76
g2023
sg69
(lp2030
S'is_https'
p2031
asbag62
(g83
g64
NtRp2032
(dp2033
g67
(dp2034
g94
g95
ssg76
g2023
sg69
(lp2035
S':'
asbag62
(g83
g64
NtRp2036
(dp2037
g67
(dp2038
sg76
g2023
sg69
(lp2039
g62
(g63
g64
NtRp2040
(dp2041
g67
(dp2042
g75
I5
ssg76
g2036
sg69
(lp2043
g780
asbasbasbag62
(g78
g64
NtRp2044
(dp2045
g67
(dp2046
sg76
g72
sg69
(lp2047
g62
(g83
g64
NtRp2048
(dp2049
g67
(dp2050
g87
g88
ssg76
g2044
sg69
(lp2051
S'is_local'
p2052
asbag62
(g83
g64
NtRp2053
(dp2054
g67
(dp2055
g94
g95
ssg76
g2044
sg69
(lp2056
S':'
asbag62
(g83
g64
NtRp2057
(dp2058
g67
(dp2059
sg76
g2044
sg69
(lp2060
g62
(g63
g64
NtRp2061
(dp2062
g67
(dp2063
g75
I5
ssg76
g2057
sg69
(lp2064
g105
asbasbasbag62
(g78
g64
NtRp2065
(dp2066
g67
(dp2067
sg76
g72
sg69
(lp2068
g62
(g83
g64
NtRp2069
(dp2070
g67
(dp2071
g87
g88
ssg76
g2065
sg69
(lp2072
S'is_restful'
p2073
asbag62
(g83
g64
NtRp2074
(dp2075
g67
(dp2076
g94
g95
ssg76
g2065
sg69
(lp2077
S':'
asbag62
(g83
g64
NtRp2078
(dp2079
g67
(dp2080
sg76
g2065
sg69
(lp2081
g62
(g63
g64
NtRp2082
(dp2083
g67
(dp2084
g75
I5
ssg76
g2078
sg69
(lp2085
g780
asbasbasbag62
(g78
g64
NtRp2086
(dp2087
g67
(dp2088
sg76
g72
sg69
(lp2089
g62
(g83
g64
NtRp2090
(dp2091
g67
(dp2092
g87
g88
ssg76
g2086
sg69
(lp2093
S'now'
p2094
asbag62
(g83
g64
NtRp2095
(dp2096
g67
(dp2097
g94
g95
ssg76
g2086
sg69
(lp2098
S':'
asbag62
(g83
g64
NtRp2099
(dp2100
g67
(dp2101
sg76
g2086
sg69
(lp2102
g62
(g63
g64
NtRp2103
(dp2104
g67
(dp2105
g75
I5
ssg76
g2099
sg69
(lp2106
S'datetime.datetime(2013, 5, 17, 12, 28, 58, 920589)'
p2107
asbasbasbag62
(g78
g64
NtRp2108
(dp2109
g67
(dp2110
sg76
g72
sg69
(lp2111
g62
(g83
g64
NtRp2112
(dp2113
g67
(dp2114
g87
g88
ssg76
g2108
sg69
(lp2115
S'post_vars'
p2116
asbag62
(g83
g64
NtRp2117
(dp2118
g67
(dp2119
g94
g95
ssg76
g2108
sg69
(lp2120
S':'
asbag62
(g83
g64
NtRp2121
(dp2122
g67
(dp2123
sg76
g2108
sg69
(lp2124
g62
(g63
g64
NtRp2125
(dp2126
g67
(dp2127
g75
I5
ssg76
g2121
sg69
(lp2128
g62
(g71
g64
NtRp2129
(dp2130
g67
(dp2131
g75
I4
ssg76
Nsg69
(lp2132
sbasbasbasbag62
(g78
g64
NtRp2133
(dp2134
g67
(dp2135
sg76
g72
sg69
(lp2136
g62
(g83
g64
NtRp2137
(dp2138
g67
(dp2139
g87
g88
ssg76
g2133
sg69
(lp2140
S'url'
p2141
asbag62
(g83
g64
NtRp2142
(dp2143
g67
(dp2144
g94
g95
ssg76
g2133
sg69
(lp2145
S':'
asbag62
(g83
g64
NtRp2146
(dp2147
g67
(dp2148
sg76
g2133
sg69
(lp2149
g62
(g63
g64
NtRp2150
(dp2151
g67
(dp2152
g75
I5
ssg76
g2146
sg69
(lp2153
S'/phyloShiny/reconciliotastic/getPhylotasticTree'
p2154
asbasbasbag62
(g78
g64
NtRp2155
(dp2156
g67
(dp2157
sg76
g72
sg69
(lp2158
g62
(g83
g64
NtRp2159
(dp2160
g67
(dp2161
g87
g88
ssg76
g2155
sg69
(lp2162
S'utcnow'
p2163
asbag62
(g83
g64
NtRp2164
(dp2165
g67
(dp2166
g94
g95
ssg76
g2155
sg69
(lp2167
S':'
asbag62
(g83
g64
NtRp2168
(dp2169
g67
(dp2170
sg76
g2155
sg69
(lp2171
g62
(g63
g64
NtRp2172
(dp2173
g67
(dp2174
g75
I5
ssg76
g2168
sg69
(lp2175
S'datetime.datetime(2013, 5, 17, 6, 58, 58, 920646)'
p2176
asbasbasbag62
(g78
g64
NtRp2177
(dp2178
g67
(dp2179
sg76
g72
sg69
(lp2180
g62
(g83
g64
NtRp2181
(dp2182
g67
(dp2183
g87
g88
ssg76
g2177
sg69
(lp2184
S'uuid'
p2185
asbag62
(g83
g64
NtRp2186
(dp2187
g67
(dp2188
g94
g95
ssg76
g2177
sg69
(lp2189
S':'
asbag62
(g83
g64
NtRp2190
(dp2191
g67
(dp2192
sg76
g2177
sg69
(lp2193
g62
(g63
g64
NtRp2194
(dp2195
g67
(dp2196
g75
I5
ssg76
g2190
sg69
(lp2197
S'phyloShiny/127.0.0.1.2013-05-17.12-28-58.4526a79a-0072-4581-be50-33c2bc84e2a1'
p2198
asbasbasbag62
(g78
g64
NtRp2199
(dp2200
g67
(dp2201
sg76
g72
sg69
(lp2202
g62
(g83
g64
NtRp2203
(dp2204
g67
(dp2205
g87
g88
ssg76
g2199
sg69
(lp2206
S'vars'
p2207
asbag62
(g83
g64
NtRp2208
(dp2209
g67
(dp2210
g94
g95
ssg76
g2199
sg69
(lp2211
S':'
asbag62
(g83
g64
NtRp2212
(dp2213
g67
(dp2214
sg76
g2199
sg69
(lp2215
g62
(g63
g64
NtRp2216
(dp2217
g67
(dp2218
g75
I5
ssg76
g2212
sg69
(lp2219
g62
(g71
g64
NtRp2220
(dp2221
g67
(dp2222
g75
I4
ssg76
Nsg69
(lp2223
g62
(g78
g64
NtRp2224
(dp2225
g67
(dp2226
sg76
g2220
sg69
(lp2227
g62
(g83
g64
NtRp2228
(dp2229
g67
(dp2230
g87
g88
ssg76
g2224
sg69
(lp2231
g1691
asbag62
(g83
g64
NtRp2232
(dp2233
g67
(dp2234
g94
g95
ssg76
g2224
sg69
(lp2235
S':'
asbag62
(g83
g64
NtRp2236
(dp2237
g67
(dp2238
sg76
g2224
sg69
(lp2239
g62
(g63
g64
NtRp2240
(dp2241
g67
(dp2242
g75
I4
ssg76
g2236
sg69
(lp2243
g1704
asbasbasbasbasbasbasbag62
(g78
g64
NtRp2244
(dp2245
g67
(dp2246
sg76
g72
sg69
(lp2247
g62
(g83
g64
NtRp2248
(dp2249
g67
(dp2250
g87
g88
ssg76
g2244
sg69
(lp2251
S'wsgi'
p2252
asbag62
(g83
g64
NtRp2253
(dp2254
g67
(dp2255
g94
g95
ssg76
g2244
sg69
(lp2256
S':'
asbag62
(g83
g64
NtRp2257
(dp2258
g67
(dp2259
sg76
g2244
sg69
(lp2260
g62
(g63
g64
NtRp2261
(dp2262
g67
(dp2263
g75
I5
ssg76
g2257
sg69
(lp2264
g62
(g71
g64
NtRp2265
(dp2266
g67
(dp2267
g75
I4
ssg76
Nsg69
(lp2268
g62
(g78
g64
NtRp2269
(dp2270
g67
(dp2271
sg76
g2265
sg69
(lp2272
g62
(g83
g64
NtRp2273
(dp2274
g67
(dp2275
g87
g88
ssg76
g2269
sg69
(lp2276
S'environ'
p2277
asbag62
(g83
g64
NtRp2278
(dp2279
g67
(dp2280
g94
g95
ssg76
g2269
sg69
(lp2281
S':'
asbag62
(g83
g64
NtRp2282
(dp2283
g67
(dp2284
sg76
g2269
sg69
(lp2285
g62
(g63
g64
NtRp2286
(dp2287
g67
(dp2288
g75
I4
ssg76
g2282
sg69
(lp2289
g62
(g71
g64
NtRp2290
(dp2291
g67
(dp2292
g75
I3
ssg76
Nsg69
(lp2293
g62
(g78
g64
NtRp2294
(dp2295
g67
(dp2296
sg76
g2290
sg69
(lp2297
g62
(g83
g64
NtRp2298
(dp2299
g67
(dp2300
g87
g88
ssg76
g2294
sg69
(lp2301
S'HTTP_ACCEPT'
p2302
asbag62
(g83
g64
NtRp2303
(dp2304
g67
(dp2305
g94
g95
ssg76
g2294
sg69
(lp2306
S':'
asbag62
(g83
g64
NtRp2307
(dp2308
g67
(dp2309
sg76
g2294
sg69
(lp2310
g62
(g63
g64
NtRp2311
(dp2312
g67
(dp2313
g75
I3
ssg76
g2307
sg69
(lp2314
g824
asbasbasbag62
(g78
g64
NtRp2315
(dp2316
g67
(dp2317
sg76
g2290
sg69
(lp2318
g62
(g83
g64
NtRp2319
(dp2320
g67
(dp2321
g87
g88
ssg76
g2315
sg69
(lp2322
S'HTTP_ACCEPT_ENCODING'
p2323
asbag62
(g83
g64
NtRp2324
(dp2325
g67
(dp2326
g94
g95
ssg76
g2315
sg69
(lp2327
S':'
asbag62
(g83
g64
NtRp2328
(dp2329
g67
(dp2330
sg76
g2315
sg69
(lp2331
g62
(g63
g64
NtRp2332
(dp2333
g67
(dp2334
g75
I3
ssg76
g2328
sg69
(lp2335
g846
asbasbasbag62
(g78
g64
NtRp2336
(dp2337
g67
(dp2338
sg76
g2290
sg69
(lp2339
g62
(g83
g64
NtRp2340
(dp2341
g67
(dp2342
g87
g88
ssg76
g2336
sg69
(lp2343
S'HTTP_ACCEPT_LANGUAGE'
p2344
asbag62
(g83
g64
NtRp2345
(dp2346
g67
(dp2347
g94
g95
ssg76
g2336
sg69
(lp2348
S':'
asbag62
(g83
g64
NtRp2349
(dp2350
g67
(dp2351
sg76
g2336
sg69
(lp2352
g62
(g63
g64
NtRp2353
(dp2354
g67
(dp2355
g75
I3
ssg76
g2349
sg69
(lp2356
g868
asbasbasbag62
(g78
g64
NtRp2357
(dp2358
g67
(dp2359
sg76
g2290
sg69
(lp2360
g62
(g83
g64
NtRp2361
(dp2362
g67
(dp2363
g87
g88
ssg76
g2357
sg69
(lp2364
S'HTTP_CONNECTION'
p2365
asbag62
(g83
g64
NtRp2366
(dp2367
g67
(dp2368
g94
g95
ssg76
g2357
sg69
(lp2369
S':'
asbag62
(g83
g64
NtRp2370
(dp2371
g67
(dp2372
sg76
g2357
sg69
(lp2373
g62
(g63
g64
NtRp2374
(dp2375
g67
(dp2376
g75
I3
ssg76
g2370
sg69
(lp2377
g890
asbasbasbag62
(g78
g64
NtRp2378
(dp2379
g67
(dp2380
sg76
g2290
sg69
(lp2381
g62
(g83
g64
NtRp2382
(dp2383
g67
(dp2384
g87
g88
ssg76
g2378
sg69
(lp2385
S'HTTP_COOKIE'
p2386
asbag62
(g83
g64
NtRp2387
(dp2388
g67
(dp2389
g94
g95
ssg76
g2378
sg69
(lp2390
S':'
asbag62
(g83
g64
NtRp2391
(dp2392
g67
(dp2393
sg76
g2378
sg69
(lp2394
g62
(g63
g64
NtRp2395
(dp2396
g67
(dp2397
g75
I3
ssg76
g2391
sg69
(lp2398
g912
asbasbasbag62
(g78
g64
NtRp2399
(dp2400
g67
(dp2401
sg76
g2290
sg69
(lp2402
g62
(g83
g64
NtRp2403
(dp2404
g67
(dp2405
g87
g88
ssg76
g2399
sg69
(lp2406
S'HTTP_HOST'
p2407
asbag62
(g83
g64
NtRp2408
(dp2409
g67
(dp2410
g94
g95
ssg76
g2399
sg69
(lp2411
S':'
asbag62
(g83
g64
NtRp2412
(dp2413
g67
(dp2414
sg76
g2399
sg69
(lp2415
g62
(g63
g64
NtRp2416
(dp2417
g67
(dp2418
g75
I3
ssg76
g2412
sg69
(lp2419
g934
asbasbasbag62
(g78
g64
NtRp2420
(dp2421
g67
(dp2422
sg76
g2290
sg69
(lp2423
g62
(g83
g64
NtRp2424
(dp2425
g67
(dp2426
g87
g88
ssg76
g2420
sg69
(lp2427
S'HTTP_REFERER'
p2428
asbag62
(g83
g64
NtRp2429
(dp2430
g67
(dp2431
g94
g95
ssg76
g2420
sg69
(lp2432
S':'
asbag62
(g83
g64
NtRp2433
(dp2434
g67
(dp2435
sg76
g2420
sg69
(lp2436
g62
(g63
g64
NtRp2437
(dp2438
g67
(dp2439
g75
I3
ssg76
g2433
sg69
(lp2440
g956
asbasbasbag62
(g78
g64
NtRp2441
(dp2442
g67
(dp2443
sg76
g2290
sg69
(lp2444
g62
(g83
g64
NtRp2445
(dp2446
g67
(dp2447
g87
g88
ssg76
g2441
sg69
(lp2448
S'HTTP_USER_AGENT'
p2449
asbag62
(g83
g64
NtRp2450
(dp2451
g67
(dp2452
g94
g95
ssg76
g2441
sg69
(lp2453
S':'
asbag62
(g83
g64
NtRp2454
(dp2455
g67
(dp2456
sg76
g2441
sg69
(lp2457
g62
(g63
g64
NtRp2458
(dp2459
g67
(dp2460
g75
I3
ssg76
g2454
sg69
(lp2461
g978
asbasbasbag62
(g78
g64
NtRp2462
(dp2463
g67
(dp2464
sg76
g2290
sg69
(lp2465
g62
(g83
g64
NtRp2466
(dp2467
g67
(dp2468
g87
g88
ssg76
g2462
sg69
(lp2469
S'HTTP_X_REQUESTED_WITH'
p2470
asbag62
(g83
g64
NtRp2471
(dp2472
g67
(dp2473
g94
g95
ssg76
g2462
sg69
(lp2474
S':'
asbag62
(g83
g64
NtRp2475
(dp2476
g67
(dp2477
sg76
g2462
sg69
(lp2478
g62
(g63
g64
NtRp2479
(dp2480
g67
(dp2481
g75
I3
ssg76
g2475
sg69
(lp2482
g1000
asbasbasbag62
(g78
g64
NtRp2483
(dp2484
g67
(dp2485
sg76
g2290
sg69
(lp2486
g62
(g83
g64
NtRp2487
(dp2488
g67
(dp2489
g87
g88
ssg76
g2483
sg69
(lp2490
S'PATH_INFO'
p2491
asbag62
(g83
g64
NtRp2492
(dp2493
g67
(dp2494
g94
g95
ssg76
g2483
sg69
(lp2495
S':'
asbag62
(g83
g64
NtRp2496
(dp2497
g67
(dp2498
sg76
g2483
sg69
(lp2499
g62
(g63
g64
NtRp2500
(dp2501
g67
(dp2502
g75
I3
ssg76
g2496
sg69
(lp2503
g1064
asbasbasbag62
(g78
g64
NtRp2504
(dp2505
g67
(dp2506
sg76
g2290
sg69
(lp2507
g62
(g83
g64
NtRp2508
(dp2509
g67
(dp2510
g87
g88
ssg76
g2504
sg69
(lp2511
S'QUERY_STRING'
p2512
asbag62
(g83
g64
NtRp2513
(dp2514
g67
(dp2515
g94
g95
ssg76
g2504
sg69
(lp2516
S':'
asbag62
(g83
g64
NtRp2517
(dp2518
g67
(dp2519
sg76
g2504
sg69
(lp2520
g62
(g63
g64
NtRp2521
(dp2522
g67
(dp2523
g75
I3
ssg76
g2517
sg69
(lp2524
g1086
asbasbasbag62
(g78
g64
NtRp2525
(dp2526
g67
(dp2527
sg76
g2290
sg69
(lp2528
g62
(g83
g64
NtRp2529
(dp2530
g67
(dp2531
g87
g88
ssg76
g2525
sg69
(lp2532
S'REMOTE_ADDR'
p2533
asbag62
(g83
g64
NtRp2534
(dp2535
g67
(dp2536
g94
g95
ssg76
g2525
sg69
(lp2537
S':'
asbag62
(g83
g64
NtRp2538
(dp2539
g67
(dp2540
sg76
g2525
sg69
(lp2541
g62
(g63
g64
NtRp2542
(dp2543
g67
(dp2544
g75
I3
ssg76
g2538
sg69
(lp2545
g195
asbasbasbag62
(g78
g64
NtRp2546
(dp2547
g67
(dp2548
sg76
g2290
sg69
(lp2549
g62
(g83
g64
NtRp2550
(dp2551
g67
(dp2552
g87
g88
ssg76
g2546
sg69
(lp2553
S'REMOTE_PORT'
p2554
asbag62
(g83
g64
NtRp2555
(dp2556
g67
(dp2557
g94
g95
ssg76
g2546
sg69
(lp2558
S':'
asbag62
(g83
g64
NtRp2559
(dp2560
g67
(dp2561
sg76
g2546
sg69
(lp2562
g62
(g63
g64
NtRp2563
(dp2564
g67
(dp2565
g75
I3
ssg76
g2559
sg69
(lp2566
g1129
asbasbasbag62
(g78
g64
NtRp2567
(dp2568
g67
(dp2569
sg76
g2290
sg69
(lp2570
g62
(g83
g64
NtRp2571
(dp2572
g67
(dp2573
g87
g88
ssg76
g2567
sg69
(lp2574
S'REQUEST_METHOD'
p2575
asbag62
(g83
g64
NtRp2576
(dp2577
g67
(dp2578
g94
g95
ssg76
g2567
sg69
(lp2579
S':'
asbag62
(g83
g64
NtRp2580
(dp2581
g67
(dp2582
sg76
g2567
sg69
(lp2583
g62
(g63
g64
NtRp2584
(dp2585
g67
(dp2586
g75
I3
ssg76
g2580
sg69
(lp2587
g1151
asbasbasbag62
(g78
g64
NtRp2588
(dp2589
g67
(dp2590
sg76
g2290
sg69
(lp2591
g62
(g83
g64
NtRp2592
(dp2593
g67
(dp2594
g87
g88
ssg76
g2588
sg69
(lp2595
S'SCRIPT_NAME'
p2596
asbag62
(g83
g64
NtRp2597
(dp2598
g67
(dp2599
g94
g95
ssg76
g2588
sg69
(lp2600
S':'
asbag62
(g83
g64
NtRp2601
(dp2602
g67
(dp2603
sg76
g2588
sg69
(lp2604
g62
(g63
g64
NtRp2605
(dp2606
g67
(dp2607
g75
I3
ssg76
g2601
sg69
(lp2608
S''
asbasbasbag62
(g78
g64
NtRp2609
(dp2610
g67
(dp2611
sg76
g2290
sg69
(lp2612
g62
(g83
g64
NtRp2613
(dp2614
g67
(dp2615
g87
g88
ssg76
g2609
sg69
(lp2616
S'SERVER_NAME'
p2617
asbag62
(g83
g64
NtRp2618
(dp2619
g67
(dp2620
g94
g95
ssg76
g2609
sg69
(lp2621
S':'
asbag62
(g83
g64
NtRp2622
(dp2623
g67
(dp2624
sg76
g2609
sg69
(lp2625
g62
(g63
g64
NtRp2626
(dp2627
g67
(dp2628
g75
I3
ssg76
g2622
sg69
(lp2629
g1194
asbasbasbag62
(g78
g64
NtRp2630
(dp2631
g67
(dp2632
sg76
g2290
sg69
(lp2633
g62
(g83
g64
NtRp2634
(dp2635
g67
(dp2636
g87
g88
ssg76
g2630
sg69
(lp2637
S'SERVER_PORT'
p2638
asbag62
(g83
g64
NtRp2639
(dp2640
g67
(dp2641
g94
g95
ssg76
g2630
sg69
(lp2642
S':'
asbag62
(g83
g64
NtRp2643
(dp2644
g67
(dp2645
sg76
g2630
sg69
(lp2646
g62
(g63
g64
NtRp2647
(dp2648
g67
(dp2649
g75
I3
ssg76
g2643
sg69
(lp2650
g1216
asbasbasbag62
(g78
g64
NtRp2651
(dp2652
g67
(dp2653
sg76
g2290
sg69
(lp2654
g62
(g83
g64
NtRp2655
(dp2656
g67
(dp2657
g87
g88
ssg76
g2651
sg69
(lp2658
S'SERVER_PROTOCOL'
p2659
asbag62
(g83
g64
NtRp2660
(dp2661
g67
(dp2662
g94
g95
ssg76
g2651
sg69
(lp2663
S':'
asbag62
(g83
g64
NtRp2664
(dp2665
g67
(dp2666
sg76
g2651
sg69
(lp2667
g62
(g63
g64
NtRp2668
(dp2669
g67
(dp2670
g75
I3
ssg76
g2664
sg69
(lp2671
g1238
asbasbasbag62
(g78
g64
NtRp2672
(dp2673
g67
(dp2674
sg76
g2290
sg69
(lp2675
g62
(g83
g64
NtRp2676
(dp2677
g67
(dp2678
g87
g88
ssg76
g2672
sg69
(lp2679
S'SERVER_SOFTWARE'
p2680
asbag62
(g83
g64
NtRp2681
(dp2682
g67
(dp2683
g94
g95
ssg76
g2672
sg69
(lp2684
S':'
asbag62
(g83
g64
NtRp2685
(dp2686
g67
(dp2687
sg76
g2672
sg69
(lp2688
g62
(g63
g64
NtRp2689
(dp2690
g67
(dp2691
g75
I3
ssg76
g2685
sg69
(lp2692
g1260
asbasbasbag62
(g78
g64
NtRp2693
(dp2694
g67
(dp2695
sg76
g2290
sg69
(lp2696
g62
(g83
g64
NtRp2697
(dp2698
g67
(dp2699
g87
g88
ssg76
g2693
sg69
(lp2700
S'wsgi.errors'
p2701
asbag62
(g83
g64
NtRp2702
(dp2703
g67
(dp2704
g94
g95
ssg76
g2693
sg69
(lp2705
S':'
asbag62
(g83
g64
NtRp2706
(dp2707
g67
(dp2708
sg76
g2693
sg69
(lp2709
g62
(g63
g64
NtRp2710
(dp2711
g67
(dp2712
g75
I3
ssg76
g2706
sg69
(lp2713
S"<open file '<stderr>', mode 'w' at 0xb73650d0>"
p2714
asbasbasbag62
(g78
g64
NtRp2715
(dp2716
g67
(dp2717
sg76
g2290
sg69
(lp2718
g62
(g83
g64
NtRp2719
(dp2720
g67
(dp2721
g87
g88
ssg76
g2715
sg69
(lp2722
S'wsgi.file_wrapper'
p2723
asbag62
(g83
g64
NtRp2724
(dp2725
g67
(dp2726
g94
g95
ssg76
g2715
sg69
(lp2727
S':'
asbag62
(g83
g64
NtRp2728
(dp2729
g67
(dp2730
sg76
g2715
sg69
(lp2731
g62
(g63
g64
NtRp2732
(dp2733
g67
(dp2734
g75
I3
ssg76
g2728
sg69
(lp2735
S'<class wsgiref.util.FileWrapper at 0x987423c>'
p2736
asbasbasbag62
(g78
g64
NtRp2737
(dp2738
g67
(dp2739
sg76
g2290
sg69
(lp2740
g62
(g83
g64
NtRp2741
(dp2742
g67
(dp2743
g87
g88
ssg76
g2737
sg69
(lp2744
S'wsgi.input'
p2745
asbag62
(g83
g64
NtRp2746
(dp2747
g67
(dp2748
g94
g95
ssg76
g2737
sg69
(lp2749
S':'
asbag62
(g83
g64
NtRp2750
(dp2751
g67
(dp2752
sg76
g2737
sg69
(lp2753
g62
(g63
g64
NtRp2754
(dp2755
g67
(dp2756
g75
I3
ssg76
g2750
sg69
(lp2757
S'<cStringIO.StringO object at 0xaafc84c0>'
p2758
asbasbasbag62
(g78
g64
NtRp2759
(dp2760
g67
(dp2761
sg76
g2290
sg69
(lp2762
g62
(g83
g64
NtRp2763
(dp2764
g67
(dp2765
g87
g88
ssg76
g2759
sg69
(lp2766
S'wsgi.multiprocess'
p2767
asbag62
(g83
g64
NtRp2768
(dp2769
g67
(dp2770
g94
g95
ssg76
g2759
sg69
(lp2771
S':'
asbag62
(g83
g64
NtRp2772
(dp2773
g67
(dp2774
sg76
g2759
sg69
(lp2775
g62
(g63
g64
NtRp2776
(dp2777
g67
(dp2778
g75
I3
ssg76
g2772
sg69
(lp2779
g780
asbasbasbag62
(g78
g64
NtRp2780
(dp2781
g67
(dp2782
sg76
g2290
sg69
(lp2783
g62
(g83
g64
NtRp2784
(dp2785
g67
(dp2786
g87
g88
ssg76
g2780
sg69
(lp2787
S'wsgi.multithread'
p2788
asbag62
(g83
g64
NtRp2789
(dp2790
g67
(dp2791
g94
g95
ssg76
g2780
sg69
(lp2792
S':'
asbag62
(g83
g64
NtRp2793
(dp2794
g67
(dp2795
sg76
g2780
sg69
(lp2796
g62
(g63
g64
NtRp2797
(dp2798
g67
(dp2799
g75
I3
ssg76
g2793
sg69
(lp2800
g105
asbasbasbag62
(g78
g64
NtRp2801
(dp2802
g67
(dp2803
sg76
g2290
sg69
(lp2804
g62
(g83
g64
NtRp2805
(dp2806
g67
(dp2807
g87
g88
ssg76
g2801
sg69
(lp2808
S'wsgi.run_once'
p2809
asbag62
(g83
g64
NtRp2810
(dp2811
g67
(dp2812
g94
g95
ssg76
g2801
sg69
(lp2813
S':'
asbag62
(g83
g64
NtRp2814
(dp2815
g67
(dp2816
sg76
g2801
sg69
(lp2817
g62
(g63
g64
NtRp2818
(dp2819
g67
(dp2820
g75
I3
ssg76
g2814
sg69
(lp2821
g780
asbasbasbag62
(g78
g64
NtRp2822
(dp2823
g67
(dp2824
sg76
g2290
sg69
(lp2825
g62
(g83
g64
NtRp2826
(dp2827
g67
(dp2828
g87
g88
ssg76
g2822
sg69
(lp2829
S'wsgi.url_scheme'
p2830
asbag62
(g83
g64
NtRp2831
(dp2832
g67
(dp2833
g94
g95
ssg76
g2822
sg69
(lp2834
S':'
asbag62
(g83
g64
NtRp2835
(dp2836
g67
(dp2837
sg76
g2822
sg69
(lp2838
g62
(g63
g64
NtRp2839
(dp2840
g67
(dp2841
g75
I3
ssg76
g2835
sg69
(lp2842
g1542
asbasbasbag62
(g78
g64
NtRp2843
(dp2844
g67
(dp2845
sg76
g2290
sg69
(lp2846
g62
(g83
g64
NtRp2847
(dp2848
g67
(dp2849
g87
g88
ssg76
g2843
sg69
(lp2850
S'wsgi.version'
p2851
asbag62
(g83
g64
NtRp2852
(dp2853
g67
(dp2854
g94
g95
ssg76
g2843
sg69
(lp2855
S':'
asbag62
(g83
g64
NtRp2856
(dp2857
g67
(dp2858
sg76
g2843
sg69
(lp2859
g62
(g63
g64
NtRp2860
(dp2861
g67
(dp2862
g75
I3
ssg76
g2856
sg69
(lp2863
S'1'
asbasbasbasbasbasbasbasbasbasbasbasbasbsS'frames'
p2864
(lp2865
(dp2866
S'file'
p2867
S'/usr/lib/pymodules/python2.7/gluon/restricted.py'
p2868
sS'dump'
p2869
(dp2870
S'environment'
p2871
S"{'A': <class 'gluon.html.A'>, 'Auth': <class 'gluon.tools.Auth'>, 'B': <class 'gluon.html.B'>, 'BEAUTIFY': <class 'gluon.html.BEAUTIFY'>, 'BODY': <class 'gluon.html.BODY'>, 'BR': <class 'gluon.html.BR'>, 'BUTTON': <class 'gluon.html.BUTTON'>, 'Bio': <module 'Bio' from '/usr/local/lib/python2.7/dist-packages/Bio/__init__.py'>, 'CAT': <class 'gluon.html.CAT'>, 'CENTER': <class 'gluon.html.CENTER'>, ...}"
p2872
sS'ccode'
p2873
S'<code object <module> at 0xaac2e068, file "/home...oShiny/controllers/reconciliotastic.py", line 11>'
p2874
ssS'lnum'
p2875
I204
sS'lines'
p2876
(dp2877
I199
S'    try:'
p2878
sI200
S'        if type(code) == types.CodeType:'
p2879
sI201
S'            ccode = code'
p2880
sI202
S'        else:'
p2881
sI203
S'            ccode = compile2(code,layer)'
p2882
sI204
S'        exec ccode in environment'
p2883
sI205
S'    except HTTP:'
p2884
sI206
S'        raise'
p2885
sI207
S'    except RestrictedError:'
p2886
sI208
S'        # do not encapsulate (obfuscate) the original RestrictedError'
p2887
ssS'call'
p2888
S"(code='# -*- coding: utf-8 -*-\\n# this file is released ...ponse._vars=response._caller(getPhylotasticTree)\\n', environment={'A': <class 'gluon.html.A'>, 'Auth': <class 'gluon.tools.Auth'>, 'B': <class 'gluon.html.B'>, 'BEAUTIFY': <class 'gluon.html.BEAUTIFY'>, 'BODY': <class 'gluon.html.BODY'>, 'BR': <class 'gluon.html.BR'>, 'BUTTON': <class 'gluon.html.BUTTON'>, 'Bio': <module 'Bio' from '/usr/local/lib/python2.7/dist-packages/Bio/__init__.py'>, 'CAT': <class 'gluon.html.CAT'>, 'CENTER': <class 'gluon.html.CENTER'>, ...}, layer='/home/prateek/web2py/applications/phyloShiny/controllers/reconciliotastic.py')"
p2889
sS'func'
p2890
S'restricted'
p2891
sa(dp2892
g2867
S'/home/prateek/web2py/applications/phyloShiny/controllers/reconciliotastic.py'
p2893
sg2869
(dp2894
sg2875
I170
sg2876
(dp2895
I160
S"    shellCall += ' '+speciesTreeFile"
p2896
sI161
S''
sI162
S'    os.system(shellCall)'
p2897
sI163
S''
sI164
S"    reconciledTreeWebFile = getRelativeWebPath('_preprocessed_gene_tree.phylo_gsdi_out.phylo.xml')"
p2898
sI165
S''
sI166
S'    return response.json( dict(vizFile = reconciledTreeWebFile,'
p2899
sI167
S'                               vizLabel = "Reconciled Tree (red=duplication, green=speciation)"'
p2900
sI168
S'                               ) )'
p2901
sI159
S'    shellCall += geneTreeFile'
p2902
ssg2888
S'()'
p2903
sg2890
S'<module>'
p2904
sa(dp2905
g2867
S'/usr/lib/pymodules/python2.7/gluon/globals.py'
p2906
sg2869
(dp2907
S'self'
p2908
S'undefined'
p2909
sS'f'
S'<function getPhylotasticTree>'
p2910
ssg2875
I172
sg2876
(dp2911
I167
S'        self.meta = Storage()      # used by web2py_ajax.html'
p2912
sI168
S'        self.menu = []             # used by the default view layout'
p2913
sI169
S'        self.files = []            # used by web2py_ajax.html'
p2914
sI170
S'        self.generic_patterns = [] # patterns to allow generic views'
p2915
sI171
S'        self._vars = None'
p2916
sI172
S'        self._caller = lambda f: f()'
p2917
sI173
S'        self._view_environment = None'
p2918
sI174
S'        self._custom_commit = None'
p2919
sI175
S'        self._custom_rollback = None'
p2920
sI176
S''
ssg2888
S'(f=<function getPhylotasticTree>)'
p2921
sg2890
S'<lambda>'
p2922
sa(dp2923
g2867
S'/home/prateek/web2py/applications/phyloShiny/controllers/reconciliotastic.py'
p2924
sg2869
(dp2925
S'got_nodes'
p2926
g2909
sS'global countnodes'
p2927
S'<function countnodes>'
p2928
ssg2875
I125
sg2876
(dp2929
I128
S''
sI129
S"    speciesTreeWebFile = getRelativeWebPath('_species_tree.txt')"
p2930
sI120
S'    # the returned species tree, so we can let users know if PTastic'
p2931
sI121
S'    # found everything we searched for. This would require parsing the'
p2932
sI122
S'    # Newick and counting nodes, probably using something like'
p2933
sI123
S'    # BioPython rather than making an external call to Java again.'
p2934
sI124
S''
sI125
S'    got_nodes=countnodes()'
p2935
sI126
S'    #no. of non-terminal nodes received in got_nodes.Now can be printed or checked with user input value to test if all species received.'
p2936
sI127
S'    #then further we can maintain a textview in the frontend indicating the number of nodes(i.e. the number of species)'
p2937
ssg2888
S'()'
p2938
sg2890
S'getPhylotasticTree'
p2939
sa(dp2940
g2867
S'/home/prateek/web2py/applications/phyloShiny/controllers/reconciliotastic.py'
p2941
sg2869
(dp2942
S'global Phylo'
p2943
S"<module 'Bio.Phylo' from '/usr/local/lib/python2.7/dist-packages/Bio/Phylo/__init__.py'>"
p2944
sS'tree'
p2945
g2909
sS'Phylo.read'
p2946
S'<function read>'
p2947
ssg2875
I142
sg2876
(dp2948
I137
S''
sI138
S'    #setting a counter for counting nodes i.e.number of species in the species newick tree.'
p2949
sI139
S'    #I have referenced the link http://biopython.org/DIST/docs/tutorial/Tutorial.html#htoc182 to know the get_terminals() function'
p2950
sI140
S''
sI141
S'    count=0\t\t\t\t\t\t\t\t\t#global counter to keep the count of the nodes'
p2951
sI142
S"    tree = Phylo.read('speciesTreeFilename', 'newick')\t\t\t\t#tree reads the species labels in newick format"
p2952
sI143
S'    for node in tree.get_terminals(): \t\t\t\t\t#loop to traverse through these nodes'
p2953
sI144
S'\t    count+=1\t\t\t\t\t\t\t\t\t#updating counter value'
p2954
sI145
S'    return count\t\t\t\t\t\t\t\t#counter value return'
p2955
sI146
S''
ssg2888
S'()'
p2956
sg2890
S'countnodes'
p2957
sa(dp2958
g2867
S'/usr/local/lib/python2.7/dist-packages/Bio/Phylo/_io.py'
p2959
sg2869
(dp2960
S'tree_gen.next'
p2961
S"<method-wrapper 'next' of generator object>"
p2962
sS'tree'
p2963
g2909
sS'tree_gen'
p2964
S'<generator object parse>'
p2965
ssg2875
I64
sg2876
(dp2966
I64
S'        tree = tree_gen.next()'
p2967
sI65
S'    except StopIteration:'
p2968
sI66
S'        raise ValueError("There are no trees in this file.")'
p2969
sI67
S'    try:'
p2970
sI68
S'        tree_gen.next()'
p2971
sI59
S'    Raises a `ValueError` if there are zero or multiple trees -- if this occurs,'
p2972
sI60
S'    use `parse` instead to get the complete sequence of trees.'
p2973
sI61
S'    """'
p2974
sI62
S'    try:'
p2975
sI63
S'        tree_gen = parse(file, format, **kwargs)'
p2976
ssg2888
S"(file='speciesTreeFilename', format='newick', **kwargs={})"
p2977
sg2890
S'read'
p2978
sa(dp2979
g2867
S'/usr/local/lib/python2.7/dist-packages/Bio/Phylo/_io.py'
p2980
sg2869
(dp2981
S'fp'
p2982
g2909
sS'global File'
p2983
S"<module 'Bio.File' from '/usr/local/lib/python2.7/dist-packages/Bio/File.py'>"
p2984
sS'file'
p2985
S"'speciesTreeFilename'"
p2986
sS'File.as_handle'
p2987
S'<function as_handle>'
p2988
ssg2875
I51
sg2876
(dp2989
I46
S"    >>> trees = parse('../../Tests/PhyloXML/apaf.xml', 'phyloxml')"
p2990
sI47
S'    >>> for tree in trees:'
p2991
sI48
S'    ...     print tree.rooted'
p2992
sI49
S'    True'
p2993
sI50
S'    """'
p2994
sI51
S"    with File.as_handle(file, 'r') as fp:"
p2995
sI52
S"        for tree in getattr(supported_formats[format], 'parse')(fp, **kwargs):"
p2996
sI53
S'            yield tree'
p2997
sI54
S''
sI55
S''
ssg2888
S"(file='speciesTreeFilename', format='newick', **kwargs={})"
p2998
sg2890
S'parse'
p2999
sa(dp3000
g2867
S'/usr/lib/python2.7/contextlib.py'
p3001
sg2869
(dp3002
S'self'
p3003
S'<contextlib.GeneratorContextManager object>'
p3004
sS'self.gen'
p3005
S'<generator object as_handle>'
p3006
sS'self.gen.next'
p3007
S"<method-wrapper 'next' of generator object>"
p3008
ssg2875
I17
sg2876
(dp3009
I12
S'    def __init__(self, gen):'
p3010
sI13
S'        self.gen = gen'
p3011
sI14
S''
sI15
S'    def __enter__(self):'
p3012
sI16
S'        try:'
p3013
sI17
S'            return self.gen.next()'
p3014
sI18
S'        except StopIteration:'
p3015
sI19
S'            raise RuntimeError("generator didn\'t yield")'
p3016
sI20
S''
sI21
S'    def __exit__(self, type, value, traceback):'
p3017
ssg2888
S'(self=<contextlib.GeneratorContextManager object>)'
p3018
sg2890
S'__enter__'
p3019
sa(dp3020
g2867
S'/usr/local/lib/python2.7/dist-packages/Bio/File.py'
p3021
sg2869
(dp3022
S'fp'
p3023
g2909
sS'builtinopen'
p3024
S'<built-in function open>'
p3025
sS'handleish'
p3026
S"'speciesTreeFilename'"
p3027
sS'mode'
p3028
S"'r'"
p3029
sS'kwargs'
p3030
g19
ssg2875
I77
sg2876
(dp3031
I72
S'    if isinstance(handleish, basestring):'
p3032
sI73
S"        if 'encoding' in kwargs:"
p3033
sI74
S'            with codecs.open(handleish, mode, **kwargs) as fp:'
p3034
sI75
S'                yield fp'
p3035
sI76
S'        else:'
p3036
sI77
S'            with open(handleish, mode, **kwargs) as fp:'
p3037
sI78
S'                yield fp'
p3038
sI79
S'    else:'
p3039
sI80
S'        yield handleish'
p3040
sI81
S''
ssg2888
S"(handleish='speciesTreeFilename', mode='r', **kwargs={})"
p3041
sg2890
S'as_handle'
p3042
sasS'pyver'
p3043
S'Python 2.7.3: /usr/bin/python'
p3044
sS'session'
p3045
g62
(g63
g64
NtRp3046
(dp3047
g67
(dp3048
sg69
(lp3049
g62
(g71
g64
NtRp3050
(dp3051
g67
(dp3052
g75
I5
ssg76
Nsg69
(lp3053
sbasbsS'etype'
p3054
S"<type 'exceptions.IOError'>"
p3055
sS'date'
p3056
S'Fri May 17 12:29:07 2013'
p3057
sS'response'
p3058
g62
(g63
g64
NtRp3059
(dp3060
g67
(dp3061
sg69
(lp3062
g62
(g71
g64
NtRp3063
(dp3064
g67
(dp3065
g75
I5
ssg76
Nsg69
(lp3066
g62
(g78
g64
NtRp3067
(dp3068
g67
(dp3069
sg76
g3063
sg69
(lp3070
g62
(g83
g64
NtRp3071
(dp3072
g67
(dp3073
g87
g88
ssg76
g3067
sg69
(lp3074
g160
asbag62
(g83
g64
NtRp3075
(dp3076
g67
(dp3077
g94
g95
ssg76
g3067
sg69
(lp3078
S':'
asbag62
(g83
g64
NtRp3079
(dp3080
g67
(dp3081
sg76
g3067
sg69
(lp3082
g62
(g63
g64
NtRp3083
(dp3084
g67
(dp3085
g75
I5
ssg76
g3079
sg69
(lp3086
S'<cStringIO.StringO object at 0xaafc2760>'
p3087
asbasbasbag62
(g78
g64
NtRp3088
(dp3089
g67
(dp3090
sg76
g3063
sg69
(lp3091
g62
(g83
g64
NtRp3092
(dp3093
g67
(dp3094
g87
g88
ssg76
g3088
sg69
(lp3095
g226
asbag62
(g83
g64
NtRp3096
(dp3097
g67
(dp3098
g94
g95
ssg76
g3088
sg69
(lp3099
S':'
asbag62
(g83
g64
NtRp3100
(dp3101
g67
(dp3102
sg76
g3088
sg69
(lp3103
g62
(g63
g64
NtRp3104
(dp3105
g67
(dp3106
g75
I5
ssg76
g3100
sg69
(lp3107
g62
(g71
g64
NtRp3108
(dp3109
g67
(dp3110
g75
I4
ssg76
Nsg69
(lp3111
g62
(g78
g64
NtRp3112
(dp3113
g67
(dp3114
sg76
g3108
sg69
(lp3115
g62
(g83
g64
NtRp3116
(dp3117
g67
(dp3118
g87
g88
ssg76
g3112
sg69
(lp3119
S'session_id_phyloshiny'
p3120
asbag62
(g83
g64
NtRp3121
(dp3122
g67
(dp3123
g94
g95
ssg76
g3112
sg69
(lp3124
S':'
asbag62
(g83
g64
NtRp3125
(dp3126
g67
(dp3127
sg76
g3112
sg69
(lp3128
g62
(g63
g64
NtRp3129
(dp3130
g67
(dp3131
g75
I4
ssg76
g3125
sg69
(lp3132
g62
(g71
g64
NtRp3133
(dp3134
g67
(dp3135
g75
I3
ssg76
Nsg69
(lp3136
g62
(g78
g64
NtRp3137
(dp3138
g67
(dp3139
sg76
g3133
sg69
(lp3140
g62
(g83
g64
NtRp3141
(dp3142
g67
(dp3143
g87
g88
ssg76
g3137
sg69
(lp3144
g276
asbag62
(g83
g64
NtRp3145
(dp3146
g67
(dp3147
g94
g95
ssg76
g3137
sg69
(lp3148
S':'
asbag62
(g83
g64
NtRp3149
(dp3150
g67
(dp3151
sg76
g3137
sg69
(lp3152
g62
(g63
g64
NtRp3153
(dp3154
g67
(dp3155
g75
I3
ssg76
g3149
sg69
(lp3156
S''
asbasbasbag62
(g78
g64
NtRp3157
(dp3158
g67
(dp3159
sg76
g3133
sg69
(lp3160
g62
(g83
g64
NtRp3161
(dp3162
g67
(dp3163
g87
g88
ssg76
g3157
sg69
(lp3164
g297
asbag62
(g83
g64
NtRp3165
(dp3166
g67
(dp3167
g94
g95
ssg76
g3157
sg69
(lp3168
S':'
asbag62
(g83
g64
NtRp3169
(dp3170
g67
(dp3171
sg76
g3157
sg69
(lp3172
g62
(g63
g64
NtRp3173
(dp3174
g67
(dp3175
g75
I3
ssg76
g3169
sg69
(lp3176
S''
asbasbasbag62
(g78
g64
NtRp3177
(dp3178
g67
(dp3179
sg76
g3133
sg69
(lp3180
g62
(g83
g64
NtRp3181
(dp3182
g67
(dp3183
g87
g88
ssg76
g3177
sg69
(lp3184
g318
asbag62
(g83
g64
NtRp3185
(dp3186
g67
(dp3187
g94
g95
ssg76
g3177
sg69
(lp3188
S':'
asbag62
(g83
g64
NtRp3189
(dp3190
g67
(dp3191
sg76
g3177
sg69
(lp3192
g62
(g63
g64
NtRp3193
(dp3194
g67
(dp3195
g75
I3
ssg76
g3189
sg69
(lp3196
S''
asbasbasbag62
(g78
g64
NtRp3197
(dp3198
g67
(dp3199
sg76
g3133
sg69
(lp3200
g62
(g83
g64
NtRp3201
(dp3202
g67
(dp3203
g87
g88
ssg76
g3197
sg69
(lp3204
g339
asbag62
(g83
g64
NtRp3205
(dp3206
g67
(dp3207
g94
g95
ssg76
g3197
sg69
(lp3208
S':'
asbag62
(g83
g64
NtRp3209
(dp3210
g67
(dp3211
sg76
g3197
sg69
(lp3212
g62
(g63
g64
NtRp3213
(dp3214
g67
(dp3215
g75
I3
ssg76
g3209
sg69
(lp3216
S''
asbasbasbag62
(g78
g64
NtRp3217
(dp3218
g67
(dp3219
sg76
g3133
sg69
(lp3220
g62
(g83
g64
NtRp3221
(dp3222
g67
(dp3223
g87
g88
ssg76
g3217
sg69
(lp3224
g360
asbag62
(g83
g64
NtRp3225
(dp3226
g67
(dp3227
g94
g95
ssg76
g3217
sg69
(lp3228
S':'
asbag62
(g83
g64
NtRp3229
(dp3230
g67
(dp3231
sg76
g3217
sg69
(lp3232
g62
(g63
g64
NtRp3233
(dp3234
g67
(dp3235
g75
I3
ssg76
g3229
sg69
(lp3236
S''
asbasbasbag62
(g78
g64
NtRp3237
(dp3238
g67
(dp3239
sg76
g3133
sg69
(lp3240
g62
(g83
g64
NtRp3241
(dp3242
g67
(dp3243
g87
g88
ssg76
g3237
sg69
(lp3244
g381
asbag62
(g83
g64
NtRp3245
(dp3246
g67
(dp3247
g94
g95
ssg76
g3237
sg69
(lp3248
S':'
asbag62
(g83
g64
NtRp3249
(dp3250
g67
(dp3251
sg76
g3237
sg69
(lp3252
g62
(g63
g64
NtRp3253
(dp3254
g67
(dp3255
g75
I3
ssg76
g3249
sg69
(lp3256
S'/'
asbasbasbag62
(g78
g64
NtRp3257
(dp3258
g67
(dp3259
sg76
g3133
sg69
(lp3260
g62
(g83
g64
NtRp3261
(dp3262
g67
(dp3263
g87
g88
ssg76
g3257
sg69
(lp3264
g402
asbag62
(g83
g64
NtRp3265
(dp3266
g67
(dp3267
g94
g95
ssg76
g3257
sg69
(lp3268
S':'
asbag62
(g83
g64
NtRp3269
(dp3270
g67
(dp3271
sg76
g3257
sg69
(lp3272
g62
(g63
g64
NtRp3273
(dp3274
g67
(dp3275
g75
I3
ssg76
g3269
sg69
(lp3276
S''
asbasbasbag62
(g78
g64
NtRp3277
(dp3278
g67
(dp3279
sg76
g3133
sg69
(lp3280
g62
(g83
g64
NtRp3281
(dp3282
g67
(dp3283
g87
g88
ssg76
g3277
sg69
(lp3284
g423
asbag62
(g83
g64
NtRp3285
(dp3286
g67
(dp3287
g94
g95
ssg76
g3277
sg69
(lp3288
S':'
asbag62
(g83
g64
NtRp3289
(dp3290
g67
(dp3291
sg76
g3277
sg69
(lp3292
g62
(g63
g64
NtRp3293
(dp3294
g67
(dp3295
g75
I3
ssg76
g3289
sg69
(lp3296
S''
asbasbasbasbasbasbasbasbasbasbasbag62
(g78
g64
NtRp3297
(dp3298
g67
(dp3299
sg76
g3063
sg69
(lp3300
g62
(g83
g64
NtRp3301
(dp3302
g67
(dp3303
g87
g88
ssg76
g3297
sg69
(lp3304
S'files'
p3305
asbag62
(g83
g64
NtRp3306
(dp3307
g67
(dp3308
g94
g95
ssg76
g3297
sg69
(lp3309
S':'
asbag62
(g83
g64
NtRp3310
(dp3311
g67
(dp3312
sg76
g3297
sg69
(lp3313
g62
(g63
g64
NtRp3314
(dp3315
g67
(dp3316
g75
I5
ssg76
g3310
sg69
(lp3317
g62
(g71
g64
NtRp3318
(dp3319
g67
(dp3320
g75
I4
ssg76
Nsg69
(lp3321
sbasbasbasbag62
(g78
g64
NtRp3322
(dp3323
g67
(dp3324
sg76
g3063
sg69
(lp3325
g62
(g83
g64
NtRp3326
(dp3327
g67
(dp3328
g87
g88
ssg76
g3322
sg69
(lp3329
S'flash'
p3330
asbag62
(g83
g64
NtRp3331
(dp3332
g67
(dp3333
g94
g95
ssg76
g3322
sg69
(lp3334
S':'
asbag62
(g83
g64
NtRp3335
(dp3336
g67
(dp3337
sg76
g3322
sg69
(lp3338
g62
(g63
g64
NtRp3339
(dp3340
g67
(dp3341
g75
I5
ssg76
g3335
sg69
(lp3342
S''
asbasbasbag62
(g78
g64
NtRp3343
(dp3344
g67
(dp3345
sg76
g3063
sg69
(lp3346
g62
(g83
g64
NtRp3347
(dp3348
g67
(dp3349
g87
g88
ssg76
g3343
sg69
(lp3350
S'generic_patterns'
p3351
asbag62
(g83
g64
NtRp3352
(dp3353
g67
(dp3354
g94
g95
ssg76
g3343
sg69
(lp3355
S':'
asbag62
(g83
g64
NtRp3356
(dp3357
g67
(dp3358
sg76
g3343
sg69
(lp3359
g62
(g63
g64
NtRp3360
(dp3361
g67
(dp3362
g75
I5
ssg76
g3356
sg69
(lp3363
g62
(g71
g64
NtRp3364
(dp3365
g67
(dp3366
g75
I4
ssg76
Nsg69
(lp3367
g62
(g78
g64
NtRp3368
(dp3369
g67
(dp3370
sg76
g3364
sg69
(lp3371
g62
(g83
g64
NtRp3372
(dp3373
g67
(dp3374
sg76
g3368
sg69
(lp3375
g62
(g63
g64
NtRp3376
(dp3377
g67
(dp3378
g75
I4
ssg76
g3372
sg69
(lp3379
S'*'
asbasbasbasbasbasbasbag62
(g78
g64
NtRp3380
(dp3381
g67
(dp3382
sg76
g3063
sg69
(lp3383
g62
(g83
g64
NtRp3384
(dp3385
g67
(dp3386
g87
g88
ssg76
g3380
sg69
(lp3387
S'headers'
p3388
asbag62
(g83
g64
NtRp3389
(dp3390
g67
(dp3391
g94
g95
ssg76
g3380
sg69
(lp3392
S':'
asbag62
(g83
g64
NtRp3393
(dp3394
g67
(dp3395
sg76
g3380
sg69
(lp3396
g62
(g63
g64
NtRp3397
(dp3398
g67
(dp3399
g75
I5
ssg76
g3393
sg69
(lp3400
g62
(g71
g64
NtRp3401
(dp3402
g67
(dp3403
g75
I4
ssg76
Nsg69
(lp3404
g62
(g78
g64
NtRp3405
(dp3406
g67
(dp3407
sg76
g3401
sg69
(lp3408
g62
(g83
g64
NtRp3409
(dp3410
g67
(dp3411
g87
g88
ssg76
g3405
sg69
(lp3412
S'Cache-Control'
p3413
asbag62
(g83
g64
NtRp3414
(dp3415
g67
(dp3416
g94
g95
ssg76
g3405
sg69
(lp3417
S':'
asbag62
(g83
g64
NtRp3418
(dp3419
g67
(dp3420
sg76
g3405
sg69
(lp3421
g62
(g63
g64
NtRp3422
(dp3423
g67
(dp3424
g75
I4
ssg76
g3418
sg69
(lp3425
S'no-store, no-cache, must-revalidate, post-check=0, pre-check=0'
p3426
asbasbasbag62
(g78
g64
NtRp3427
(dp3428
g67
(dp3429
sg76
g3401
sg69
(lp3430
g62
(g83
g64
NtRp3431
(dp3432
g67
(dp3433
g87
g88
ssg76
g3427
sg69
(lp3434
S'Content-Type'
p3435
asbag62
(g83
g64
NtRp3436
(dp3437
g67
(dp3438
g94
g95
ssg76
g3427
sg69
(lp3439
S':'
asbag62
(g83
g64
NtRp3440
(dp3441
g67
(dp3442
sg76
g3427
sg69
(lp3443
g62
(g63
g64
NtRp3444
(dp3445
g67
(dp3446
g75
I4
ssg76
g3440
sg69
(lp3447
S'text/html; charset=utf-8'
p3448
asbasbasbag62
(g78
g64
NtRp3449
(dp3450
g67
(dp3451
sg76
g3401
sg69
(lp3452
g62
(g83
g64
NtRp3453
(dp3454
g67
(dp3455
g87
g88
ssg76
g3449
sg69
(lp3456
S'Expires'
p3457
asbag62
(g83
g64
NtRp3458
(dp3459
g67
(dp3460
g94
g95
ssg76
g3449
sg69
(lp3461
S':'
asbag62
(g83
g64
NtRp3462
(dp3463
g67
(dp3464
sg76
g3449
sg69
(lp3465
g62
(g63
g64
NtRp3466
(dp3467
g67
(dp3468
g75
I4
ssg76
g3462
sg69
(lp3469
S'Fri, 17 May 2013 06:58:58 GMT'
p3470
asbasbasbag62
(g78
g64
NtRp3471
(dp3472
g67
(dp3473
sg76
g3401
sg69
(lp3474
g62
(g83
g64
NtRp3475
(dp3476
g67
(dp3477
g87
g88
ssg76
g3471
sg69
(lp3478
S'Pragma'
p3479
asbag62
(g83
g64
NtRp3480
(dp3481
g67
(dp3482
g94
g95
ssg76
g3471
sg69
(lp3483
S':'
asbag62
(g83
g64
NtRp3484
(dp3485
g67
(dp3486
sg76
g3471
sg69
(lp3487
g62
(g63
g64
NtRp3488
(dp3489
g67
(dp3490
g75
I4
ssg76
g3484
sg69
(lp3491
S'no-cache'
p3492
asbasbasbag62
(g78
g64
NtRp3493
(dp3494
g67
(dp3495
sg76
g3401
sg69
(lp3496
g62
(g83
g64
NtRp3497
(dp3498
g67
(dp3499
g87
g88
ssg76
g3493
sg69
(lp3500
S'X-Powered-By'
p3501
asbag62
(g83
g64
NtRp3502
(dp3503
g67
(dp3504
g94
g95
ssg76
g3493
sg69
(lp3505
S':'
asbag62
(g83
g64
NtRp3506
(dp3507
g67
(dp3508
sg76
g3493
sg69
(lp3509
g62
(g63
g64
NtRp3510
(dp3511
g67
(dp3512
g75
I4
ssg76
g3506
sg69
(lp3513
S'web2py'
p3514
asbasbasbasbasbasbasbag62
(g78
g64
NtRp3515
(dp3516
g67
(dp3517
sg76
g3063
sg69
(lp3518
g62
(g83
g64
NtRp3519
(dp3520
g67
(dp3521
g87
g88
ssg76
g3515
sg69
(lp3522
S'menu'
p3523
asbag62
(g83
g64
NtRp3524
(dp3525
g67
(dp3526
g94
g95
ssg76
g3515
sg69
(lp3527
S':'
asbag62
(g83
g64
NtRp3528
(dp3529
g67
(dp3530
sg76
g3515
sg69
(lp3531
g62
(g63
g64
NtRp3532
(dp3533
g67
(dp3534
g75
I5
ssg76
g3528
sg69
(lp3535
g62
(g71
g64
NtRp3536
(dp3537
g67
(dp3538
g75
I4
ssg76
Nsg69
(lp3539
g62
(g78
g64
NtRp3540
(dp3541
g67
(dp3542
sg76
g3536
sg69
(lp3543
g62
(g83
g64
NtRp3544
(dp3545
g67
(dp3546
sg76
g3540
sg69
(lp3547
g62
(g63
g64
NtRp3548
(dp3549
g67
(dp3550
g75
I4
ssg76
g3544
sg69
(lp3551
g62
(g71
g64
NtRp3552
(dp3553
g67
(dp3554
g75
I3
ssg76
Nsg69
(lp3555
g62
(g78
g64
NtRp3556
(dp3557
g67
(dp3558
sg76
g3552
sg69
(lp3559
g62
(g83
g64
NtRp3560
(dp3561
g67
(dp3562
sg76
g3556
sg69
(lp3563
g62
(g63
g64
NtRp3564
(dp3565
g67
(dp3566
g75
I3
ssg76
g3560
sg69
(lp3567
cgluon.languages
lazyT_unpickle
p3568
(S't\x04\x00\x00\x00Home'
tRp3569
asbasbasbag62
(g78
g64
NtRp3570
(dp3571
g67
(dp3572
sg76
g3552
sg69
(lp3573
g62
(g83
g64
NtRp3574
(dp3575
g67
(dp3576
sg76
g3570
sg69
(lp3577
g62
(g63
g64
NtRp3578
(dp3579
g67
(dp3580
g75
I3
ssg76
g3574
sg69
(lp3581
g780
asbasbasbag62
(g78
g64
NtRp3582
(dp3583
g67
(dp3584
sg76
g3552
sg69
(lp3585
g62
(g83
g64
NtRp3586
(dp3587
g67
(dp3588
sg76
g3582
sg69
(lp3589
g62
(g63
g64
NtRp3590
(dp3591
g67
(dp3592
g75
I3
ssg76
g3586
sg69
(lp3593
S'/phyloShiny/default/index'
p3594
asbasbasbag62
(g78
g64
NtRp3595
(dp3596
g67
(dp3597
sg76
g3552
sg69
(lp3598
g62
(g83
g64
NtRp3599
(dp3600
g67
(dp3601
sg76
g3595
sg69
(lp3602
g62
(g63
g64
NtRp3603
(dp3604
g67
(dp3605
g75
I3
ssg76
g3599
sg69
(lp3606
g62
(g71
g64
NtRp3607
(dp3608
g67
(dp3609
g75
I2
ssg76
Nsg69
(lp3610
sbasbasbasbasbasbasbasbag62
(g78
g64
NtRp3611
(dp3612
g67
(dp3613
sg76
g3536
sg69
(lp3614
g62
(g83
g64
NtRp3615
(dp3616
g67
(dp3617
sg76
g3611
sg69
(lp3618
g62
(g63
g64
NtRp3619
(dp3620
g67
(dp3621
g75
I4
ssg76
g3615
sg69
(lp3622
g62
(g71
g64
NtRp3623
(dp3624
g67
(dp3625
g75
I3
ssg76
Nsg69
(lp3626
g62
(g78
g64
NtRp3627
(dp3628
g67
(dp3629
sg76
g3623
sg69
(lp3630
g62
(g83
g64
NtRp3631
(dp3632
g67
(dp3633
sg76
g3627
sg69
(lp3634
g62
(g63
g64
NtRp3635
(dp3636
g67
(dp3637
g75
I3
ssg76
g3631
sg69
(lp3638
g62
(cgluon.html
SPAN
p3639
g64
NtRp3640
(dp3641
g67
(dp3642
g87
S'color:yellow'
p3643
ssg76
Nsg69
(lp3644
g3514
asbasbasbasbag62
(g78
g64
NtRp3645
(dp3646
g67
(dp3647
sg76
g3623
sg69
(lp3648
g62
(g83
g64
NtRp3649
(dp3650
g67
(dp3651
sg76
g3645
sg69
(lp3652
g62
(g63
g64
NtRp3653
(dp3654
g67
(dp3655
g75
I3
ssg76
g3649
sg69
(lp3656
g780
asbasbasbag62
(g78
g64
NtRp3657
(dp3658
g67
(dp3659
sg76
g3623
sg69
(lp3660
g62
(g83
g64
NtRp3661
(dp3662
g67
(dp3663
sg76
g3657
sg69
(lp3664
g62
(g63
g64
NtRp3665
(dp3666
g67
(dp3667
g75
I3
ssg76
g3661
sg69
(lp3668
S'None'
p3669
asbasbasbag62
(g78
g64
NtRp3670
(dp3671
g67
(dp3672
sg76
g3623
sg69
(lp3673
g62
(g83
g64
NtRp3674
(dp3675
g67
(dp3676
sg76
g3670
sg69
(lp3677
g62
(g63
g64
NtRp3678
(dp3679
g67
(dp3680
g75
I3
ssg76
g3674
sg69
(lp3681
g62
(g71
g64
NtRp3682
(dp3683
g67
(dp3684
g75
I2
ssg76
Nsg69
(lp3685
g62
(g78
g64
NtRp3686
(dp3687
g67
(dp3688
sg76
g3682
sg69
(lp3689
g62
(g83
g64
NtRp3690
(dp3691
g67
(dp3692
sg76
g3686
sg69
(lp3693
g62
(g63
g64
NtRp3694
(dp3695
g67
(dp3696
g75
I2
ssg76
g3690
sg69
(lp3697
g62
(g71
g64
NtRp3698
(dp3699
g67
(dp3700
g75
I1
ssg76
Nsg69
(lp3701
g62
(g78
g64
NtRp3702
(dp3703
g67
(dp3704
sg76
g3698
sg69
(lp3705
g62
(g83
g64
NtRp3706
(dp3707
g67
(dp3708
sg76
g3702
sg69
(lp3709
g62
(g63
g64
NtRp3710
(dp3711
g67
(dp3712
g75
I1
ssg76
g3706
sg69
(lp3713
g3568
(S's\x08\x00\x00\x00My Sites'
tRp3714
asbasbasbag62
(g78
g64
NtRp3715
(dp3716
g67
(dp3717
sg76
g3698
sg69
(lp3718
g62
(g83
g64
NtRp3719
(dp3720
g67
(dp3721
sg76
g3715
sg69
(lp3722
g62
(g63
g64
NtRp3723
(dp3724
g67
(dp3725
g75
I1
ssg76
g3719
sg69
(lp3726
I00
asbasbasbag62
(g78
g64
NtRp3727
(dp3728
g67
(dp3729
sg76
g3698
sg69
(lp3730
g62
(g83
g64
NtRp3731
(dp3732
g67
(dp3733
sg76
g3727
sg69
(lp3734
g62
(g63
g64
NtRp3735
(dp3736
g67
(dp3737
g75
I1
ssg76
g3731
sg69
(lp3738
S'/admin/default/site'
p3739
asbasbasbasbasbasbasbag62
(g78
g64
NtRp3740
(dp3741
g67
(dp3742
sg76
g3682
sg69
(lp3743
g62
(g83
g64
NtRp3744
(dp3745
g67
(dp3746
sg76
g3740
sg69
(lp3747
g62
(g63
g64
NtRp3748
(dp3749
g67
(dp3750
g75
I2
ssg76
g3744
sg69
(lp3751
g62
(g71
g64
NtRp3752
(dp3753
g67
(dp3754
g75
I1
ssg76
Nsg69
(lp3755
g62
(g78
g64
NtRp3756
(dp3757
g67
(dp3758
sg76
g3752
sg69
(lp3759
g62
(g83
g64
NtRp3760
(dp3761
g67
(dp3762
sg76
g3756
sg69
(lp3763
g62
(g63
g64
NtRp3764
(dp3765
g67
(dp3766
g75
I1
ssg76
g3760
sg69
(lp3767
g3568
(S's\x08\x00\x00\x00This App'
tRp3768
asbasbasbag62
(g78
g64
NtRp3769
(dp3770
g67
(dp3771
sg76
g3752
sg69
(lp3772
g62
(g83
g64
NtRp3773
(dp3774
g67
(dp3775
sg76
g3769
sg69
(lp3776
g62
(g63
g64
NtRp3777
(dp3778
g67
(dp3779
g75
I1
ssg76
g3773
sg69
(lp3780
I00
asbasbasbag62
(g78
g64
NtRp3781
(dp3782
g67
(dp3783
sg76
g3752
sg69
(lp3784
g62
(g83
g64
NtRp3785
(dp3786
g67
(dp3787
sg76
g3781
sg69
(lp3788
g62
(g63
g64
NtRp3789
(dp3790
g67
(dp3791
g75
I1
ssg76
g3785
sg69
(lp3792
S'/admin/default/design/phyloShiny'
p3793
asbasbasbag62
(g78
g64
NtRp3794
(dp3795
g67
(dp3796
sg76
g3752
sg69
(lp3797
g62
(g83
g64
NtRp3798
(dp3799
g67
(dp3800
sg76
g3794
sg69
(lp3801
g62
(g63
g64
NtRp3802
(dp3803
g67
(dp3804
g75
I1
ssg76
g3798
sg69
(lp3805
(lp3806
(g3568
(S't\n\x00\x00\x00Controller'
tRp3807
I00
S'/admin/default/edit/phyloShiny/controllers/reconciliotastic.py'
tp3808
a(g3568
(S't\x04\x00\x00\x00View'
tRp3809
I00
S'/admin/default/edit/phyloShiny/views/reconciliotastic/getPhylotasticTree.html'
tp3810
a(g3568
(S't\x06\x00\x00\x00Layout'
tRp3811
I00
S'/admin/default/edit/phyloShiny/views/layout.html'
tp3812
a(g3568
(S't\n\x00\x00\x00Stylesheet'
tRp3813
I00
S'/admin/default/edit/phyloShiny/static/css/web2py.css'
tp3814
a(g3568
(S's\x08\x00\x00\x00DB Model'
tRp3815
I00
S'/admin/default/edit/phyloShiny/models/db.py'
tp3816
a(g3568
(S's\n\x00\x00\x00Menu Model'
tRp3817
I00
S'/admin/default/edit/phyloShiny/models/menu.py'
tp3818
a(g3568
(S't\x08\x00\x00\x00Database'
tRp3819
I00
S'/phyloShiny/appadmin/index'
tp3820
a(g3568
(S't\x06\x00\x00\x00Errors'
tRp3821
I00
S'/admin/default/errors/phyloShiny'
tp3822
a(g3568
(S't\x05\x00\x00\x00About'
tRp3823
I00
S'/admin/default/about/phyloShiny'
tp3824
aasbasbasbasbasbasbasbag62
(g78
g64
NtRp3825
(dp3826
g67
(dp3827
sg76
g3682
sg69
(lp3828
g62
(g83
g64
NtRp3829
(dp3830
g67
(dp3831
sg76
g3825
sg69
(lp3832
g62
(g63
g64
NtRp3833
(dp3834
g67
(dp3835
g75
I2
ssg76
g3829
sg69
(lp3836
g62
(g71
g64
NtRp3837
(dp3838
g67
(dp3839
g75
I1
ssg76
Nsg69
(lp3840
g62
(g78
g64
NtRp3841
(dp3842
g67
(dp3843
sg76
g3837
sg69
(lp3844
g62
(g83
g64
NtRp3845
(dp3846
g67
(dp3847
sg76
g3841
sg69
(lp3848
g62
(g63
g64
NtRp3849
(dp3850
g67
(dp3851
g75
I1
ssg76
g3845
sg69
(lp3852
S'web2py.com'
p3853
asbasbasbag62
(g78
g64
NtRp3854
(dp3855
g67
(dp3856
sg76
g3837
sg69
(lp3857
g62
(g83
g64
NtRp3858
(dp3859
g67
(dp3860
sg76
g3854
sg69
(lp3861
g62
(g63
g64
NtRp3862
(dp3863
g67
(dp3864
g75
I1
ssg76
g3858
sg69
(lp3865
I00
asbasbasbag62
(g78
g64
NtRp3866
(dp3867
g67
(dp3868
sg76
g3837
sg69
(lp3869
g62
(g83
g64
NtRp3870
(dp3871
g67
(dp3872
sg76
g3866
sg69
(lp3873
g62
(g63
g64
NtRp3874
(dp3875
g67
(dp3876
g75
I1
ssg76
g3870
sg69
(lp3877
S'http://www.web2py.com'
p3878
asbasbasbag62
(g78
g64
NtRp3879
(dp3880
g67
(dp3881
sg76
g3837
sg69
(lp3882
g62
(g83
g64
NtRp3883
(dp3884
g67
(dp3885
sg76
g3879
sg69
(lp3886
g62
(g63
g64
NtRp3887
(dp3888
g67
(dp3889
g75
I1
ssg76
g3883
sg69
(lp3890
(lp3891
(g3568
(S't\x08\x00\x00\x00Download'
tRp3892
I00
S'http://www.web2py.com/examples/default/download'
p3893
tp3894
a(g3568
(S't\x07\x00\x00\x00Support'
tRp3895
I00
S'http://www.web2py.com/examples/default/support'
p3896
tp3897
a(g3568
(S't\x04\x00\x00\x00Demo'
tRp3898
I00
S'http://web2py.com/demo_admin'
p3899
tp3900
a(g3568
(S's\x0e\x00\x00\x00Quick Examples'
tRp3901
I00
S'http://web2py.com/examples/default/examples'
p3902
tp3903
a(g3568
(S't\x03\x00\x00\x00FAQ'
tRp3904
I00
S'http://web2py.com/AlterEgo'
p3905
tp3906
a(g3568
(S't\x06\x00\x00\x00Videos'
tRp3907
I00
S'http://www.web2py.com/examples/default/videos/'
p3908
tp3909
a(g3568
(S's\x11\x00\x00\x00Free Applications'
tRp3910
I00
S'http://web2py.com/appliances'
p3911
tp3912
a(g3568
(S't\x07\x00\x00\x00Plugins'
tRp3913
I00
S'http://web2py.com/plugins'
p3914
tp3915
a(g3568
(S't\x07\x00\x00\x00Layouts'
tRp3916
I00
S'http://web2py.com/layouts'
p3917
tp3918
a(g3568
(S't\x07\x00\x00\x00Recipes'
tRp3919
I00
S'http://web2pyslices.com/'
p3920
tp3921
a(g3568
(S't\x08\x00\x00\x00Semantic'
tRp3922
I00
S'http://web2py.com/semantic'
p3923
tp3924
aasbasbasbasbasbasbasbag62
(g78
g64
NtRp3925
(dp3926
g67
(dp3927
sg76
g3682
sg69
(lp3928
g62
(g83
g64
NtRp3929
(dp3930
g67
(dp3931
sg76
g3925
sg69
(lp3932
g62
(g63
g64
NtRp3933
(dp3934
g67
(dp3935
g75
I2
ssg76
g3929
sg69
(lp3936
g62
(g71
g64
NtRp3937
(dp3938
g67
(dp3939
g75
I1
ssg76
Nsg69
(lp3940
g62
(g78
g64
NtRp3941
(dp3942
g67
(dp3943
sg76
g3937
sg69
(lp3944
g62
(g83
g64
NtRp3945
(dp3946
g67
(dp3947
sg76
g3941
sg69
(lp3948
g62
(g63
g64
NtRp3949
(dp3950
g67
(dp3951
g75
I1
ssg76
g3945
sg69
(lp3952
g3568
(S't\r\x00\x00\x00Documentation'
tRp3953
asbasbasbag62
(g78
g64
NtRp3954
(dp3955
g67
(dp3956
sg76
g3937
sg69
(lp3957
g62
(g83
g64
NtRp3958
(dp3959
g67
(dp3960
sg76
g3954
sg69
(lp3961
g62
(g63
g64
NtRp3962
(dp3963
g67
(dp3964
g75
I1
ssg76
g3958
sg69
(lp3965
I00
asbasbasbag62
(g78
g64
NtRp3966
(dp3967
g67
(dp3968
sg76
g3937
sg69
(lp3969
g62
(g83
g64
NtRp3970
(dp3971
g67
(dp3972
sg76
g3966
sg69
(lp3973
g62
(g63
g64
NtRp3974
(dp3975
g67
(dp3976
g75
I1
ssg76
g3970
sg69
(lp3977
S'http://www.web2py.com/book'
p3978
asbasbasbag62
(g78
g64
NtRp3979
(dp3980
g67
(dp3981
sg76
g3937
sg69
(lp3982
g62
(g83
g64
NtRp3983
(dp3984
g67
(dp3985
sg76
g3979
sg69
(lp3986
g62
(g63
g64
NtRp3987
(dp3988
g67
(dp3989
g75
I1
ssg76
g3983
sg69
(lp3990
(lp3991
(g3568
(S't\x07\x00\x00\x00Preface'
tRp3992
I00
S'http://www.web2py.com/book/default/chapter/00'
p3993
tp3994
a(g3568
(S't\x0c\x00\x00\x00Introduction'
tRp3995
I00
S'http://www.web2py.com/book/default/chapter/01'
p3996
tp3997
a(g3568
(S't\x06\x00\x00\x00Python'
tRp3998
I00
S'http://www.web2py.com/book/default/chapter/02'
p3999
tp4000
a(g3568
(S't\x08\x00\x00\x00Overview'
tRp4001
I00
S'http://www.web2py.com/book/default/chapter/03'
p4002
tp4003
a(g3568
(S's\x08\x00\x00\x00The Core'
tRp4004
I00
S'http://www.web2py.com/book/default/chapter/04'
p4005
tp4006
a(g3568
(S's\t\x00\x00\x00The Views'
tRp4007
I00
S'http://www.web2py.com/book/default/chapter/05'
p4008
tp4009
a(g3568
(S't\x08\x00\x00\x00Database'
tRp4010
I00
S'http://www.web2py.com/book/default/chapter/06'
p4011
tp4012
a(g3568
(S's\x14\x00\x00\x00Forms and Validators'
tRp4013
I00
S'http://www.web2py.com/book/default/chapter/07'
p4014
tp4015
a(g3568
(S's\r\x00\x00\x00Email and SMS'
tRp4016
I00
S'http://www.web2py.com/book/default/chapter/08'
p4017
tp4018
a(g3568
(S's\x0e\x00\x00\x00Access Control'
tRp4019
I00
S'http://www.web2py.com/book/default/chapter/09'
p4020
tp4021
a(g3568
(S't\x08\x00\x00\x00Services'
tRp4022
I00
S'http://www.web2py.com/book/default/chapter/10'
p4023
tp4024
a(g3568
(S's\x0c\x00\x00\x00Ajax Recipes'
tRp4025
I00
S'http://www.web2py.com/book/default/chapter/11'
p4026
tp4027
a(g3568
(S's\x16\x00\x00\x00Components and Plugins'
tRp4028
I00
S'http://www.web2py.com/book/default/chapter/12'
p4029
tp4030
a(g3568
(S's\x12\x00\x00\x00Deployment Recipes'
tRp4031
I00
S'http://www.web2py.com/book/default/chapter/13'
p4032
tp4033
a(g3568
(S's\r\x00\x00\x00Other Recipes'
tRp4034
I00
S'http://www.web2py.com/book/default/chapter/14'
p4035
tp4036
a(g3568
(S's\r\x00\x00\x00Buy this book'
tRp4037
I00
S'http://stores.lulu.com/web2py'
p4038
tp4039
aasbasbasbasbasbasbasbag62
(g78
g64
NtRp4040
(dp4041
g67
(dp4042
sg76
g3682
sg69
(lp4043
g62
(g83
g64
NtRp4044
(dp4045
g67
(dp4046
sg76
g4040
sg69
(lp4047
g62
(g63
g64
NtRp4048
(dp4049
g67
(dp4050
g75
I2
ssg76
g4044
sg69
(lp4051
g62
(g71
g64
NtRp4052
(dp4053
g67
(dp4054
g75
I1
ssg76
Nsg69
(lp4055
g62
(g78
g64
NtRp4056
(dp4057
g67
(dp4058
sg76
g4052
sg69
(lp4059
g62
(g83
g64
NtRp4060
(dp4061
g67
(dp4062
sg76
g4056
sg69
(lp4063
g62
(g63
g64
NtRp4064
(dp4065
g67
(dp4066
g75
I1
ssg76
g4060
sg69
(lp4067
g3568
(S't\t\x00\x00\x00Community'
tRp4068
asbasbasbag62
(g78
g64
NtRp4069
(dp4070
g67
(dp4071
sg76
g4052
sg69
(lp4072
g62
(g83
g64
NtRp4073
(dp4074
g67
(dp4075
sg76
g4069
sg69
(lp4076
g62
(g63
g64
NtRp4077
(dp4078
g67
(dp4079
g75
I1
ssg76
g4073
sg69
(lp4080
I00
asbasbasbag62
(g78
g64
NtRp4081
(dp4082
g67
(dp4083
sg76
g4052
sg69
(lp4084
g62
(g83
g64
NtRp4085
(dp4086
g67
(dp4087
sg76
g4081
sg69
(lp4088
g62
(g63
g64
NtRp4089
(dp4090
g67
(dp4091
g75
I1
ssg76
g4085
sg69
(lp4092
Nasbasbasbag62
(g78
g64
NtRp4093
(dp4094
g67
(dp4095
sg76
g4052
sg69
(lp4096
g62
(g83
g64
NtRp4097
(dp4098
g67
(dp4099
sg76
g4093
sg69
(lp4100
g62
(g63
g64
NtRp4101
(dp4102
g67
(dp4103
g75
I1
ssg76
g4097
sg69
(lp4104
(lp4105
(g3568
(S't\x06\x00\x00\x00Groups'
tRp4106
I00
S'http://www.web2py.com/examples/default/usergroups'
p4107
tp4108
a(g3568
(S't\x07\x00\x00\x00Twitter'
tRp4109
I00
S'http://twitter.com/web2py'
p4110
tp4111
a(g3568
(S's\t\x00\x00\x00Live Chat'
tRp4112
I00
S'http://webchat.freenode.net/?channels=web2py'
p4113
tp4114
aasbasbasbasbasbasbasbag62
(g78
g64
NtRp4115
(dp4116
g67
(dp4117
sg76
g3682
sg69
(lp4118
g62
(g83
g64
NtRp4119
(dp4120
g67
(dp4121
sg76
g4115
sg69
(lp4122
g62
(g63
g64
NtRp4123
(dp4124
g67
(dp4125
g75
I2
ssg76
g4119
sg69
(lp4126
g62
(g71
g64
NtRp4127
(dp4128
g67
(dp4129
g75
I1
ssg76
Nsg69
(lp4130
g62
(g78
g64
NtRp4131
(dp4132
g67
(dp4133
sg76
g4127
sg69
(lp4134
g62
(g83
g64
NtRp4135
(dp4136
g67
(dp4137
sg76
g4131
sg69
(lp4138
g62
(g63
g64
NtRp4139
(dp4140
g67
(dp4141
g75
I1
ssg76
g4135
sg69
(lp4142
g3568
(S't\x07\x00\x00\x00Plugins'
tRp4143
asbasbasbag62
(g78
g64
NtRp4144
(dp4145
g67
(dp4146
sg76
g4127
sg69
(lp4147
g62
(g83
g64
NtRp4148
(dp4149
g67
(dp4150
sg76
g4144
sg69
(lp4151
g62
(g63
g64
NtRp4152
(dp4153
g67
(dp4154
g75
I1
ssg76
g4148
sg69
(lp4155
I00
asbasbasbag62
(g78
g64
NtRp4156
(dp4157
g67
(dp4158
sg76
g4127
sg69
(lp4159
g62
(g83
g64
NtRp4160
(dp4161
g67
(dp4162
sg76
g4156
sg69
(lp4163
g62
(g63
g64
NtRp4164
(dp4165
g67
(dp4166
g75
I1
ssg76
g4160
sg69
(lp4167
Nasbasbasbag62
(g78
g64
NtRp4168
(dp4169
g67
(dp4170
sg76
g4127
sg69
(lp4171
g62
(g83
g64
NtRp4172
(dp4173
g67
(dp4174
sg76
g4168
sg69
(lp4175
g62
(g63
g64
NtRp4176
(dp4177
g67
(dp4178
g75
I1
ssg76
g4172
sg69
(lp4179
(lp4180
(S'plugin_wiki'
p4181
I00
S'http://web2py.com/examples/default/download'
p4182
tp4183
a(g3568
(S's\r\x00\x00\x00Other Plugins'
tRp4184
I00
g3914
tp4185
a(g3568
(S's\x0e\x00\x00\x00Layout Plugins'
tRp4186
I00
g3917
tp4187
aasbasbasbasbasbasbasbasbasbasbasbasbasbasbasbasbasbasbasbag62
(g78
g64
NtRp4188
(dp4189
g67
(dp4190
sg76
g3063
sg69
(lp4191
g62
(g83
g64
NtRp4192
(dp4193
g67
(dp4194
g87
g88
ssg76
g4188
sg69
(lp4195
S'meta'
p4196
asbag62
(g83
g64
NtRp4197
(dp4198
g67
(dp4199
g94
g95
ssg76
g4188
sg69
(lp4200
S':'
asbag62
(g83
g64
NtRp4201
(dp4202
g67
(dp4203
sg76
g4188
sg69
(lp4204
g62
(g63
g64
NtRp4205
(dp4206
g67
(dp4207
g75
I5
ssg76
g4201
sg69
(lp4208
g62
(g71
g64
NtRp4209
(dp4210
g67
(dp4211
g75
I4
ssg76
Nsg69
(lp4212
g62
(g78
g64
NtRp4213
(dp4214
g67
(dp4215
sg76
g4209
sg69
(lp4216
g62
(g83
g64
NtRp4217
(dp4218
g67
(dp4219
g87
g88
ssg76
g4213
sg69
(lp4220
S'author'
p4221
asbag62
(g83
g64
NtRp4222
(dp4223
g67
(dp4224
g94
g95
ssg76
g4213
sg69
(lp4225
S':'
asbag62
(g83
g64
NtRp4226
(dp4227
g67
(dp4228
sg76
g4213
sg69
(lp4229
g62
(g63
g64
NtRp4230
(dp4231
g67
(dp4232
g75
I4
ssg76
g4226
sg69
(lp4233
S'Your Name <you@example.com>'
p4234
asbasbasbag62
(g78
g64
NtRp4235
(dp4236
g67
(dp4237
sg76
g4209
sg69
(lp4238
g62
(g83
g64
NtRp4239
(dp4240
g67
(dp4241
g87
g88
ssg76
g4235
sg69
(lp4242
S'copyright'
p4243
asbag62
(g83
g64
NtRp4244
(dp4245
g67
(dp4246
g94
g95
ssg76
g4235
sg69
(lp4247
S':'
asbag62
(g83
g64
NtRp4248
(dp4249
g67
(dp4250
sg76
g4235
sg69
(lp4251
g62
(g63
g64
NtRp4252
(dp4253
g67
(dp4254
g75
I4
ssg76
g4248
sg69
(lp4255
S'Copyright 2011'
p4256
asbasbasbag62
(g78
g64
NtRp4257
(dp4258
g67
(dp4259
sg76
g4209
sg69
(lp4260
g62
(g83
g64
NtRp4261
(dp4262
g67
(dp4263
g87
g88
ssg76
g4257
sg69
(lp4264
S'description'
p4265
asbag62
(g83
g64
NtRp4266
(dp4267
g67
(dp4268
g94
g95
ssg76
g4257
sg69
(lp4269
S':'
asbag62
(g83
g64
NtRp4270
(dp4271
g67
(dp4272
sg76
g4257
sg69
(lp4273
g62
(g63
g64
NtRp4274
(dp4275
g67
(dp4276
g75
I4
ssg76
g4270
sg69
(lp4277
S'a cool new app'
p4278
asbasbasbag62
(g78
g64
NtRp4279
(dp4280
g67
(dp4281
sg76
g4209
sg69
(lp4282
g62
(g83
g64
NtRp4283
(dp4284
g67
(dp4285
g87
g88
ssg76
g4279
sg69
(lp4286
S'generator'
p4287
asbag62
(g83
g64
NtRp4288
(dp4289
g67
(dp4290
g94
g95
ssg76
g4279
sg69
(lp4291
S':'
asbag62
(g83
g64
NtRp4292
(dp4293
g67
(dp4294
sg76
g4279
sg69
(lp4295
g62
(g63
g64
NtRp4296
(dp4297
g67
(dp4298
g75
I4
ssg76
g4292
sg69
(lp4299
S'Web2py Web Framework'
p4300
asbasbasbag62
(g78
g64
NtRp4301
(dp4302
g67
(dp4303
sg76
g4209
sg69
(lp4304
g62
(g83
g64
NtRp4305
(dp4306
g67
(dp4307
g87
g88
ssg76
g4301
sg69
(lp4308
S'keywords'
p4309
asbag62
(g83
g64
NtRp4310
(dp4311
g67
(dp4312
g94
g95
ssg76
g4301
sg69
(lp4313
S':'
asbag62
(g83
g64
NtRp4314
(dp4315
g67
(dp4316
sg76
g4301
sg69
(lp4317
g62
(g63
g64
NtRp4318
(dp4319
g67
(dp4320
g75
I4
ssg76
g4314
sg69
(lp4321
S'web2py, python, framework'
p4322
asbasbasbasbasbasbasbag62
(g78
g64
NtRp4323
(dp4324
g67
(dp4325
sg76
g3063
sg69
(lp4326
g62
(g83
g64
NtRp4327
(dp4328
g67
(dp4329
g87
g88
ssg76
g4323
sg69
(lp4330
S'postprocessing'
p4331
asbag62
(g83
g64
NtRp4332
(dp4333
g67
(dp4334
g94
g95
ssg76
g4323
sg69
(lp4335
S':'
asbag62
(g83
g64
NtRp4336
(dp4337
g67
(dp4338
sg76
g4323
sg69
(lp4339
g62
(g63
g64
NtRp4340
(dp4341
g67
(dp4342
g75
I5
ssg76
g4336
sg69
(lp4343
g62
(g71
g64
NtRp4344
(dp4345
g67
(dp4346
g75
I4
ssg76
Nsg69
(lp4347
sbasbasbasbag62
(g78
g64
NtRp4348
(dp4349
g67
(dp4350
sg76
g3063
sg69
(lp4351
g62
(g83
g64
NtRp4352
(dp4353
g67
(dp4354
g87
g88
ssg76
g4348
sg69
(lp4355
S'session_filename'
p4356
asbag62
(g83
g64
NtRp4357
(dp4358
g67
(dp4359
g94
g95
ssg76
g4348
sg69
(lp4360
S':'
asbag62
(g83
g64
NtRp4361
(dp4362
g67
(dp4363
sg76
g4348
sg69
(lp4364
g62
(g63
g64
NtRp4365
(dp4366
g67
(dp4367
g75
I5
ssg76
g4361
sg69
(lp4368
S'/home/prateek/web2py/applications/phyloShiny/sessions/127.0.0.1-30538b52-239b-448b-bec7-9c13a2299ecc'
p4369
asbasbasbag62
(g78
g64
NtRp4370
(dp4371
g67
(dp4372
sg76
g3063
sg69
(lp4373
g62
(g83
g64
NtRp4374
(dp4375
g67
(dp4376
g87
g88
ssg76
g4370
sg69
(lp4377
S'session_id'
p4378
asbag62
(g83
g64
NtRp4379
(dp4380
g67
(dp4381
g94
g95
ssg76
g4370
sg69
(lp4382
S':'
asbag62
(g83
g64
NtRp4383
(dp4384
g67
(dp4385
sg76
g4370
sg69
(lp4386
g62
(g63
g64
NtRp4387
(dp4388
g67
(dp4389
g75
I5
ssg76
g4383
sg69
(lp4390
S'127.0.0.1-30538b52-239b-448b-bec7-9c13a2299ecc'
p4391
asbasbasbag62
(g78
g64
NtRp4392
(dp4393
g67
(dp4394
sg76
g3063
sg69
(lp4395
g62
(g83
g64
NtRp4396
(dp4397
g67
(dp4398
g87
g88
ssg76
g4392
sg69
(lp4399
S'session_id_name'
p4400
asbag62
(g83
g64
NtRp4401
(dp4402
g67
(dp4403
g94
g95
ssg76
g4392
sg69
(lp4404
S':'
asbag62
(g83
g64
NtRp4405
(dp4406
g67
(dp4407
sg76
g4392
sg69
(lp4408
g62
(g63
g64
NtRp4409
(dp4410
g67
(dp4411
g75
I5
ssg76
g4405
sg69
(lp4412
g3120
asbasbasbag62
(g78
g64
NtRp4413
(dp4414
g67
(dp4415
sg76
g3063
sg69
(lp4416
g62
(g83
g64
NtRp4417
(dp4418
g67
(dp4419
g87
g88
ssg76
g4413
sg69
(lp4420
S'session_new'
p4421
asbag62
(g83
g64
NtRp4422
(dp4423
g67
(dp4424
g94
g95
ssg76
g4413
sg69
(lp4425
S':'
asbag62
(g83
g64
NtRp4426
(dp4427
g67
(dp4428
sg76
g4413
sg69
(lp4429
g62
(g63
g64
NtRp4430
(dp4431
g67
(dp4432
g75
I5
ssg76
g4426
sg69
(lp4433
g105
asbasbasbag62
(g78
g64
NtRp4434
(dp4435
g67
(dp4436
sg76
g3063
sg69
(lp4437
g62
(g83
g64
NtRp4438
(dp4439
g67
(dp4440
g87
g88
ssg76
g4434
sg69
(lp4441
S'status'
p4442
asbag62
(g83
g64
NtRp4443
(dp4444
g67
(dp4445
g94
g95
ssg76
g4434
sg69
(lp4446
S':'
asbag62
(g83
g64
NtRp4447
(dp4448
g67
(dp4449
sg76
g4434
sg69
(lp4450
g62
(g63
g64
NtRp4451
(dp4452
g67
(dp4453
g75
I5
ssg76
g4447
sg69
(lp4454
S'200'
p4455
asbasbasbag62
(g78
g64
NtRp4456
(dp4457
g67
(dp4458
sg76
g3063
sg69
(lp4459
g62
(g83
g64
NtRp4460
(dp4461
g67
(dp4462
g87
g88
ssg76
g4456
sg69
(lp4463
S'subtitle'
p4464
asbag62
(g83
g64
NtRp4465
(dp4466
g67
(dp4467
g94
g95
ssg76
g4456
sg69
(lp4468
S':'
asbag62
(g83
g64
NtRp4469
(dp4470
g67
(dp4471
sg76
g4456
sg69
(lp4472
g62
(g63
g64
NtRp4473
(dp4474
g67
(dp4475
g75
I5
ssg76
g4469
sg69
(lp4476
g3568
(S's\r\x00\x00\x00customize me!'
tRp4477
asbasbasbag62
(g78
g64
NtRp4478
(dp4479
g67
(dp4480
sg76
g3063
sg69
(lp4481
g62
(g83
g64
NtRp4482
(dp4483
g67
(dp4484
g87
g88
ssg76
g4478
sg69
(lp4485
S'title'
p4486
asbag62
(g83
g64
NtRp4487
(dp4488
g67
(dp4489
g94
g95
ssg76
g4478
sg69
(lp4490
S':'
asbag62
(g83
g64
NtRp4491
(dp4492
g67
(dp4493
sg76
g4478
sg69
(lp4494
g62
(g63
g64
NtRp4495
(dp4496
g67
(dp4497
g75
I5
ssg76
g4491
sg69
(lp4498
S'Phyloshiny'
p4499
asbasbasbag62
(g78
g64
NtRp4500
(dp4501
g67
(dp4502
sg76
g3063
sg69
(lp4503
g62
(g83
g64
NtRp4504
(dp4505
g67
(dp4506
g87
g88
ssg76
g4500
sg69
(lp4507
g2185
asbag62
(g83
g64
NtRp4508
(dp4509
g67
(dp4510
g94
g95
ssg76
g4500
sg69
(lp4511
S':'
asbag62
(g83
g64
NtRp4512
(dp4513
g67
(dp4514
sg76
g4500
sg69
(lp4515
g62
(g63
g64
NtRp4516
(dp4517
g67
(dp4518
g75
I5
ssg76
g4512
sg69
(lp4519
g2198
asbasbasbag62
(g78
g64
NtRp4520
(dp4521
g67
(dp4522
sg76
g3063
sg69
(lp4523
g62
(g83
g64
NtRp4524
(dp4525
g67
(dp4526
g87
g88
ssg76
g4520
sg69
(lp4527
S'view'
p4528
asbag62
(g83
g64
NtRp4529
(dp4530
g67
(dp4531
g94
g95
ssg76
g4520
sg69
(lp4532
S':'
asbag62
(g83
g64
NtRp4533
(dp4534
g67
(dp4535
sg76
g4520
sg69
(lp4536
g62
(g63
g64
NtRp4537
(dp4538
g67
(dp4539
g75
I5
ssg76
g4533
sg69
(lp4540
S'reconciliotastic/getPhylotasticTree.html'
p4541
asbasbasbasbasbsS'locals'
p4542
(dp4543
S'handleish'
p4544
S"'speciesTreeFilename'"
p4545
sS'mode'
p4546
S"'r'"
p4547
sS'kwargs'
p4548
g19
sssS'traceback'
p4549
S'Traceback (most recent call last):\n  File "/usr/lib/pymodules/python2.7/gluon/restricted.py", line 204, in restricted\n    exec ccode in environment\n  File "/home/prateek/web2py/applications/phyloShiny/controllers/reconciliotastic.py", line 170, in <module>\n  File "/usr/lib/pymodules/python2.7/gluon/globals.py", line 172, in <lambda>\n    self._caller = lambda f: f()\n  File "/home/prateek/web2py/applications/phyloShiny/controllers/reconciliotastic.py", line 125, in getPhylotasticTree\n    got_nodes=countnodes()\n  File "/home/prateek/web2py/applications/phyloShiny/controllers/reconciliotastic.py", line 142, in countnodes\n    tree = Phylo.read(\'speciesTreeFilename\', \'newick\')\t\t\t\t#tree reads the species labels in newick format\n  File "/usr/local/lib/python2.7/dist-packages/Bio/Phylo/_io.py", line 64, in read\n    tree = tree_gen.next()\n  File "/usr/local/lib/python2.7/dist-packages/Bio/Phylo/_io.py", line 51, in parse\n    with File.as_handle(file, \'r\') as fp:\n  File "/usr/lib/python2.7/contextlib.py", line 17, in __enter__\n    return self.gen.next()\n  File "/usr/local/lib/python2.7/dist-packages/Bio/File.py", line 77, in as_handle\n    with open(handleish, mode, **kwargs) as fp:\nIOError: [Errno 2] No such file or directory: \'speciesTreeFilename\'\n'
p4550
s.