(dp1
S'output'
p2
S"<type 'exceptions.ImportError'> No module named phyloShiny.modules.Bio"
p3
sS'layer'
p4
S'/home/prateek/web2py/applications/phyloShiny/controllers/reconciliotastic.py'
p5
sS'code'
p6
S'# -*- coding: utf-8 -*-\n# this file is released under public domain and you can use without limitations\n\n#########################################################################\n## This is a sample controller\n## - index is the default action of any application\n## - user is required for authentication and authorization\n## - download is for downloading files uploaded in the db (does streaming)\n## - call exposes all registered services (none by default)\n#########################################################################\nimport os\nimport socket\nimport urllib2\nfrom gluon import *\nfrom Bio import Phylo\nfrom Bio.Phylo import BaseTree , PhyloXML\t\t\t\t\t\t\t#import biopython modules as per requirement \nfrom Bio.Phylo.BaseTree import TreeMixin\n\ndef index():\n    rootFolder = current.request.folder\n    folders = os.listdir(rootFolder+\'static/sample_data/\')\n\n    # Go through the subfolders within sample_data, only keep folders\n    # that match \'demo\'\n    folders = [x.split(\'_\',1)[1] for x in folders if x.split(\'_\')[0] == \'demo\']\n    folderLabels = [x.replace(\'_\', \' \') for x in folders]\n\n    # Return a list of tuples, like [ [\'Mammal_Hemoglobin\', \'Mammal Hemoglobin\'] , ... ]\n    # This lets us have nice display names in the <select> element in the view.\n    foldersAndLabels = zip(folders, folderLabels)\n    return dict(foldersAndLabels=foldersAndLabels)\n\ndef getFileName():\n    # Returns the absolute filename for the "input" gene tree\n    # file. Uses the treeFileName request parameter, as that\'s our\n    # main state-tracking value passed between the view and controller\n    # between each step.\n    rootFolder = current.request.folder\n    absoluteFileName = rootFolder+current.request.vars.treeFileName\n    return absoluteFileName\n\ndef getRelativeWebPath(suffix):\n    # Currently a no-op.\n    return suffix\n\ndef visualize():\n    # Visualize controller. Does some preprocessing before generating\n    # the HTML for viewing a given tree.\n\n    # Takes in the \'treeName\' and \'file\' params, and creates the URL\n    # which can be used to access / download the given tree file. This\n    # is only really necessary because the <applet> tag requires a\n    # parameter, which is then sent to Archaeopteryx, that requires\n    # the *entire* URL of the tree to load. With a non-applet based\n    # visualization this wouldn\'t be an issue.\n    treeFile = current.request.vars.treeName\n    suffix = current.request.vars.file\n\n    # Use the request http_host.\n    hostname = current.request.env.http_host\n\n    # Toggle to phylotastic URL if we detect a NESCENT socket host.\n    socket_hostname = socket.gethostname()\n    if \'phylotastic\' in socket_hostname.lower():\n        hostname = \'phylotastic.nescent.org\'\n\n    treeUrl = URL(\'static\', \'sample_data/demo_\'+treeFile+\'/input_genetree.nwk\'+suffix,\n                 scheme=\'http\', host=hostname)\n\n    return dict(treeUrl=treeUrl,\n                header=current.request.vars.header)\n\ndef getSpeciesList():\n    # Absolute file name of the input tree file.\n    absoluteFileName = getFileName()\n    # "Prefix", i.e. the input tree file without the ending\n    # \'.txt\'. This is used as the prefix for all generated output\n    # files\n    filePrefix = absoluteFileName[:-4]\n\n    shellCall = \'java -Xmx1024m -cp \'\n    shellCall += current.request.folder+\'static/lib/forester.jar \'\n    shellCall += \'org.forester.application.gene_tree_preprocess \'\n    shellCall += absoluteFileName\n    os.system(shellCall)\n\n    removedNodes = [l.strip() for l in open(filePrefix+\'_removed_nodes.txt\').readlines()]\n    keptNodes = [l.strip() for l in open(filePrefix+\'_species_present.txt\').readlines()]\n    \n    geneTreeFile = getRelativeWebPath(\'_preprocessed_gene_tree.phylo.xml\')\n\n    # Note: we always return the \'vizFile\' and \'vizLabel\' data values\n    # from each Ajax call, as they\'re used consistently by the\n    # front-end to generate visualization links.\n    return response.json( dict(vizFile = geneTreeFile,\n                               vizLabel = "Input Gene Tree",\n                               removedNodes = removedNodes, \n                               keptNodes = keptNodes))\n\ndef getPhylotasticTree():\n    absoluteFileName = getFileName()\n    filePrefix = absoluteFileName[:-4]\n\n    # Load the kept nodes and create the comma-delimited species\n    # string for sending to PTastic\n    speciesList = [l.strip() for l in open(filePrefix+\'_species_present.txt\').readlines()]\n    # Need underscores instead of spaces\n    speciesList = [x.replace(\' \', \'_\') for x in speciesList]\n    speciesString = \',\'.join(speciesList)\n\n    phylotasticUrlBase = \'http://phylotastic-wg.nescent.org/script/phylotastic.cgi?species=\'\n    speciesTreeUrl = phylotasticUrlBase+speciesString+\'&tree=mammals&format=newick\'\n    conn = urllib2.urlopen(speciesTreeUrl)\n    speciesTreeString = conn.read()\n    speciesTreeString = speciesTreeString.strip()\n\n    speciesTreeFilename = filePrefix+\'_species_tree.txt\'\n    open(speciesTreeFilename,\'w\').write(speciesTreeString)\n\n    # TODO: It would be nice here to count the number of species in\n    # the returned species tree, so we can let users know if PTastic\n    # found everything we searched for. This would require parsing the\n    # Newick and counting nodes, probably using something like\n    # BioPython rather than making an external call to Java again.\n    \n    mymodule = local_import(\'Bio\')\n    got_nodes=0\t\t\t\t\t\t\t\t\t#global counter to keep the count of the nodes\n    tree = Phylo.read(speciesTreeFilename, \'newick\')\t\t\t\t#tree reads the species labels in newick format\n##    for node in tree.get_terminals(): \t\t\t\t\t#loop to traverse through these nodes\n##\t    count+=1\t\t\t\t\t\t\t\t\t#updating counter value\n##    count=tree.count_terminals;\n##    return count\t\t\t\t\t\t\t\t#counter value return\n    got_nodes=tree.count_terminals;\n##    got_nodes=count\n    #no. of non-terminal nodes received in got_nodes.Now can be printed or checked with user input value to test if all species received.\n    #then further we can maintain a textview in the frontend indicating the number of nodes(i.e. the number of species)\n\n    speciesTreeWebFile = getRelativeWebPath(\'_species_tree.txt\')\n\n    return response.json( dict(vizFile = speciesTreeWebFile,\n                               vizLabel = "Phylotastic Species Tree",\n\t\t\t       got_nodes=got_nodes\n                               ) )\n\n##def countnodes():\n\n    #setting a counter for counting nodes i.e.number of species in the species newick tree.\n    #I have referenced the link http://biopython.org/DIST/docs/tutorial/Tutorial.html#htoc182 to know the get_terminals() function\n\n##    count=0\t\t\t\t\t\t\t\t\t#global counter to keep the count of the nodes\n##    tree = Phylo.read(speciesTreeFilename, \'newick\')\t\t\t\t#tree reads the species labels in newick format\n##    for node in tree.get_terminals(): \t\t\t\t\t#loop to traverse through these nodes\n##\t    count+=1\t\t\t\t\t\t\t\t\t#updating counter value\n##    count=tree.count_terminals;\n##    return count\t\t\t\t\t\t\t\t#counter value return\n\n\ndef reconcileTrees():\n    absoluteFileName = getFileName()\n    filePrefix = absoluteFileName[:-4]\n\n    geneTreeFile = filePrefix+\'_preprocessed_gene_tree.phylo.xml\'\n    speciesTreeFile = filePrefix+\'_species_tree.txt\'\n\n    shellCall = \'java -Xmx1024m -cp \'\n    shellCall += current.request.folder+\'static/lib/forester.jar \'\n    shellCall += \'org.forester.application.gsdi \'\n    shellCall += \'-m -q \'\n    shellCall += geneTreeFile\n    shellCall += \' \'+speciesTreeFile\n\n    os.system(shellCall)\n    \n    reconciledTreeWebFile = getRelativeWebPath(\'_preprocessed_gene_tree.phylo_gsdi_out.phylo.xml\')\n    \n    return response.json( dict(vizFile = reconciledTreeWebFile,\n                               vizLabel = "Reconciled Tree (red=duplication, green=speciation)"\n                               ) )\n\nresponse._vars=response._caller(getPhylotasticTree)\n'
p7
sS'snapshot'
p8
(dp9
S'exception'
p10
(dp11
S'__hash__'
p12
S"<method-wrapper '__hash__' of exceptions.ImportError object>"
p13
sS'__setattr__'
p14
S"<method-wrapper '__setattr__' of exceptions.ImportError object>"
p15
sS'__reduce_ex__'
p16
S'<built-in method __reduce_ex__ of exceptions.ImportError object>'
p17
sS'__getslice__'
p18
S"<method-wrapper '__getslice__' of exceptions.ImportError object>"
p19
sS'__getitem__'
p20
S"<method-wrapper '__getitem__' of exceptions.ImportError object>"
p21
sS'__setstate__'
p22
S'<built-in method __setstate__ of exceptions.ImportError object>'
p23
sS'__reduce__'
p24
S'<built-in method __reduce__ of exceptions.ImportError object>'
p25
sS'__str__'
p26
S"<method-wrapper '__str__' of exceptions.ImportError object>"
p27
sS'__format__'
p28
S'<built-in method __format__ of exceptions.ImportError object>'
p29
sS'__getattribute__'
p30
S"<method-wrapper '__getattribute__' of exceptions.ImportError object>"
p31
sS'__class__'
p32
S"<type 'exceptions.ImportError'>"
p33
sS'__unicode__'
p34
S'<built-in method __unicode__ of exceptions.ImportError object>'
p35
sS'__delattr__'
p36
S"<method-wrapper '__delattr__' of exceptions.ImportError object>"
p37
sS'__subclasshook__'
p38
S'<built-in method __subclasshook__ of type object>'
p39
sS'__repr__'
p40
S"<method-wrapper '__repr__' of exceptions.ImportError object>"
p41
sS'args'
p42
S"('No module named phyloShiny.modules.Bio',)"
p43
sS'__dict__'
p44
S'{}'
p45
sS'__sizeof__'
p46
S'<built-in method __sizeof__ of exceptions.ImportError object>'
p47
sS'__doc__'
p48
S'"Import can\'t find module, or can\'t find name in module."'
p49
sS'__init__'
p50
S"<method-wrapper '__init__' of exceptions.ImportError object>"
p51
sS'__new__'
p52
S'<built-in method __new__ of type object>'
p53
ssS'evalue'
p54
S'No module named phyloShiny.modules.Bio'
p55
sS'request'
p56
ccopy_reg
_reconstructor
p57
(cgluon.html
BEAUTIFY
p58
c__builtin__
object
p59
NtRp60
(dp61
S'attributes'
p62
(dp63
sS'components'
p64
(lp65
g57
(cgluon.html
TABLE
p66
g59
NtRp67
(dp68
g62
(dp69
S'level'
p70
I5
ssS'parent'
p71
Nsg64
(lp72
g57
(cgluon.html
TR
p73
g59
NtRp74
(dp75
g62
(dp76
sg71
g67
sg64
(lp77
g57
(cgluon.html
TD
p78
g59
NtRp79
(dp80
g62
(dp81
S'_style'
p82
S'font-weight:bold;vertical-align:top'
p83
ssg71
g74
sg64
(lp84
S'ajax'
p85
asbag57
(g78
g59
NtRp86
(dp87
g62
(dp88
S'_valign'
p89
S'top'
p90
ssg71
g74
sg64
(lp91
S':'
asbag57
(g78
g59
NtRp92
(dp93
g62
(dp94
sg71
g74
sg64
(lp95
g57
(g58
g59
NtRp96
(dp97
g62
(dp98
g70
I5
ssg71
g92
sg64
(lp99
S'True'
p100
asbasbasbag57
(g73
g59
NtRp101
(dp102
g62
(dp103
sg71
g67
sg64
(lp104
g57
(g78
g59
NtRp105
(dp106
g62
(dp107
g82
g83
ssg71
g101
sg64
(lp108
S'application'
p109
asbag57
(g78
g59
NtRp110
(dp111
g62
(dp112
g89
g90
ssg71
g101
sg64
(lp113
S':'
asbag57
(g78
g59
NtRp114
(dp115
g62
(dp116
sg71
g101
sg64
(lp117
g57
(g58
g59
NtRp118
(dp119
g62
(dp120
g70
I5
ssg71
g114
sg64
(lp121
S'phyloShiny'
p122
asbasbasbag57
(g73
g59
NtRp123
(dp124
g62
(dp125
sg71
g67
sg64
(lp126
g57
(g78
g59
NtRp127
(dp128
g62
(dp129
g82
g83
ssg71
g123
sg64
(lp130
g42
asbag57
(g78
g59
NtRp131
(dp132
g62
(dp133
g89
g90
ssg71
g123
sg64
(lp134
S':'
asbag57
(g78
g59
NtRp135
(dp136
g62
(dp137
sg71
g123
sg64
(lp138
g57
(g58
g59
NtRp139
(dp140
g62
(dp141
g70
I5
ssg71
g135
sg64
(lp142
g57
(g66
g59
NtRp143
(dp144
g62
(dp145
g70
I4
ssg71
Nsg64
(lp146
sbasbasbasbag57
(g73
g59
NtRp147
(dp148
g62
(dp149
sg71
g67
sg64
(lp150
g57
(g78
g59
NtRp151
(dp152
g62
(dp153
g82
g83
ssg71
g147
sg64
(lp154
S'body'
p155
asbag57
(g78
g59
NtRp156
(dp157
g62
(dp158
g89
g90
ssg71
g147
sg64
(lp159
S':'
asbag57
(g78
g59
NtRp160
(dp161
g62
(dp162
sg71
g147
sg64
(lp163
g57
(g58
g59
NtRp164
(dp165
g62
(dp166
g70
I5
ssg71
g160
sg64
(lp167
S'<cStringIO.StringO object at 0xab0b2980>'
p168
asbasbasbag57
(g73
g59
NtRp169
(dp170
g62
(dp171
sg71
g67
sg64
(lp172
g57
(g78
g59
NtRp173
(dp174
g62
(dp175
g82
g83
ssg71
g169
sg64
(lp176
S'client'
p177
asbag57
(g78
g59
NtRp178
(dp179
g62
(dp180
g89
g90
ssg71
g169
sg64
(lp181
S':'
asbag57
(g78
g59
NtRp182
(dp183
g62
(dp184
sg71
g169
sg64
(lp185
g57
(g58
g59
NtRp186
(dp187
g62
(dp188
g70
I5
ssg71
g182
sg64
(lp189
S'127.0.0.1'
p190
asbasbasbag57
(g73
g59
NtRp191
(dp192
g62
(dp193
sg71
g67
sg64
(lp194
g57
(g78
g59
NtRp195
(dp196
g62
(dp197
g82
g83
ssg71
g191
sg64
(lp198
S'controller'
p199
asbag57
(g78
g59
NtRp200
(dp201
g62
(dp202
g89
g90
ssg71
g191
sg64
(lp203
S':'
asbag57
(g78
g59
NtRp204
(dp205
g62
(dp206
sg71
g191
sg64
(lp207
g57
(g58
g59
NtRp208
(dp209
g62
(dp210
g70
I5
ssg71
g204
sg64
(lp211
S'reconciliotastic'
p212
asbasbasbag57
(g73
g59
NtRp213
(dp214
g62
(dp215
sg71
g67
sg64
(lp216
g57
(g78
g59
NtRp217
(dp218
g62
(dp219
g82
g83
ssg71
g213
sg64
(lp220
S'cookies'
p221
asbag57
(g78
g59
NtRp222
(dp223
g62
(dp224
g89
g90
ssg71
g213
sg64
(lp225
S':'
asbag57
(g78
g59
NtRp226
(dp227
g62
(dp228
sg71
g213
sg64
(lp229
g57
(g58
g59
NtRp230
(dp231
g62
(dp232
g70
I5
ssg71
g226
sg64
(lp233
g57
(g66
g59
NtRp234
(dp235
g62
(dp236
g70
I4
ssg71
Nsg64
(lp237
g57
(g73
g59
NtRp238
(dp239
g62
(dp240
sg71
g234
sg64
(lp241
g57
(g78
g59
NtRp242
(dp243
g62
(dp244
g82
g83
ssg71
g238
sg64
(lp245
S'session_id_admin'
p246
asbag57
(g78
g59
NtRp247
(dp248
g62
(dp249
g89
g90
ssg71
g238
sg64
(lp250
S':'
asbag57
(g78
g59
NtRp251
(dp252
g62
(dp253
sg71
g238
sg64
(lp254
g57
(g58
g59
NtRp255
(dp256
g62
(dp257
g70
I4
ssg71
g251
sg64
(lp258
g57
(g66
g59
NtRp259
(dp260
g62
(dp261
g70
I3
ssg71
Nsg64
(lp262
g57
(g73
g59
NtRp263
(dp264
g62
(dp265
sg71
g259
sg64
(lp266
g57
(g78
g59
NtRp267
(dp268
g62
(dp269
g82
g83
ssg71
g263
sg64
(lp270
S'comment'
p271
asbag57
(g78
g59
NtRp272
(dp273
g62
(dp274
g89
g90
ssg71
g263
sg64
(lp275
S':'
asbag57
(g78
g59
NtRp276
(dp277
g62
(dp278
sg71
g263
sg64
(lp279
g57
(g58
g59
NtRp280
(dp281
g62
(dp282
g70
I3
ssg71
g276
sg64
(lp283
S''
asbasbasbag57
(g73
g59
NtRp284
(dp285
g62
(dp286
sg71
g259
sg64
(lp287
g57
(g78
g59
NtRp288
(dp289
g62
(dp290
g82
g83
ssg71
g284
sg64
(lp291
S'domain'
p292
asbag57
(g78
g59
NtRp293
(dp294
g62
(dp295
g89
g90
ssg71
g284
sg64
(lp296
S':'
asbag57
(g78
g59
NtRp297
(dp298
g62
(dp299
sg71
g284
sg64
(lp300
g57
(g58
g59
NtRp301
(dp302
g62
(dp303
g70
I3
ssg71
g297
sg64
(lp304
S''
asbasbasbag57
(g73
g59
NtRp305
(dp306
g62
(dp307
sg71
g259
sg64
(lp308
g57
(g78
g59
NtRp309
(dp310
g62
(dp311
g82
g83
ssg71
g305
sg64
(lp312
S'expires'
p313
asbag57
(g78
g59
NtRp314
(dp315
g62
(dp316
g89
g90
ssg71
g305
sg64
(lp317
S':'
asbag57
(g78
g59
NtRp318
(dp319
g62
(dp320
sg71
g305
sg64
(lp321
g57
(g58
g59
NtRp322
(dp323
g62
(dp324
g70
I3
ssg71
g318
sg64
(lp325
S''
asbasbasbag57
(g73
g59
NtRp326
(dp327
g62
(dp328
sg71
g259
sg64
(lp329
g57
(g78
g59
NtRp330
(dp331
g62
(dp332
g82
g83
ssg71
g326
sg64
(lp333
S'httponly'
p334
asbag57
(g78
g59
NtRp335
(dp336
g62
(dp337
g89
g90
ssg71
g326
sg64
(lp338
S':'
asbag57
(g78
g59
NtRp339
(dp340
g62
(dp341
sg71
g326
sg64
(lp342
g57
(g58
g59
NtRp343
(dp344
g62
(dp345
g70
I3
ssg71
g339
sg64
(lp346
S''
asbasbasbag57
(g73
g59
NtRp347
(dp348
g62
(dp349
sg71
g259
sg64
(lp350
g57
(g78
g59
NtRp351
(dp352
g62
(dp353
g82
g83
ssg71
g347
sg64
(lp354
S'max-age'
p355
asbag57
(g78
g59
NtRp356
(dp357
g62
(dp358
g89
g90
ssg71
g347
sg64
(lp359
S':'
asbag57
(g78
g59
NtRp360
(dp361
g62
(dp362
sg71
g347
sg64
(lp363
g57
(g58
g59
NtRp364
(dp365
g62
(dp366
g70
I3
ssg71
g360
sg64
(lp367
S''
asbasbasbag57
(g73
g59
NtRp368
(dp369
g62
(dp370
sg71
g259
sg64
(lp371
g57
(g78
g59
NtRp372
(dp373
g62
(dp374
g82
g83
ssg71
g368
sg64
(lp375
S'path'
p376
asbag57
(g78
g59
NtRp377
(dp378
g62
(dp379
g89
g90
ssg71
g368
sg64
(lp380
S':'
asbag57
(g78
g59
NtRp381
(dp382
g62
(dp383
sg71
g368
sg64
(lp384
g57
(g58
g59
NtRp385
(dp386
g62
(dp387
g70
I3
ssg71
g381
sg64
(lp388
S''
asbasbasbag57
(g73
g59
NtRp389
(dp390
g62
(dp391
sg71
g259
sg64
(lp392
g57
(g78
g59
NtRp393
(dp394
g62
(dp395
g82
g83
ssg71
g389
sg64
(lp396
S'secure'
p397
asbag57
(g78
g59
NtRp398
(dp399
g62
(dp400
g89
g90
ssg71
g389
sg64
(lp401
S':'
asbag57
(g78
g59
NtRp402
(dp403
g62
(dp404
sg71
g389
sg64
(lp405
g57
(g58
g59
NtRp406
(dp407
g62
(dp408
g70
I3
ssg71
g402
sg64
(lp409
S''
asbasbasbag57
(g73
g59
NtRp410
(dp411
g62
(dp412
sg71
g259
sg64
(lp413
g57
(g78
g59
NtRp414
(dp415
g62
(dp416
g82
g83
ssg71
g410
sg64
(lp417
S'version'
p418
asbag57
(g78
g59
NtRp419
(dp420
g62
(dp421
g89
g90
ssg71
g410
sg64
(lp422
S':'
asbag57
(g78
g59
NtRp423
(dp424
g62
(dp425
sg71
g410
sg64
(lp426
g57
(g58
g59
NtRp427
(dp428
g62
(dp429
g70
I3
ssg71
g423
sg64
(lp430
S''
asbasbasbasbasbasbasbag57
(g73
g59
NtRp431
(dp432
g62
(dp433
sg71
g234
sg64
(lp434
g57
(g78
g59
NtRp435
(dp436
g62
(dp437
g82
g83
ssg71
g431
sg64
(lp438
S'session_id_phyloshiny'
p439
asbag57
(g78
g59
NtRp440
(dp441
g62
(dp442
g89
g90
ssg71
g431
sg64
(lp443
S':'
asbag57
(g78
g59
NtRp444
(dp445
g62
(dp446
sg71
g431
sg64
(lp447
g57
(g58
g59
NtRp448
(dp449
g62
(dp450
g70
I4
ssg71
g444
sg64
(lp451
g57
(g66
g59
NtRp452
(dp453
g62
(dp454
g70
I3
ssg71
Nsg64
(lp455
g57
(g73
g59
NtRp456
(dp457
g62
(dp458
sg71
g452
sg64
(lp459
g57
(g78
g59
NtRp460
(dp461
g62
(dp462
g82
g83
ssg71
g456
sg64
(lp463
g271
asbag57
(g78
g59
NtRp464
(dp465
g62
(dp466
g89
g90
ssg71
g456
sg64
(lp467
S':'
asbag57
(g78
g59
NtRp468
(dp469
g62
(dp470
sg71
g456
sg64
(lp471
g57
(g58
g59
NtRp472
(dp473
g62
(dp474
g70
I3
ssg71
g468
sg64
(lp475
S''
asbasbasbag57
(g73
g59
NtRp476
(dp477
g62
(dp478
sg71
g452
sg64
(lp479
g57
(g78
g59
NtRp480
(dp481
g62
(dp482
g82
g83
ssg71
g476
sg64
(lp483
g292
asbag57
(g78
g59
NtRp484
(dp485
g62
(dp486
g89
g90
ssg71
g476
sg64
(lp487
S':'
asbag57
(g78
g59
NtRp488
(dp489
g62
(dp490
sg71
g476
sg64
(lp491
g57
(g58
g59
NtRp492
(dp493
g62
(dp494
g70
I3
ssg71
g488
sg64
(lp495
S''
asbasbasbag57
(g73
g59
NtRp496
(dp497
g62
(dp498
sg71
g452
sg64
(lp499
g57
(g78
g59
NtRp500
(dp501
g62
(dp502
g82
g83
ssg71
g496
sg64
(lp503
g313
asbag57
(g78
g59
NtRp504
(dp505
g62
(dp506
g89
g90
ssg71
g496
sg64
(lp507
S':'
asbag57
(g78
g59
NtRp508
(dp509
g62
(dp510
sg71
g496
sg64
(lp511
g57
(g58
g59
NtRp512
(dp513
g62
(dp514
g70
I3
ssg71
g508
sg64
(lp515
S''
asbasbasbag57
(g73
g59
NtRp516
(dp517
g62
(dp518
sg71
g452
sg64
(lp519
g57
(g78
g59
NtRp520
(dp521
g62
(dp522
g82
g83
ssg71
g516
sg64
(lp523
g334
asbag57
(g78
g59
NtRp524
(dp525
g62
(dp526
g89
g90
ssg71
g516
sg64
(lp527
S':'
asbag57
(g78
g59
NtRp528
(dp529
g62
(dp530
sg71
g516
sg64
(lp531
g57
(g58
g59
NtRp532
(dp533
g62
(dp534
g70
I3
ssg71
g528
sg64
(lp535
S''
asbasbasbag57
(g73
g59
NtRp536
(dp537
g62
(dp538
sg71
g452
sg64
(lp539
g57
(g78
g59
NtRp540
(dp541
g62
(dp542
g82
g83
ssg71
g536
sg64
(lp543
g355
asbag57
(g78
g59
NtRp544
(dp545
g62
(dp546
g89
g90
ssg71
g536
sg64
(lp547
S':'
asbag57
(g78
g59
NtRp548
(dp549
g62
(dp550
sg71
g536
sg64
(lp551
g57
(g58
g59
NtRp552
(dp553
g62
(dp554
g70
I3
ssg71
g548
sg64
(lp555
S''
asbasbasbag57
(g73
g59
NtRp556
(dp557
g62
(dp558
sg71
g452
sg64
(lp559
g57
(g78
g59
NtRp560
(dp561
g62
(dp562
g82
g83
ssg71
g556
sg64
(lp563
g376
asbag57
(g78
g59
NtRp564
(dp565
g62
(dp566
g89
g90
ssg71
g556
sg64
(lp567
S':'
asbag57
(g78
g59
NtRp568
(dp569
g62
(dp570
sg71
g556
sg64
(lp571
g57
(g58
g59
NtRp572
(dp573
g62
(dp574
g70
I3
ssg71
g568
sg64
(lp575
S''
asbasbasbag57
(g73
g59
NtRp576
(dp577
g62
(dp578
sg71
g452
sg64
(lp579
g57
(g78
g59
NtRp580
(dp581
g62
(dp582
g82
g83
ssg71
g576
sg64
(lp583
g397
asbag57
(g78
g59
NtRp584
(dp585
g62
(dp586
g89
g90
ssg71
g576
sg64
(lp587
S':'
asbag57
(g78
g59
NtRp588
(dp589
g62
(dp590
sg71
g576
sg64
(lp591
g57
(g58
g59
NtRp592
(dp593
g62
(dp594
g70
I3
ssg71
g588
sg64
(lp595
S''
asbasbasbag57
(g73
g59
NtRp596
(dp597
g62
(dp598
sg71
g452
sg64
(lp599
g57
(g78
g59
NtRp600
(dp601
g62
(dp602
g82
g83
ssg71
g596
sg64
(lp603
g418
asbag57
(g78
g59
NtRp604
(dp605
g62
(dp606
g89
g90
ssg71
g596
sg64
(lp607
S':'
asbag57
(g78
g59
NtRp608
(dp609
g62
(dp610
sg71
g596
sg64
(lp611
g57
(g58
g59
NtRp612
(dp613
g62
(dp614
g70
I3
ssg71
g608
sg64
(lp615
S''
asbasbasbasbasbasbasbasbasbasbasbag57
(g73
g59
NtRp616
(dp617
g62
(dp618
sg71
g67
sg64
(lp619
g57
(g78
g59
NtRp620
(dp621
g62
(dp622
g82
g83
ssg71
g616
sg64
(lp623
S'env'
p624
asbag57
(g78
g59
NtRp625
(dp626
g62
(dp627
g89
g90
ssg71
g616
sg64
(lp628
S':'
asbag57
(g78
g59
NtRp629
(dp630
g62
(dp631
sg71
g616
sg64
(lp632
g57
(g58
g59
NtRp633
(dp634
g62
(dp635
g70
I5
ssg71
g629
sg64
(lp636
g57
(g66
g59
NtRp637
(dp638
g62
(dp639
g70
I4
ssg71
Nsg64
(lp640
g57
(g73
g59
NtRp641
(dp642
g62
(dp643
sg71
g637
sg64
(lp644
g57
(g78
g59
NtRp645
(dp646
g62
(dp647
g82
g83
ssg71
g641
sg64
(lp648
S'app_folders'
p649
asbag57
(g78
g59
NtRp650
(dp651
g62
(dp652
g89
g90
ssg71
g641
sg64
(lp653
S':'
asbag57
(g78
g59
NtRp654
(dp655
g62
(dp656
sg71
g641
sg64
(lp657
g57
(g58
g59
NtRp658
(dp659
g62
(dp660
g70
I4
ssg71
g654
sg64
(lp661
S"set(['/home/prateek/web2py/applications/phyloShiny/', '/home/prateek/web2py/applications/welcome/'])"
p662
asbasbasbag57
(g73
g59
NtRp663
(dp664
g62
(dp665
sg71
g637
sg64
(lp666
g57
(g78
g59
NtRp667
(dp668
g62
(dp669
g82
g83
ssg71
g663
sg64
(lp670
S'applications_parent'
p671
asbag57
(g78
g59
NtRp672
(dp673
g62
(dp674
g89
g90
ssg71
g663
sg64
(lp675
S':'
asbag57
(g78
g59
NtRp676
(dp677
g62
(dp678
sg71
g663
sg64
(lp679
g57
(g58
g59
NtRp680
(dp681
g62
(dp682
g70
I4
ssg71
g676
sg64
(lp683
S'/home/prateek/web2py'
p684
asbasbasbag57
(g73
g59
NtRp685
(dp686
g62
(dp687
sg71
g637
sg64
(lp688
g57
(g78
g59
NtRp689
(dp690
g62
(dp691
g82
g83
ssg71
g685
sg64
(lp692
S'cmd_args'
p693
asbag57
(g78
g59
NtRp694
(dp695
g62
(dp696
g89
g90
ssg71
g685
sg64
(lp697
S':'
asbag57
(g78
g59
NtRp698
(dp699
g62
(dp700
sg71
g685
sg64
(lp701
g57
(g58
g59
NtRp702
(dp703
g62
(dp704
g70
I4
ssg71
g698
sg64
(lp705
g57
(g66
g59
NtRp706
(dp707
g62
(dp708
g70
I3
ssg71
Nsg64
(lp709
sbasbasbasbag57
(g73
g59
NtRp710
(dp711
g62
(dp712
sg71
g637
sg64
(lp713
g57
(g78
g59
NtRp714
(dp715
g62
(dp716
g82
g83
ssg71
g710
sg64
(lp717
S'cmd_options'
p718
asbag57
(g78
g59
NtRp719
(dp720
g62
(dp721
g89
g90
ssg71
g710
sg64
(lp722
S':'
asbag57
(g78
g59
NtRp723
(dp724
g62
(dp725
sg71
g710
sg64
(lp726
g57
(g58
g59
NtRp727
(dp728
g62
(dp729
g70
I4
ssg71
g723
sg64
(lp730
S"<Values at 0x8db55cc: {'verbose': False, 'ip': '127.0.0.1', 'shutdown_timeout': 5, 'taskbar': False, 'port': 8000, 'maxthreads': None, 'softcron': False, 'server_name': 'prateek-Inspiron-N5110', 'bpython': False, 'nogui': False, 'nocron': False, 'extcron': False, 'debuglevel': 30, 'test': None, 'folder': '/home/prateek/web2py', 'config': '', 'import_models': False, 'winservice': '', 'shell': None, 'run': '', 'log_filename': 'httpserver.log', 'args': [''], 'socket_timeout': 1, 'profiler_filename': None, 'ssl_private_key': '', 'password': '<ask>', 'request_queue_size': 5, 'ssl_certificate': '', 'cronjob': False, 'plain': False, 'quiet': False, 'interfaces': None, 'minthreads': None, 'timeout': 10, 'numthreads': None, 'nobanner': False, 'pid_filename': 'httpserver.pid'}>"
p731
asbasbasbag57
(g73
g59
NtRp732
(dp733
g62
(dp734
sg71
g637
sg64
(lp735
g57
(g78
g59
NtRp736
(dp737
g62
(dp738
g82
g83
ssg71
g732
sg64
(lp739
S'db_sessions'
p740
asbag57
(g78
g59
NtRp741
(dp742
g62
(dp743
g89
g90
ssg71
g732
sg64
(lp744
S':'
asbag57
(g78
g59
NtRp745
(dp746
g62
(dp747
sg71
g732
sg64
(lp748
g57
(g58
g59
NtRp749
(dp750
g62
(dp751
g70
I4
ssg71
g745
sg64
(lp752
S'set([])'
p753
asbasbasbag57
(g73
g59
NtRp754
(dp755
g62
(dp756
sg71
g637
sg64
(lp757
g57
(g78
g59
NtRp758
(dp759
g62
(dp760
g82
g83
ssg71
g754
sg64
(lp761
S'debugging'
p762
asbag57
(g78
g59
NtRp763
(dp764
g62
(dp765
g89
g90
ssg71
g754
sg64
(lp766
S':'
asbag57
(g78
g59
NtRp767
(dp768
g62
(dp769
sg71
g754
sg64
(lp770
g57
(g58
g59
NtRp771
(dp772
g62
(dp773
g70
I4
ssg71
g767
sg64
(lp774
S'False'
p775
asbasbasbag57
(g73
g59
NtRp776
(dp777
g62
(dp778
sg71
g637
sg64
(lp779
g57
(g78
g59
NtRp780
(dp781
g62
(dp782
g82
g83
ssg71
g776
sg64
(lp783
S'gluon_parent'
p784
asbag57
(g78
g59
NtRp785
(dp786
g62
(dp787
g89
g90
ssg71
g776
sg64
(lp788
S':'
asbag57
(g78
g59
NtRp789
(dp790
g62
(dp791
sg71
g776
sg64
(lp792
g57
(g58
g59
NtRp793
(dp794
g62
(dp795
g70
I4
ssg71
g789
sg64
(lp796
S'/usr/share/web2py'
p797
asbasbasbag57
(g73
g59
NtRp798
(dp799
g62
(dp800
sg71
g637
sg64
(lp801
g57
(g78
g59
NtRp802
(dp803
g62
(dp804
g82
g83
ssg71
g798
sg64
(lp805
S'http_accept'
p806
asbag57
(g78
g59
NtRp807
(dp808
g62
(dp809
g89
g90
ssg71
g798
sg64
(lp810
S':'
asbag57
(g78
g59
NtRp811
(dp812
g62
(dp813
sg71
g798
sg64
(lp814
g57
(g58
g59
NtRp815
(dp816
g62
(dp817
g70
I4
ssg71
g811
sg64
(lp818
S'*/*'
p819
asbasbasbag57
(g73
g59
NtRp820
(dp821
g62
(dp822
sg71
g637
sg64
(lp823
g57
(g78
g59
NtRp824
(dp825
g62
(dp826
g82
g83
ssg71
g820
sg64
(lp827
S'http_accept_encoding'
p828
asbag57
(g78
g59
NtRp829
(dp830
g62
(dp831
g89
g90
ssg71
g820
sg64
(lp832
S':'
asbag57
(g78
g59
NtRp833
(dp834
g62
(dp835
sg71
g820
sg64
(lp836
g57
(g58
g59
NtRp837
(dp838
g62
(dp839
g70
I4
ssg71
g833
sg64
(lp840
S'gzip, deflate'
p841
asbasbasbag57
(g73
g59
NtRp842
(dp843
g62
(dp844
sg71
g637
sg64
(lp845
g57
(g78
g59
NtRp846
(dp847
g62
(dp848
g82
g83
ssg71
g842
sg64
(lp849
S'http_accept_language'
p850
asbag57
(g78
g59
NtRp851
(dp852
g62
(dp853
g89
g90
ssg71
g842
sg64
(lp854
S':'
asbag57
(g78
g59
NtRp855
(dp856
g62
(dp857
sg71
g842
sg64
(lp858
g57
(g58
g59
NtRp859
(dp860
g62
(dp861
g70
I4
ssg71
g855
sg64
(lp862
S'en-US,en;q=0.5'
p863
asbasbasbag57
(g73
g59
NtRp864
(dp865
g62
(dp866
sg71
g637
sg64
(lp867
g57
(g78
g59
NtRp868
(dp869
g62
(dp870
g82
g83
ssg71
g864
sg64
(lp871
S'http_connection'
p872
asbag57
(g78
g59
NtRp873
(dp874
g62
(dp875
g89
g90
ssg71
g864
sg64
(lp876
S':'
asbag57
(g78
g59
NtRp877
(dp878
g62
(dp879
sg71
g864
sg64
(lp880
g57
(g58
g59
NtRp881
(dp882
g62
(dp883
g70
I4
ssg71
g877
sg64
(lp884
S'keep-alive'
p885
asbasbasbag57
(g73
g59
NtRp886
(dp887
g62
(dp888
sg71
g637
sg64
(lp889
g57
(g78
g59
NtRp890
(dp891
g62
(dp892
g82
g83
ssg71
g886
sg64
(lp893
S'http_cookie'
p894
asbag57
(g78
g59
NtRp895
(dp896
g62
(dp897
g89
g90
ssg71
g886
sg64
(lp898
S':'
asbag57
(g78
g59
NtRp899
(dp900
g62
(dp901
sg71
g886
sg64
(lp902
g57
(g58
g59
NtRp903
(dp904
g62
(dp905
g70
I4
ssg71
g899
sg64
(lp906
S'session_id_admin=127.0.0.1-93eaccf7-6654-4138-a9b6-5466fa6c980f; session_id_phyloshiny=127.0.0.1-20cd519e-1ada-47f8-9fbf-b11301eff938'
p907
asbasbasbag57
(g73
g59
NtRp908
(dp909
g62
(dp910
sg71
g637
sg64
(lp911
g57
(g78
g59
NtRp912
(dp913
g62
(dp914
g82
g83
ssg71
g908
sg64
(lp915
S'http_host'
p916
asbag57
(g78
g59
NtRp917
(dp918
g62
(dp919
g89
g90
ssg71
g908
sg64
(lp920
S':'
asbag57
(g78
g59
NtRp921
(dp922
g62
(dp923
sg71
g908
sg64
(lp924
g57
(g58
g59
NtRp925
(dp926
g62
(dp927
g70
I4
ssg71
g921
sg64
(lp928
S'127.0.0.1:8000'
p929
asbasbasbag57
(g73
g59
NtRp930
(dp931
g62
(dp932
sg71
g637
sg64
(lp933
g57
(g78
g59
NtRp934
(dp935
g62
(dp936
g82
g83
ssg71
g930
sg64
(lp937
S'http_referer'
p938
asbag57
(g78
g59
NtRp939
(dp940
g62
(dp941
g89
g90
ssg71
g930
sg64
(lp942
S':'
asbag57
(g78
g59
NtRp943
(dp944
g62
(dp945
sg71
g930
sg64
(lp946
g57
(g58
g59
NtRp947
(dp948
g62
(dp949
g70
I4
ssg71
g943
sg64
(lp950
S'http://127.0.0.1:8000/phyloShiny/reconciliotastic/'
p951
asbasbasbag57
(g73
g59
NtRp952
(dp953
g62
(dp954
sg71
g637
sg64
(lp955
g57
(g78
g59
NtRp956
(dp957
g62
(dp958
g82
g83
ssg71
g952
sg64
(lp959
S'http_user_agent'
p960
asbag57
(g78
g59
NtRp961
(dp962
g62
(dp963
g89
g90
ssg71
g952
sg64
(lp964
S':'
asbag57
(g78
g59
NtRp965
(dp966
g62
(dp967
sg71
g952
sg64
(lp968
g57
(g58
g59
NtRp969
(dp970
g62
(dp971
g70
I4
ssg71
g965
sg64
(lp972
S'Mozilla/5.0 (X11; Ubuntu; Linux i686; rv:20.0) Gecko/20100101 Firefox/20.0'
p973
asbasbasbag57
(g73
g59
NtRp974
(dp975
g62
(dp976
sg71
g637
sg64
(lp977
g57
(g78
g59
NtRp978
(dp979
g62
(dp980
g82
g83
ssg71
g974
sg64
(lp981
S'http_x_requested_with'
p982
asbag57
(g78
g59
NtRp983
(dp984
g62
(dp985
g89
g90
ssg71
g974
sg64
(lp986
S':'
asbag57
(g78
g59
NtRp987
(dp988
g62
(dp989
sg71
g974
sg64
(lp990
g57
(g58
g59
NtRp991
(dp992
g62
(dp993
g70
I4
ssg71
g987
sg64
(lp994
S'XMLHttpRequest'
p995
asbasbasbag57
(g73
g59
NtRp996
(dp997
g62
(dp998
sg71
g637
sg64
(lp999
g57
(g78
g59
NtRp1000
(dp1001
g62
(dp1002
g82
g83
ssg71
g996
sg64
(lp1003
S'is_jython'
p1004
asbag57
(g78
g59
NtRp1005
(dp1006
g62
(dp1007
g89
g90
ssg71
g996
sg64
(lp1008
S':'
asbag57
(g78
g59
NtRp1009
(dp1010
g62
(dp1011
sg71
g996
sg64
(lp1012
g57
(g58
g59
NtRp1013
(dp1014
g62
(dp1015
g70
I4
ssg71
g1009
sg64
(lp1016
g775
asbasbasbag57
(g73
g59
NtRp1017
(dp1018
g62
(dp1019
sg71
g637
sg64
(lp1020
g57
(g78
g59
NtRp1021
(dp1022
g62
(dp1023
g82
g83
ssg71
g1017
sg64
(lp1024
S'is_pypy'
p1025
asbag57
(g78
g59
NtRp1026
(dp1027
g62
(dp1028
g89
g90
ssg71
g1017
sg64
(lp1029
S':'
asbag57
(g78
g59
NtRp1030
(dp1031
g62
(dp1032
sg71
g1017
sg64
(lp1033
g57
(g58
g59
NtRp1034
(dp1035
g62
(dp1036
g70
I4
ssg71
g1030
sg64
(lp1037
g775
asbasbasbag57
(g73
g59
NtRp1038
(dp1039
g62
(dp1040
sg71
g637
sg64
(lp1041
g57
(g78
g59
NtRp1042
(dp1043
g62
(dp1044
g82
g83
ssg71
g1038
sg64
(lp1045
S'path_info'
p1046
asbag57
(g78
g59
NtRp1047
(dp1048
g62
(dp1049
g89
g90
ssg71
g1038
sg64
(lp1050
S':'
asbag57
(g78
g59
NtRp1051
(dp1052
g62
(dp1053
sg71
g1038
sg64
(lp1054
g57
(g58
g59
NtRp1055
(dp1056
g62
(dp1057
g70
I4
ssg71
g1051
sg64
(lp1058
S'/phyloShiny/reconciliotastic/getPhylotasticTree'
p1059
asbasbasbag57
(g73
g59
NtRp1060
(dp1061
g62
(dp1062
sg71
g637
sg64
(lp1063
g57
(g78
g59
NtRp1064
(dp1065
g62
(dp1066
g82
g83
ssg71
g1060
sg64
(lp1067
S'query_string'
p1068
asbag57
(g78
g59
NtRp1069
(dp1070
g62
(dp1071
g89
g90
ssg71
g1060
sg64
(lp1072
S':'
asbag57
(g78
g59
NtRp1073
(dp1074
g62
(dp1075
sg71
g1060
sg64
(lp1076
g57
(g58
g59
NtRp1077
(dp1078
g62
(dp1079
g70
I4
ssg71
g1073
sg64
(lp1080
S'treeFileName=static%2Fsample_data%2Fdemo_Mammal_Hemoglobin_Pruned%2Finput_genetree.nwk.txt'
p1081
asbasbasbag57
(g73
g59
NtRp1082
(dp1083
g62
(dp1084
sg71
g637
sg64
(lp1085
g57
(g78
g59
NtRp1086
(dp1087
g62
(dp1088
g82
g83
ssg71
g1082
sg64
(lp1089
S'remote_addr'
p1090
asbag57
(g78
g59
NtRp1091
(dp1092
g62
(dp1093
g89
g90
ssg71
g1082
sg64
(lp1094
S':'
asbag57
(g78
g59
NtRp1095
(dp1096
g62
(dp1097
sg71
g1082
sg64
(lp1098
g57
(g58
g59
NtRp1099
(dp1100
g62
(dp1101
g70
I4
ssg71
g1095
sg64
(lp1102
g190
asbasbasbag57
(g73
g59
NtRp1103
(dp1104
g62
(dp1105
sg71
g637
sg64
(lp1106
g57
(g78
g59
NtRp1107
(dp1108
g62
(dp1109
g82
g83
ssg71
g1103
sg64
(lp1110
S'remote_port'
p1111
asbag57
(g78
g59
NtRp1112
(dp1113
g62
(dp1114
g89
g90
ssg71
g1103
sg64
(lp1115
S':'
asbag57
(g78
g59
NtRp1116
(dp1117
g62
(dp1118
sg71
g1103
sg64
(lp1119
g57
(g58
g59
NtRp1120
(dp1121
g62
(dp1122
g70
I4
ssg71
g1116
sg64
(lp1123
S'44015'
p1124
asbasbasbag57
(g73
g59
NtRp1125
(dp1126
g62
(dp1127
sg71
g637
sg64
(lp1128
g57
(g78
g59
NtRp1129
(dp1130
g62
(dp1131
g82
g83
ssg71
g1125
sg64
(lp1132
S'request_method'
p1133
asbag57
(g78
g59
NtRp1134
(dp1135
g62
(dp1136
g89
g90
ssg71
g1125
sg64
(lp1137
S':'
asbag57
(g78
g59
NtRp1138
(dp1139
g62
(dp1140
sg71
g1125
sg64
(lp1141
g57
(g58
g59
NtRp1142
(dp1143
g62
(dp1144
g70
I4
ssg71
g1138
sg64
(lp1145
S'GET'
p1146
asbasbasbag57
(g73
g59
NtRp1147
(dp1148
g62
(dp1149
sg71
g637
sg64
(lp1150
g57
(g78
g59
NtRp1151
(dp1152
g62
(dp1153
g82
g83
ssg71
g1147
sg64
(lp1154
S'script_name'
p1155
asbag57
(g78
g59
NtRp1156
(dp1157
g62
(dp1158
g89
g90
ssg71
g1147
sg64
(lp1159
S':'
asbag57
(g78
g59
NtRp1160
(dp1161
g62
(dp1162
sg71
g1147
sg64
(lp1163
g57
(g58
g59
NtRp1164
(dp1165
g62
(dp1166
g70
I4
ssg71
g1160
sg64
(lp1167
S''
asbasbasbag57
(g73
g59
NtRp1168
(dp1169
g62
(dp1170
sg71
g637
sg64
(lp1171
g57
(g78
g59
NtRp1172
(dp1173
g62
(dp1174
g82
g83
ssg71
g1168
sg64
(lp1175
S'server_name'
p1176
asbag57
(g78
g59
NtRp1177
(dp1178
g62
(dp1179
g89
g90
ssg71
g1168
sg64
(lp1180
S':'
asbag57
(g78
g59
NtRp1181
(dp1182
g62
(dp1183
sg71
g1168
sg64
(lp1184
g57
(g58
g59
NtRp1185
(dp1186
g62
(dp1187
g70
I4
ssg71
g1181
sg64
(lp1188
S'prateek-Inspiron-N5110'
p1189
asbasbasbag57
(g73
g59
NtRp1190
(dp1191
g62
(dp1192
sg71
g637
sg64
(lp1193
g57
(g78
g59
NtRp1194
(dp1195
g62
(dp1196
g82
g83
ssg71
g1190
sg64
(lp1197
S'server_port'
p1198
asbag57
(g78
g59
NtRp1199
(dp1200
g62
(dp1201
g89
g90
ssg71
g1190
sg64
(lp1202
S':'
asbag57
(g78
g59
NtRp1203
(dp1204
g62
(dp1205
sg71
g1190
sg64
(lp1206
g57
(g58
g59
NtRp1207
(dp1208
g62
(dp1209
g70
I4
ssg71
g1203
sg64
(lp1210
S'8000'
p1211
asbasbasbag57
(g73
g59
NtRp1212
(dp1213
g62
(dp1214
sg71
g637
sg64
(lp1215
g57
(g78
g59
NtRp1216
(dp1217
g62
(dp1218
g82
g83
ssg71
g1212
sg64
(lp1219
S'server_protocol'
p1220
asbag57
(g78
g59
NtRp1221
(dp1222
g62
(dp1223
g89
g90
ssg71
g1212
sg64
(lp1224
S':'
asbag57
(g78
g59
NtRp1225
(dp1226
g62
(dp1227
sg71
g1212
sg64
(lp1228
g57
(g58
g59
NtRp1229
(dp1230
g62
(dp1231
g70
I4
ssg71
g1225
sg64
(lp1232
S'HTTP/1.1'
p1233
asbasbasbag57
(g73
g59
NtRp1234
(dp1235
g62
(dp1236
sg71
g637
sg64
(lp1237
g57
(g78
g59
NtRp1238
(dp1239
g62
(dp1240
g82
g83
ssg71
g1234
sg64
(lp1241
S'server_software'
p1242
asbag57
(g78
g59
NtRp1243
(dp1244
g62
(dp1245
g89
g90
ssg71
g1234
sg64
(lp1246
S':'
asbag57
(g78
g59
NtRp1247
(dp1248
g62
(dp1249
sg71
g1234
sg64
(lp1250
g57
(g58
g59
NtRp1251
(dp1252
g62
(dp1253
g70
I4
ssg71
g1247
sg64
(lp1254
S'Rocket 1.2.4'
p1255
asbasbasbag57
(g73
g59
NtRp1256
(dp1257
g62
(dp1258
sg71
g637
sg64
(lp1259
g57
(g78
g59
NtRp1260
(dp1261
g62
(dp1262
g82
g83
ssg71
g1256
sg64
(lp1263
S'web2py_crontype'
p1264
asbag57
(g78
g59
NtRp1265
(dp1266
g62
(dp1267
g89
g90
ssg71
g1256
sg64
(lp1268
S':'
asbag57
(g78
g59
NtRp1269
(dp1270
g62
(dp1271
sg71
g1256
sg64
(lp1272
g57
(g58
g59
NtRp1273
(dp1274
g62
(dp1275
g70
I4
ssg71
g1269
sg64
(lp1276
S'hard'
p1277
asbasbasbag57
(g73
g59
NtRp1278
(dp1279
g62
(dp1280
sg71
g637
sg64
(lp1281
g57
(g78
g59
NtRp1282
(dp1283
g62
(dp1284
g82
g83
ssg71
g1278
sg64
(lp1285
S'web2py_path'
p1286
asbag57
(g78
g59
NtRp1287
(dp1288
g62
(dp1289
g89
g90
ssg71
g1278
sg64
(lp1290
S':'
asbag57
(g78
g59
NtRp1291
(dp1292
g62
(dp1293
sg71
g1278
sg64
(lp1294
g57
(g58
g59
NtRp1295
(dp1296
g62
(dp1297
g70
I4
ssg71
g1291
sg64
(lp1298
g684
asbasbasbag57
(g73
g59
NtRp1299
(dp1300
g62
(dp1301
sg71
g637
sg64
(lp1302
g57
(g78
g59
NtRp1303
(dp1304
g62
(dp1305
g82
g83
ssg71
g1299
sg64
(lp1306
S'web2py_version'
p1307
asbag57
(g78
g59
NtRp1308
(dp1309
g62
(dp1310
g89
g90
ssg71
g1299
sg64
(lp1311
S':'
asbag57
(g78
g59
NtRp1312
(dp1313
g62
(dp1314
sg71
g1299
sg64
(lp1315
g57
(g58
g59
NtRp1316
(dp1317
g62
(dp1318
g70
I4
ssg71
g1312
sg64
(lp1319
g57
(g66
g59
NtRp1320
(dp1321
g62
(dp1322
g70
I3
ssg71
Nsg64
(lp1323
g57
(g73
g59
NtRp1324
(dp1325
g62
(dp1326
sg71
g1320
sg64
(lp1327
g57
(g78
g59
NtRp1328
(dp1329
g62
(dp1330
sg71
g1324
sg64
(lp1331
g57
(g58
g59
NtRp1332
(dp1333
g62
(dp1334
g70
I3
ssg71
g1328
sg64
(lp1335
S'1'
asbasbasbag57
(g73
g59
NtRp1336
(dp1337
g62
(dp1338
sg71
g1320
sg64
(lp1339
g57
(g78
g59
NtRp1340
(dp1341
g62
(dp1342
sg71
g1336
sg64
(lp1343
g57
(g58
g59
NtRp1344
(dp1345
g62
(dp1346
g70
I3
ssg71
g1340
sg64
(lp1347
S'99'
p1348
asbasbasbag57
(g73
g59
NtRp1349
(dp1350
g62
(dp1351
sg71
g1320
sg64
(lp1352
g57
(g78
g59
NtRp1353
(dp1354
g62
(dp1355
sg71
g1349
sg64
(lp1356
g57
(g58
g59
NtRp1357
(dp1358
g62
(dp1359
g70
I3
ssg71
g1353
sg64
(lp1360
S'4'
asbasbasbag57
(g73
g59
NtRp1361
(dp1362
g62
(dp1363
sg71
g1320
sg64
(lp1364
g57
(g78
g59
NtRp1365
(dp1366
g62
(dp1367
sg71
g1361
sg64
(lp1368
g57
(g58
g59
NtRp1369
(dp1370
g62
(dp1371
g70
I3
ssg71
g1365
sg64
(lp1372
S'datetime.datetime(2011, 12, 14, 14, 46, 14)'
p1373
asbasbasbag57
(g73
g59
NtRp1374
(dp1375
g62
(dp1376
sg71
g1320
sg64
(lp1377
g57
(g78
g59
NtRp1378
(dp1379
g62
(dp1380
sg71
g1374
sg64
(lp1381
g57
(g58
g59
NtRp1382
(dp1383
g62
(dp1384
g70
I3
ssg71
g1378
sg64
(lp1385
S'stable'
p1386
asbasbasbasbasbasbasbag57
(g73
g59
NtRp1387
(dp1388
g62
(dp1389
sg71
g637
sg64
(lp1390
g57
(g78
g59
NtRp1391
(dp1392
g62
(dp1393
g82
g83
ssg71
g1387
sg64
(lp1394
S'wsgi_errors'
p1395
asbag57
(g78
g59
NtRp1396
(dp1397
g62
(dp1398
g89
g90
ssg71
g1387
sg64
(lp1399
S':'
asbag57
(g78
g59
NtRp1400
(dp1401
g62
(dp1402
sg71
g1387
sg64
(lp1403
g57
(g58
g59
NtRp1404
(dp1405
g62
(dp1406
g70
I4
ssg71
g1400
sg64
(lp1407
S"<open file '<stderr>', mode 'w' at 0xb72920d0>"
p1408
asbasbasbag57
(g73
g59
NtRp1409
(dp1410
g62
(dp1411
sg71
g637
sg64
(lp1412
g57
(g78
g59
NtRp1413
(dp1414
g62
(dp1415
g82
g83
ssg71
g1409
sg64
(lp1416
S'wsgi_file_wrapper'
p1417
asbag57
(g78
g59
NtRp1418
(dp1419
g62
(dp1420
g89
g90
ssg71
g1409
sg64
(lp1421
S':'
asbag57
(g78
g59
NtRp1422
(dp1423
g62
(dp1424
sg71
g1409
sg64
(lp1425
g57
(g58
g59
NtRp1426
(dp1427
g62
(dp1428
g70
I4
ssg71
g1422
sg64
(lp1429
S'<class wsgiref.util.FileWrapper at 0x8b7d23c>'
p1430
asbasbasbag57
(g73
g59
NtRp1431
(dp1432
g62
(dp1433
sg71
g637
sg64
(lp1434
g57
(g78
g59
NtRp1435
(dp1436
g62
(dp1437
g82
g83
ssg71
g1431
sg64
(lp1438
S'wsgi_input'
p1439
asbag57
(g78
g59
NtRp1440
(dp1441
g62
(dp1442
g89
g90
ssg71
g1431
sg64
(lp1443
S':'
asbag57
(g78
g59
NtRp1444
(dp1445
g62
(dp1446
sg71
g1431
sg64
(lp1447
g57
(g58
g59
NtRp1448
(dp1449
g62
(dp1450
g70
I4
ssg71
g1444
sg64
(lp1451
S'<socket._fileobject object at 0xaac3672c>'
p1452
asbasbasbag57
(g73
g59
NtRp1453
(dp1454
g62
(dp1455
sg71
g637
sg64
(lp1456
g57
(g78
g59
NtRp1457
(dp1458
g62
(dp1459
g82
g83
ssg71
g1453
sg64
(lp1460
S'wsgi_multiprocess'
p1461
asbag57
(g78
g59
NtRp1462
(dp1463
g62
(dp1464
g89
g90
ssg71
g1453
sg64
(lp1465
S':'
asbag57
(g78
g59
NtRp1466
(dp1467
g62
(dp1468
sg71
g1453
sg64
(lp1469
g57
(g58
g59
NtRp1470
(dp1471
g62
(dp1472
g70
I4
ssg71
g1466
sg64
(lp1473
g775
asbasbasbag57
(g73
g59
NtRp1474
(dp1475
g62
(dp1476
sg71
g637
sg64
(lp1477
g57
(g78
g59
NtRp1478
(dp1479
g62
(dp1480
g82
g83
ssg71
g1474
sg64
(lp1481
S'wsgi_multithread'
p1482
asbag57
(g78
g59
NtRp1483
(dp1484
g62
(dp1485
g89
g90
ssg71
g1474
sg64
(lp1486
S':'
asbag57
(g78
g59
NtRp1487
(dp1488
g62
(dp1489
sg71
g1474
sg64
(lp1490
g57
(g58
g59
NtRp1491
(dp1492
g62
(dp1493
g70
I4
ssg71
g1487
sg64
(lp1494
g100
asbasbasbag57
(g73
g59
NtRp1495
(dp1496
g62
(dp1497
sg71
g637
sg64
(lp1498
g57
(g78
g59
NtRp1499
(dp1500
g62
(dp1501
g82
g83
ssg71
g1495
sg64
(lp1502
S'wsgi_run_once'
p1503
asbag57
(g78
g59
NtRp1504
(dp1505
g62
(dp1506
g89
g90
ssg71
g1495
sg64
(lp1507
S':'
asbag57
(g78
g59
NtRp1508
(dp1509
g62
(dp1510
sg71
g1495
sg64
(lp1511
g57
(g58
g59
NtRp1512
(dp1513
g62
(dp1514
g70
I4
ssg71
g1508
sg64
(lp1515
g775
asbasbasbag57
(g73
g59
NtRp1516
(dp1517
g62
(dp1518
sg71
g637
sg64
(lp1519
g57
(g78
g59
NtRp1520
(dp1521
g62
(dp1522
g82
g83
ssg71
g1516
sg64
(lp1523
S'wsgi_url_scheme'
p1524
asbag57
(g78
g59
NtRp1525
(dp1526
g62
(dp1527
g89
g90
ssg71
g1516
sg64
(lp1528
S':'
asbag57
(g78
g59
NtRp1529
(dp1530
g62
(dp1531
sg71
g1516
sg64
(lp1532
g57
(g58
g59
NtRp1533
(dp1534
g62
(dp1535
g70
I4
ssg71
g1529
sg64
(lp1536
S'http'
p1537
asbasbasbag57
(g73
g59
NtRp1538
(dp1539
g62
(dp1540
sg71
g637
sg64
(lp1541
g57
(g78
g59
NtRp1542
(dp1543
g62
(dp1544
g82
g83
ssg71
g1538
sg64
(lp1545
S'wsgi_version'
p1546
asbag57
(g78
g59
NtRp1547
(dp1548
g62
(dp1549
g89
g90
ssg71
g1538
sg64
(lp1550
S':'
asbag57
(g78
g59
NtRp1551
(dp1552
g62
(dp1553
sg71
g1538
sg64
(lp1554
g57
(g58
g59
NtRp1555
(dp1556
g62
(dp1557
g70
I4
ssg71
g1551
sg64
(lp1558
g57
(g66
g59
NtRp1559
(dp1560
g62
(dp1561
g70
I3
ssg71
Nsg64
(lp1562
g57
(g73
g59
NtRp1563
(dp1564
g62
(dp1565
sg71
g1559
sg64
(lp1566
g57
(g78
g59
NtRp1567
(dp1568
g62
(dp1569
sg71
g1563
sg64
(lp1570
g57
(g58
g59
NtRp1571
(dp1572
g62
(dp1573
g70
I3
ssg71
g1567
sg64
(lp1574
S'1'
asbasbasbag57
(g73
g59
NtRp1575
(dp1576
g62
(dp1577
sg71
g1559
sg64
(lp1578
g57
(g78
g59
NtRp1579
(dp1580
g62
(dp1581
sg71
g1575
sg64
(lp1582
g57
(g58
g59
NtRp1583
(dp1584
g62
(dp1585
g70
I3
ssg71
g1579
sg64
(lp1586
S'0'
asbasbasbasbasbasbasbasbasbasbasbag57
(g73
g59
NtRp1587
(dp1588
g62
(dp1589
sg71
g67
sg64
(lp1590
g57
(g78
g59
NtRp1591
(dp1592
g62
(dp1593
g82
g83
ssg71
g1587
sg64
(lp1594
S'extension'
p1595
asbag57
(g78
g59
NtRp1596
(dp1597
g62
(dp1598
g89
g90
ssg71
g1587
sg64
(lp1599
S':'
asbag57
(g78
g59
NtRp1600
(dp1601
g62
(dp1602
sg71
g1587
sg64
(lp1603
g57
(g58
g59
NtRp1604
(dp1605
g62
(dp1606
g70
I5
ssg71
g1600
sg64
(lp1607
S'html'
p1608
asbasbasbag57
(g73
g59
NtRp1609
(dp1610
g62
(dp1611
sg71
g67
sg64
(lp1612
g57
(g78
g59
NtRp1613
(dp1614
g62
(dp1615
g82
g83
ssg71
g1609
sg64
(lp1616
S'folder'
p1617
asbag57
(g78
g59
NtRp1618
(dp1619
g62
(dp1620
g89
g90
ssg71
g1609
sg64
(lp1621
S':'
asbag57
(g78
g59
NtRp1622
(dp1623
g62
(dp1624
sg71
g1609
sg64
(lp1625
g57
(g58
g59
NtRp1626
(dp1627
g62
(dp1628
g70
I5
ssg71
g1622
sg64
(lp1629
S'/home/prateek/web2py/applications/phyloShiny/'
p1630
asbasbasbag57
(g73
g59
NtRp1631
(dp1632
g62
(dp1633
sg71
g67
sg64
(lp1634
g57
(g78
g59
NtRp1635
(dp1636
g62
(dp1637
g82
g83
ssg71
g1631
sg64
(lp1638
S'function'
p1639
asbag57
(g78
g59
NtRp1640
(dp1641
g62
(dp1642
g89
g90
ssg71
g1631
sg64
(lp1643
S':'
asbag57
(g78
g59
NtRp1644
(dp1645
g62
(dp1646
sg71
g1631
sg64
(lp1647
g57
(g58
g59
NtRp1648
(dp1649
g62
(dp1650
g70
I5
ssg71
g1644
sg64
(lp1651
S'getPhylotasticTree'
p1652
asbasbasbag57
(g73
g59
NtRp1653
(dp1654
g62
(dp1655
sg71
g67
sg64
(lp1656
g57
(g78
g59
NtRp1657
(dp1658
g62
(dp1659
g82
g83
ssg71
g1653
sg64
(lp1660
S'get_vars'
p1661
asbag57
(g78
g59
NtRp1662
(dp1663
g62
(dp1664
g89
g90
ssg71
g1653
sg64
(lp1665
S':'
asbag57
(g78
g59
NtRp1666
(dp1667
g62
(dp1668
sg71
g1653
sg64
(lp1669
g57
(g58
g59
NtRp1670
(dp1671
g62
(dp1672
g70
I5
ssg71
g1666
sg64
(lp1673
g57
(g66
g59
NtRp1674
(dp1675
g62
(dp1676
g70
I4
ssg71
Nsg64
(lp1677
g57
(g73
g59
NtRp1678
(dp1679
g62
(dp1680
sg71
g1674
sg64
(lp1681
g57
(g78
g59
NtRp1682
(dp1683
g62
(dp1684
g82
g83
ssg71
g1678
sg64
(lp1685
S'treeFileName'
p1686
asbag57
(g78
g59
NtRp1687
(dp1688
g62
(dp1689
g89
g90
ssg71
g1678
sg64
(lp1690
S':'
asbag57
(g78
g59
NtRp1691
(dp1692
g62
(dp1693
sg71
g1678
sg64
(lp1694
g57
(g58
g59
NtRp1695
(dp1696
g62
(dp1697
g70
I4
ssg71
g1691
sg64
(lp1698
S'static/sample_data/demo_Mammal_Hemoglobin_Pruned/input_genetree.nwk.txt'
p1699
asbasbasbasbasbasbasbag57
(g73
g59
NtRp1700
(dp1701
g62
(dp1702
sg71
g67
sg64
(lp1703
g57
(g78
g59
NtRp1704
(dp1705
g62
(dp1706
g82
g83
ssg71
g1700
sg64
(lp1707
S'global_settings'
p1708
asbag57
(g78
g59
NtRp1709
(dp1710
g62
(dp1711
g89
g90
ssg71
g1700
sg64
(lp1712
S':'
asbag57
(g78
g59
NtRp1713
(dp1714
g62
(dp1715
sg71
g1700
sg64
(lp1716
g57
(g58
g59
NtRp1717
(dp1718
g62
(dp1719
g70
I5
ssg71
g1713
sg64
(lp1720
g57
(g66
g59
NtRp1721
(dp1722
g62
(dp1723
g70
I4
ssg71
Nsg64
(lp1724
g57
(g73
g59
NtRp1725
(dp1726
g62
(dp1727
sg71
g1721
sg64
(lp1728
g57
(g78
g59
NtRp1729
(dp1730
g62
(dp1731
g82
g83
ssg71
g1725
sg64
(lp1732
g649
asbag57
(g78
g59
NtRp1733
(dp1734
g62
(dp1735
g89
g90
ssg71
g1725
sg64
(lp1736
S':'
asbag57
(g78
g59
NtRp1737
(dp1738
g62
(dp1739
sg71
g1725
sg64
(lp1740
g57
(g58
g59
NtRp1741
(dp1742
g62
(dp1743
g70
I4
ssg71
g1737
sg64
(lp1744
S"set(['/home/prateek/web2py/applications/phyloShiny/', '/home/prateek/web2py/applications/welcome/'])"
p1745
asbasbasbag57
(g73
g59
NtRp1746
(dp1747
g62
(dp1748
sg71
g1721
sg64
(lp1749
g57
(g78
g59
NtRp1750
(dp1751
g62
(dp1752
g82
g83
ssg71
g1746
sg64
(lp1753
g671
asbag57
(g78
g59
NtRp1754
(dp1755
g62
(dp1756
g89
g90
ssg71
g1746
sg64
(lp1757
S':'
asbag57
(g78
g59
NtRp1758
(dp1759
g62
(dp1760
sg71
g1746
sg64
(lp1761
g57
(g58
g59
NtRp1762
(dp1763
g62
(dp1764
g70
I4
ssg71
g1758
sg64
(lp1765
g684
asbasbasbag57
(g73
g59
NtRp1766
(dp1767
g62
(dp1768
sg71
g1721
sg64
(lp1769
g57
(g78
g59
NtRp1770
(dp1771
g62
(dp1772
g82
g83
ssg71
g1766
sg64
(lp1773
g693
asbag57
(g78
g59
NtRp1774
(dp1775
g62
(dp1776
g89
g90
ssg71
g1766
sg64
(lp1777
S':'
asbag57
(g78
g59
NtRp1778
(dp1779
g62
(dp1780
sg71
g1766
sg64
(lp1781
g57
(g58
g59
NtRp1782
(dp1783
g62
(dp1784
g70
I4
ssg71
g1778
sg64
(lp1785
g57
(g66
g59
NtRp1786
(dp1787
g62
(dp1788
g70
I3
ssg71
Nsg64
(lp1789
sbasbasbasbag57
(g73
g59
NtRp1790
(dp1791
g62
(dp1792
sg71
g1721
sg64
(lp1793
g57
(g78
g59
NtRp1794
(dp1795
g62
(dp1796
g82
g83
ssg71
g1790
sg64
(lp1797
g718
asbag57
(g78
g59
NtRp1798
(dp1799
g62
(dp1800
g89
g90
ssg71
g1790
sg64
(lp1801
S':'
asbag57
(g78
g59
NtRp1802
(dp1803
g62
(dp1804
sg71
g1790
sg64
(lp1805
g57
(g58
g59
NtRp1806
(dp1807
g62
(dp1808
g70
I4
ssg71
g1802
sg64
(lp1809
S"<Values at 0x8db55cc: {'verbose': False, 'ip': '127.0.0.1', 'shutdown_timeout': 5, 'taskbar': False, 'port': 8000, 'maxthreads': None, 'softcron': False, 'server_name': 'prateek-Inspiron-N5110', 'bpython': False, 'nogui': False, 'nocron': False, 'extcron': False, 'debuglevel': 30, 'test': None, 'folder': '/home/prateek/web2py', 'config': '', 'import_models': False, 'winservice': '', 'shell': None, 'run': '', 'log_filename': 'httpserver.log', 'args': [''], 'socket_timeout': 1, 'profiler_filename': None, 'ssl_private_key': '', 'password': '<ask>', 'request_queue_size': 5, 'ssl_certificate': '', 'cronjob': False, 'plain': False, 'quiet': False, 'interfaces': None, 'minthreads': None, 'timeout': 10, 'numthreads': None, 'nobanner': False, 'pid_filename': 'httpserver.pid'}>"
p1810
asbasbasbag57
(g73
g59
NtRp1811
(dp1812
g62
(dp1813
sg71
g1721
sg64
(lp1814
g57
(g78
g59
NtRp1815
(dp1816
g62
(dp1817
g82
g83
ssg71
g1811
sg64
(lp1818
g740
asbag57
(g78
g59
NtRp1819
(dp1820
g62
(dp1821
g89
g90
ssg71
g1811
sg64
(lp1822
S':'
asbag57
(g78
g59
NtRp1823
(dp1824
g62
(dp1825
sg71
g1811
sg64
(lp1826
g57
(g58
g59
NtRp1827
(dp1828
g62
(dp1829
g70
I4
ssg71
g1823
sg64
(lp1830
S'set([])'
p1831
asbasbasbag57
(g73
g59
NtRp1832
(dp1833
g62
(dp1834
sg71
g1721
sg64
(lp1835
g57
(g78
g59
NtRp1836
(dp1837
g62
(dp1838
g82
g83
ssg71
g1832
sg64
(lp1839
g762
asbag57
(g78
g59
NtRp1840
(dp1841
g62
(dp1842
g89
g90
ssg71
g1832
sg64
(lp1843
S':'
asbag57
(g78
g59
NtRp1844
(dp1845
g62
(dp1846
sg71
g1832
sg64
(lp1847
g57
(g58
g59
NtRp1848
(dp1849
g62
(dp1850
g70
I4
ssg71
g1844
sg64
(lp1851
g775
asbasbasbag57
(g73
g59
NtRp1852
(dp1853
g62
(dp1854
sg71
g1721
sg64
(lp1855
g57
(g78
g59
NtRp1856
(dp1857
g62
(dp1858
g82
g83
ssg71
g1852
sg64
(lp1859
g784
asbag57
(g78
g59
NtRp1860
(dp1861
g62
(dp1862
g89
g90
ssg71
g1852
sg64
(lp1863
S':'
asbag57
(g78
g59
NtRp1864
(dp1865
g62
(dp1866
sg71
g1852
sg64
(lp1867
g57
(g58
g59
NtRp1868
(dp1869
g62
(dp1870
g70
I4
ssg71
g1864
sg64
(lp1871
g797
asbasbasbag57
(g73
g59
NtRp1872
(dp1873
g62
(dp1874
sg71
g1721
sg64
(lp1875
g57
(g78
g59
NtRp1876
(dp1877
g62
(dp1878
g82
g83
ssg71
g1872
sg64
(lp1879
g1004
asbag57
(g78
g59
NtRp1880
(dp1881
g62
(dp1882
g89
g90
ssg71
g1872
sg64
(lp1883
S':'
asbag57
(g78
g59
NtRp1884
(dp1885
g62
(dp1886
sg71
g1872
sg64
(lp1887
g57
(g58
g59
NtRp1888
(dp1889
g62
(dp1890
g70
I4
ssg71
g1884
sg64
(lp1891
g775
asbasbasbag57
(g73
g59
NtRp1892
(dp1893
g62
(dp1894
sg71
g1721
sg64
(lp1895
g57
(g78
g59
NtRp1896
(dp1897
g62
(dp1898
g82
g83
ssg71
g1892
sg64
(lp1899
g1025
asbag57
(g78
g59
NtRp1900
(dp1901
g62
(dp1902
g89
g90
ssg71
g1892
sg64
(lp1903
S':'
asbag57
(g78
g59
NtRp1904
(dp1905
g62
(dp1906
sg71
g1892
sg64
(lp1907
g57
(g58
g59
NtRp1908
(dp1909
g62
(dp1910
g70
I4
ssg71
g1904
sg64
(lp1911
g775
asbasbasbag57
(g73
g59
NtRp1912
(dp1913
g62
(dp1914
sg71
g1721
sg64
(lp1915
g57
(g78
g59
NtRp1916
(dp1917
g62
(dp1918
g82
g83
ssg71
g1912
sg64
(lp1919
g1264
asbag57
(g78
g59
NtRp1920
(dp1921
g62
(dp1922
g89
g90
ssg71
g1912
sg64
(lp1923
S':'
asbag57
(g78
g59
NtRp1924
(dp1925
g62
(dp1926
sg71
g1912
sg64
(lp1927
g57
(g58
g59
NtRp1928
(dp1929
g62
(dp1930
g70
I4
ssg71
g1924
sg64
(lp1931
g1277
asbasbasbag57
(g73
g59
NtRp1932
(dp1933
g62
(dp1934
sg71
g1721
sg64
(lp1935
g57
(g78
g59
NtRp1936
(dp1937
g62
(dp1938
g82
g83
ssg71
g1932
sg64
(lp1939
g1307
asbag57
(g78
g59
NtRp1940
(dp1941
g62
(dp1942
g89
g90
ssg71
g1932
sg64
(lp1943
S':'
asbag57
(g78
g59
NtRp1944
(dp1945
g62
(dp1946
sg71
g1932
sg64
(lp1947
g57
(g58
g59
NtRp1948
(dp1949
g62
(dp1950
g70
I4
ssg71
g1944
sg64
(lp1951
g57
(g66
g59
NtRp1952
(dp1953
g62
(dp1954
g70
I3
ssg71
Nsg64
(lp1955
g57
(g73
g59
NtRp1956
(dp1957
g62
(dp1958
sg71
g1952
sg64
(lp1959
g57
(g78
g59
NtRp1960
(dp1961
g62
(dp1962
sg71
g1956
sg64
(lp1963
g57
(g58
g59
NtRp1964
(dp1965
g62
(dp1966
g70
I3
ssg71
g1960
sg64
(lp1967
S'1'
asbasbasbag57
(g73
g59
NtRp1968
(dp1969
g62
(dp1970
sg71
g1952
sg64
(lp1971
g57
(g78
g59
NtRp1972
(dp1973
g62
(dp1974
sg71
g1968
sg64
(lp1975
g57
(g58
g59
NtRp1976
(dp1977
g62
(dp1978
g70
I3
ssg71
g1972
sg64
(lp1979
S'99'
p1980
asbasbasbag57
(g73
g59
NtRp1981
(dp1982
g62
(dp1983
sg71
g1952
sg64
(lp1984
g57
(g78
g59
NtRp1985
(dp1986
g62
(dp1987
sg71
g1981
sg64
(lp1988
g57
(g58
g59
NtRp1989
(dp1990
g62
(dp1991
g70
I3
ssg71
g1985
sg64
(lp1992
S'4'
asbasbasbag57
(g73
g59
NtRp1993
(dp1994
g62
(dp1995
sg71
g1952
sg64
(lp1996
g57
(g78
g59
NtRp1997
(dp1998
g62
(dp1999
sg71
g1993
sg64
(lp2000
g57
(g58
g59
NtRp2001
(dp2002
g62
(dp2003
g70
I3
ssg71
g1997
sg64
(lp2004
S'datetime.datetime(2011, 12, 14, 14, 46, 14)'
p2005
asbasbasbag57
(g73
g59
NtRp2006
(dp2007
g62
(dp2008
sg71
g1952
sg64
(lp2009
g57
(g78
g59
NtRp2010
(dp2011
g62
(dp2012
sg71
g2006
sg64
(lp2013
g57
(g58
g59
NtRp2014
(dp2015
g62
(dp2016
g70
I3
ssg71
g2010
sg64
(lp2017
g1386
asbasbasbasbasbasbasbasbasbasbasbag57
(g73
g59
NtRp2018
(dp2019
g62
(dp2020
sg71
g67
sg64
(lp2021
g57
(g78
g59
NtRp2022
(dp2023
g62
(dp2024
g82
g83
ssg71
g2018
sg64
(lp2025
S'is_https'
p2026
asbag57
(g78
g59
NtRp2027
(dp2028
g62
(dp2029
g89
g90
ssg71
g2018
sg64
(lp2030
S':'
asbag57
(g78
g59
NtRp2031
(dp2032
g62
(dp2033
sg71
g2018
sg64
(lp2034
g57
(g58
g59
NtRp2035
(dp2036
g62
(dp2037
g70
I5
ssg71
g2031
sg64
(lp2038
g775
asbasbasbag57
(g73
g59
NtRp2039
(dp2040
g62
(dp2041
sg71
g67
sg64
(lp2042
g57
(g78
g59
NtRp2043
(dp2044
g62
(dp2045
g82
g83
ssg71
g2039
sg64
(lp2046
S'is_local'
p2047
asbag57
(g78
g59
NtRp2048
(dp2049
g62
(dp2050
g89
g90
ssg71
g2039
sg64
(lp2051
S':'
asbag57
(g78
g59
NtRp2052
(dp2053
g62
(dp2054
sg71
g2039
sg64
(lp2055
g57
(g58
g59
NtRp2056
(dp2057
g62
(dp2058
g70
I5
ssg71
g2052
sg64
(lp2059
g100
asbasbasbag57
(g73
g59
NtRp2060
(dp2061
g62
(dp2062
sg71
g67
sg64
(lp2063
g57
(g78
g59
NtRp2064
(dp2065
g62
(dp2066
g82
g83
ssg71
g2060
sg64
(lp2067
S'is_restful'
p2068
asbag57
(g78
g59
NtRp2069
(dp2070
g62
(dp2071
g89
g90
ssg71
g2060
sg64
(lp2072
S':'
asbag57
(g78
g59
NtRp2073
(dp2074
g62
(dp2075
sg71
g2060
sg64
(lp2076
g57
(g58
g59
NtRp2077
(dp2078
g62
(dp2079
g70
I5
ssg71
g2073
sg64
(lp2080
g775
asbasbasbag57
(g73
g59
NtRp2081
(dp2082
g62
(dp2083
sg71
g67
sg64
(lp2084
g57
(g78
g59
NtRp2085
(dp2086
g62
(dp2087
g82
g83
ssg71
g2081
sg64
(lp2088
S'now'
p2089
asbag57
(g78
g59
NtRp2090
(dp2091
g62
(dp2092
g89
g90
ssg71
g2081
sg64
(lp2093
S':'
asbag57
(g78
g59
NtRp2094
(dp2095
g62
(dp2096
sg71
g2081
sg64
(lp2097
g57
(g58
g59
NtRp2098
(dp2099
g62
(dp2100
g70
I5
ssg71
g2094
sg64
(lp2101
S'datetime.datetime(2013, 5, 17, 13, 58, 13, 882198)'
p2102
asbasbasbag57
(g73
g59
NtRp2103
(dp2104
g62
(dp2105
sg71
g67
sg64
(lp2106
g57
(g78
g59
NtRp2107
(dp2108
g62
(dp2109
g82
g83
ssg71
g2103
sg64
(lp2110
S'post_vars'
p2111
asbag57
(g78
g59
NtRp2112
(dp2113
g62
(dp2114
g89
g90
ssg71
g2103
sg64
(lp2115
S':'
asbag57
(g78
g59
NtRp2116
(dp2117
g62
(dp2118
sg71
g2103
sg64
(lp2119
g57
(g58
g59
NtRp2120
(dp2121
g62
(dp2122
g70
I5
ssg71
g2116
sg64
(lp2123
g57
(g66
g59
NtRp2124
(dp2125
g62
(dp2126
g70
I4
ssg71
Nsg64
(lp2127
sbasbasbasbag57
(g73
g59
NtRp2128
(dp2129
g62
(dp2130
sg71
g67
sg64
(lp2131
g57
(g78
g59
NtRp2132
(dp2133
g62
(dp2134
g82
g83
ssg71
g2128
sg64
(lp2135
S'url'
p2136
asbag57
(g78
g59
NtRp2137
(dp2138
g62
(dp2139
g89
g90
ssg71
g2128
sg64
(lp2140
S':'
asbag57
(g78
g59
NtRp2141
(dp2142
g62
(dp2143
sg71
g2128
sg64
(lp2144
g57
(g58
g59
NtRp2145
(dp2146
g62
(dp2147
g70
I5
ssg71
g2141
sg64
(lp2148
S'/phyloShiny/reconciliotastic/getPhylotasticTree'
p2149
asbasbasbag57
(g73
g59
NtRp2150
(dp2151
g62
(dp2152
sg71
g67
sg64
(lp2153
g57
(g78
g59
NtRp2154
(dp2155
g62
(dp2156
g82
g83
ssg71
g2150
sg64
(lp2157
S'utcnow'
p2158
asbag57
(g78
g59
NtRp2159
(dp2160
g62
(dp2161
g89
g90
ssg71
g2150
sg64
(lp2162
S':'
asbag57
(g78
g59
NtRp2163
(dp2164
g62
(dp2165
sg71
g2150
sg64
(lp2166
g57
(g58
g59
NtRp2167
(dp2168
g62
(dp2169
g70
I5
ssg71
g2163
sg64
(lp2170
S'datetime.datetime(2013, 5, 17, 8, 28, 13, 882251)'
p2171
asbasbasbag57
(g73
g59
NtRp2172
(dp2173
g62
(dp2174
sg71
g67
sg64
(lp2175
g57
(g78
g59
NtRp2176
(dp2177
g62
(dp2178
g82
g83
ssg71
g2172
sg64
(lp2179
S'uuid'
p2180
asbag57
(g78
g59
NtRp2181
(dp2182
g62
(dp2183
g89
g90
ssg71
g2172
sg64
(lp2184
S':'
asbag57
(g78
g59
NtRp2185
(dp2186
g62
(dp2187
sg71
g2172
sg64
(lp2188
g57
(g58
g59
NtRp2189
(dp2190
g62
(dp2191
g70
I5
ssg71
g2185
sg64
(lp2192
S'phyloShiny/127.0.0.1.2013-05-17.13-58-13.0900f052-d7c0-4e8e-af90-a21827da7b34'
p2193
asbasbasbag57
(g73
g59
NtRp2194
(dp2195
g62
(dp2196
sg71
g67
sg64
(lp2197
g57
(g78
g59
NtRp2198
(dp2199
g62
(dp2200
g82
g83
ssg71
g2194
sg64
(lp2201
S'vars'
p2202
asbag57
(g78
g59
NtRp2203
(dp2204
g62
(dp2205
g89
g90
ssg71
g2194
sg64
(lp2206
S':'
asbag57
(g78
g59
NtRp2207
(dp2208
g62
(dp2209
sg71
g2194
sg64
(lp2210
g57
(g58
g59
NtRp2211
(dp2212
g62
(dp2213
g70
I5
ssg71
g2207
sg64
(lp2214
g57
(g66
g59
NtRp2215
(dp2216
g62
(dp2217
g70
I4
ssg71
Nsg64
(lp2218
g57
(g73
g59
NtRp2219
(dp2220
g62
(dp2221
sg71
g2215
sg64
(lp2222
g57
(g78
g59
NtRp2223
(dp2224
g62
(dp2225
g82
g83
ssg71
g2219
sg64
(lp2226
g1686
asbag57
(g78
g59
NtRp2227
(dp2228
g62
(dp2229
g89
g90
ssg71
g2219
sg64
(lp2230
S':'
asbag57
(g78
g59
NtRp2231
(dp2232
g62
(dp2233
sg71
g2219
sg64
(lp2234
g57
(g58
g59
NtRp2235
(dp2236
g62
(dp2237
g70
I4
ssg71
g2231
sg64
(lp2238
g1699
asbasbasbasbasbasbasbag57
(g73
g59
NtRp2239
(dp2240
g62
(dp2241
sg71
g67
sg64
(lp2242
g57
(g78
g59
NtRp2243
(dp2244
g62
(dp2245
g82
g83
ssg71
g2239
sg64
(lp2246
S'wsgi'
p2247
asbag57
(g78
g59
NtRp2248
(dp2249
g62
(dp2250
g89
g90
ssg71
g2239
sg64
(lp2251
S':'
asbag57
(g78
g59
NtRp2252
(dp2253
g62
(dp2254
sg71
g2239
sg64
(lp2255
g57
(g58
g59
NtRp2256
(dp2257
g62
(dp2258
g70
I5
ssg71
g2252
sg64
(lp2259
g57
(g66
g59
NtRp2260
(dp2261
g62
(dp2262
g70
I4
ssg71
Nsg64
(lp2263
g57
(g73
g59
NtRp2264
(dp2265
g62
(dp2266
sg71
g2260
sg64
(lp2267
g57
(g78
g59
NtRp2268
(dp2269
g62
(dp2270
g82
g83
ssg71
g2264
sg64
(lp2271
S'environ'
p2272
asbag57
(g78
g59
NtRp2273
(dp2274
g62
(dp2275
g89
g90
ssg71
g2264
sg64
(lp2276
S':'
asbag57
(g78
g59
NtRp2277
(dp2278
g62
(dp2279
sg71
g2264
sg64
(lp2280
g57
(g58
g59
NtRp2281
(dp2282
g62
(dp2283
g70
I4
ssg71
g2277
sg64
(lp2284
g57
(g66
g59
NtRp2285
(dp2286
g62
(dp2287
g70
I3
ssg71
Nsg64
(lp2288
g57
(g73
g59
NtRp2289
(dp2290
g62
(dp2291
sg71
g2285
sg64
(lp2292
g57
(g78
g59
NtRp2293
(dp2294
g62
(dp2295
g82
g83
ssg71
g2289
sg64
(lp2296
S'HTTP_ACCEPT'
p2297
asbag57
(g78
g59
NtRp2298
(dp2299
g62
(dp2300
g89
g90
ssg71
g2289
sg64
(lp2301
S':'
asbag57
(g78
g59
NtRp2302
(dp2303
g62
(dp2304
sg71
g2289
sg64
(lp2305
g57
(g58
g59
NtRp2306
(dp2307
g62
(dp2308
g70
I3
ssg71
g2302
sg64
(lp2309
g819
asbasbasbag57
(g73
g59
NtRp2310
(dp2311
g62
(dp2312
sg71
g2285
sg64
(lp2313
g57
(g78
g59
NtRp2314
(dp2315
g62
(dp2316
g82
g83
ssg71
g2310
sg64
(lp2317
S'HTTP_ACCEPT_ENCODING'
p2318
asbag57
(g78
g59
NtRp2319
(dp2320
g62
(dp2321
g89
g90
ssg71
g2310
sg64
(lp2322
S':'
asbag57
(g78
g59
NtRp2323
(dp2324
g62
(dp2325
sg71
g2310
sg64
(lp2326
g57
(g58
g59
NtRp2327
(dp2328
g62
(dp2329
g70
I3
ssg71
g2323
sg64
(lp2330
g841
asbasbasbag57
(g73
g59
NtRp2331
(dp2332
g62
(dp2333
sg71
g2285
sg64
(lp2334
g57
(g78
g59
NtRp2335
(dp2336
g62
(dp2337
g82
g83
ssg71
g2331
sg64
(lp2338
S'HTTP_ACCEPT_LANGUAGE'
p2339
asbag57
(g78
g59
NtRp2340
(dp2341
g62
(dp2342
g89
g90
ssg71
g2331
sg64
(lp2343
S':'
asbag57
(g78
g59
NtRp2344
(dp2345
g62
(dp2346
sg71
g2331
sg64
(lp2347
g57
(g58
g59
NtRp2348
(dp2349
g62
(dp2350
g70
I3
ssg71
g2344
sg64
(lp2351
g863
asbasbasbag57
(g73
g59
NtRp2352
(dp2353
g62
(dp2354
sg71
g2285
sg64
(lp2355
g57
(g78
g59
NtRp2356
(dp2357
g62
(dp2358
g82
g83
ssg71
g2352
sg64
(lp2359
S'HTTP_CONNECTION'
p2360
asbag57
(g78
g59
NtRp2361
(dp2362
g62
(dp2363
g89
g90
ssg71
g2352
sg64
(lp2364
S':'
asbag57
(g78
g59
NtRp2365
(dp2366
g62
(dp2367
sg71
g2352
sg64
(lp2368
g57
(g58
g59
NtRp2369
(dp2370
g62
(dp2371
g70
I3
ssg71
g2365
sg64
(lp2372
g885
asbasbasbag57
(g73
g59
NtRp2373
(dp2374
g62
(dp2375
sg71
g2285
sg64
(lp2376
g57
(g78
g59
NtRp2377
(dp2378
g62
(dp2379
g82
g83
ssg71
g2373
sg64
(lp2380
S'HTTP_COOKIE'
p2381
asbag57
(g78
g59
NtRp2382
(dp2383
g62
(dp2384
g89
g90
ssg71
g2373
sg64
(lp2385
S':'
asbag57
(g78
g59
NtRp2386
(dp2387
g62
(dp2388
sg71
g2373
sg64
(lp2389
g57
(g58
g59
NtRp2390
(dp2391
g62
(dp2392
g70
I3
ssg71
g2386
sg64
(lp2393
g907
asbasbasbag57
(g73
g59
NtRp2394
(dp2395
g62
(dp2396
sg71
g2285
sg64
(lp2397
g57
(g78
g59
NtRp2398
(dp2399
g62
(dp2400
g82
g83
ssg71
g2394
sg64
(lp2401
S'HTTP_HOST'
p2402
asbag57
(g78
g59
NtRp2403
(dp2404
g62
(dp2405
g89
g90
ssg71
g2394
sg64
(lp2406
S':'
asbag57
(g78
g59
NtRp2407
(dp2408
g62
(dp2409
sg71
g2394
sg64
(lp2410
g57
(g58
g59
NtRp2411
(dp2412
g62
(dp2413
g70
I3
ssg71
g2407
sg64
(lp2414
g929
asbasbasbag57
(g73
g59
NtRp2415
(dp2416
g62
(dp2417
sg71
g2285
sg64
(lp2418
g57
(g78
g59
NtRp2419
(dp2420
g62
(dp2421
g82
g83
ssg71
g2415
sg64
(lp2422
S'HTTP_REFERER'
p2423
asbag57
(g78
g59
NtRp2424
(dp2425
g62
(dp2426
g89
g90
ssg71
g2415
sg64
(lp2427
S':'
asbag57
(g78
g59
NtRp2428
(dp2429
g62
(dp2430
sg71
g2415
sg64
(lp2431
g57
(g58
g59
NtRp2432
(dp2433
g62
(dp2434
g70
I3
ssg71
g2428
sg64
(lp2435
g951
asbasbasbag57
(g73
g59
NtRp2436
(dp2437
g62
(dp2438
sg71
g2285
sg64
(lp2439
g57
(g78
g59
NtRp2440
(dp2441
g62
(dp2442
g82
g83
ssg71
g2436
sg64
(lp2443
S'HTTP_USER_AGENT'
p2444
asbag57
(g78
g59
NtRp2445
(dp2446
g62
(dp2447
g89
g90
ssg71
g2436
sg64
(lp2448
S':'
asbag57
(g78
g59
NtRp2449
(dp2450
g62
(dp2451
sg71
g2436
sg64
(lp2452
g57
(g58
g59
NtRp2453
(dp2454
g62
(dp2455
g70
I3
ssg71
g2449
sg64
(lp2456
g973
asbasbasbag57
(g73
g59
NtRp2457
(dp2458
g62
(dp2459
sg71
g2285
sg64
(lp2460
g57
(g78
g59
NtRp2461
(dp2462
g62
(dp2463
g82
g83
ssg71
g2457
sg64
(lp2464
S'HTTP_X_REQUESTED_WITH'
p2465
asbag57
(g78
g59
NtRp2466
(dp2467
g62
(dp2468
g89
g90
ssg71
g2457
sg64
(lp2469
S':'
asbag57
(g78
g59
NtRp2470
(dp2471
g62
(dp2472
sg71
g2457
sg64
(lp2473
g57
(g58
g59
NtRp2474
(dp2475
g62
(dp2476
g70
I3
ssg71
g2470
sg64
(lp2477
g995
asbasbasbag57
(g73
g59
NtRp2478
(dp2479
g62
(dp2480
sg71
g2285
sg64
(lp2481
g57
(g78
g59
NtRp2482
(dp2483
g62
(dp2484
g82
g83
ssg71
g2478
sg64
(lp2485
S'PATH_INFO'
p2486
asbag57
(g78
g59
NtRp2487
(dp2488
g62
(dp2489
g89
g90
ssg71
g2478
sg64
(lp2490
S':'
asbag57
(g78
g59
NtRp2491
(dp2492
g62
(dp2493
sg71
g2478
sg64
(lp2494
g57
(g58
g59
NtRp2495
(dp2496
g62
(dp2497
g70
I3
ssg71
g2491
sg64
(lp2498
g1059
asbasbasbag57
(g73
g59
NtRp2499
(dp2500
g62
(dp2501
sg71
g2285
sg64
(lp2502
g57
(g78
g59
NtRp2503
(dp2504
g62
(dp2505
g82
g83
ssg71
g2499
sg64
(lp2506
S'QUERY_STRING'
p2507
asbag57
(g78
g59
NtRp2508
(dp2509
g62
(dp2510
g89
g90
ssg71
g2499
sg64
(lp2511
S':'
asbag57
(g78
g59
NtRp2512
(dp2513
g62
(dp2514
sg71
g2499
sg64
(lp2515
g57
(g58
g59
NtRp2516
(dp2517
g62
(dp2518
g70
I3
ssg71
g2512
sg64
(lp2519
g1081
asbasbasbag57
(g73
g59
NtRp2520
(dp2521
g62
(dp2522
sg71
g2285
sg64
(lp2523
g57
(g78
g59
NtRp2524
(dp2525
g62
(dp2526
g82
g83
ssg71
g2520
sg64
(lp2527
S'REMOTE_ADDR'
p2528
asbag57
(g78
g59
NtRp2529
(dp2530
g62
(dp2531
g89
g90
ssg71
g2520
sg64
(lp2532
S':'
asbag57
(g78
g59
NtRp2533
(dp2534
g62
(dp2535
sg71
g2520
sg64
(lp2536
g57
(g58
g59
NtRp2537
(dp2538
g62
(dp2539
g70
I3
ssg71
g2533
sg64
(lp2540
g190
asbasbasbag57
(g73
g59
NtRp2541
(dp2542
g62
(dp2543
sg71
g2285
sg64
(lp2544
g57
(g78
g59
NtRp2545
(dp2546
g62
(dp2547
g82
g83
ssg71
g2541
sg64
(lp2548
S'REMOTE_PORT'
p2549
asbag57
(g78
g59
NtRp2550
(dp2551
g62
(dp2552
g89
g90
ssg71
g2541
sg64
(lp2553
S':'
asbag57
(g78
g59
NtRp2554
(dp2555
g62
(dp2556
sg71
g2541
sg64
(lp2557
g57
(g58
g59
NtRp2558
(dp2559
g62
(dp2560
g70
I3
ssg71
g2554
sg64
(lp2561
g1124
asbasbasbag57
(g73
g59
NtRp2562
(dp2563
g62
(dp2564
sg71
g2285
sg64
(lp2565
g57
(g78
g59
NtRp2566
(dp2567
g62
(dp2568
g82
g83
ssg71
g2562
sg64
(lp2569
S'REQUEST_METHOD'
p2570
asbag57
(g78
g59
NtRp2571
(dp2572
g62
(dp2573
g89
g90
ssg71
g2562
sg64
(lp2574
S':'
asbag57
(g78
g59
NtRp2575
(dp2576
g62
(dp2577
sg71
g2562
sg64
(lp2578
g57
(g58
g59
NtRp2579
(dp2580
g62
(dp2581
g70
I3
ssg71
g2575
sg64
(lp2582
g1146
asbasbasbag57
(g73
g59
NtRp2583
(dp2584
g62
(dp2585
sg71
g2285
sg64
(lp2586
g57
(g78
g59
NtRp2587
(dp2588
g62
(dp2589
g82
g83
ssg71
g2583
sg64
(lp2590
S'SCRIPT_NAME'
p2591
asbag57
(g78
g59
NtRp2592
(dp2593
g62
(dp2594
g89
g90
ssg71
g2583
sg64
(lp2595
S':'
asbag57
(g78
g59
NtRp2596
(dp2597
g62
(dp2598
sg71
g2583
sg64
(lp2599
g57
(g58
g59
NtRp2600
(dp2601
g62
(dp2602
g70
I3
ssg71
g2596
sg64
(lp2603
S''
asbasbasbag57
(g73
g59
NtRp2604
(dp2605
g62
(dp2606
sg71
g2285
sg64
(lp2607
g57
(g78
g59
NtRp2608
(dp2609
g62
(dp2610
g82
g83
ssg71
g2604
sg64
(lp2611
S'SERVER_NAME'
p2612
asbag57
(g78
g59
NtRp2613
(dp2614
g62
(dp2615
g89
g90
ssg71
g2604
sg64
(lp2616
S':'
asbag57
(g78
g59
NtRp2617
(dp2618
g62
(dp2619
sg71
g2604
sg64
(lp2620
g57
(g58
g59
NtRp2621
(dp2622
g62
(dp2623
g70
I3
ssg71
g2617
sg64
(lp2624
g1189
asbasbasbag57
(g73
g59
NtRp2625
(dp2626
g62
(dp2627
sg71
g2285
sg64
(lp2628
g57
(g78
g59
NtRp2629
(dp2630
g62
(dp2631
g82
g83
ssg71
g2625
sg64
(lp2632
S'SERVER_PORT'
p2633
asbag57
(g78
g59
NtRp2634
(dp2635
g62
(dp2636
g89
g90
ssg71
g2625
sg64
(lp2637
S':'
asbag57
(g78
g59
NtRp2638
(dp2639
g62
(dp2640
sg71
g2625
sg64
(lp2641
g57
(g58
g59
NtRp2642
(dp2643
g62
(dp2644
g70
I3
ssg71
g2638
sg64
(lp2645
g1211
asbasbasbag57
(g73
g59
NtRp2646
(dp2647
g62
(dp2648
sg71
g2285
sg64
(lp2649
g57
(g78
g59
NtRp2650
(dp2651
g62
(dp2652
g82
g83
ssg71
g2646
sg64
(lp2653
S'SERVER_PROTOCOL'
p2654
asbag57
(g78
g59
NtRp2655
(dp2656
g62
(dp2657
g89
g90
ssg71
g2646
sg64
(lp2658
S':'
asbag57
(g78
g59
NtRp2659
(dp2660
g62
(dp2661
sg71
g2646
sg64
(lp2662
g57
(g58
g59
NtRp2663
(dp2664
g62
(dp2665
g70
I3
ssg71
g2659
sg64
(lp2666
g1233
asbasbasbag57
(g73
g59
NtRp2667
(dp2668
g62
(dp2669
sg71
g2285
sg64
(lp2670
g57
(g78
g59
NtRp2671
(dp2672
g62
(dp2673
g82
g83
ssg71
g2667
sg64
(lp2674
S'SERVER_SOFTWARE'
p2675
asbag57
(g78
g59
NtRp2676
(dp2677
g62
(dp2678
g89
g90
ssg71
g2667
sg64
(lp2679
S':'
asbag57
(g78
g59
NtRp2680
(dp2681
g62
(dp2682
sg71
g2667
sg64
(lp2683
g57
(g58
g59
NtRp2684
(dp2685
g62
(dp2686
g70
I3
ssg71
g2680
sg64
(lp2687
g1255
asbasbasbag57
(g73
g59
NtRp2688
(dp2689
g62
(dp2690
sg71
g2285
sg64
(lp2691
g57
(g78
g59
NtRp2692
(dp2693
g62
(dp2694
g82
g83
ssg71
g2688
sg64
(lp2695
S'wsgi.errors'
p2696
asbag57
(g78
g59
NtRp2697
(dp2698
g62
(dp2699
g89
g90
ssg71
g2688
sg64
(lp2700
S':'
asbag57
(g78
g59
NtRp2701
(dp2702
g62
(dp2703
sg71
g2688
sg64
(lp2704
g57
(g58
g59
NtRp2705
(dp2706
g62
(dp2707
g70
I3
ssg71
g2701
sg64
(lp2708
S"<open file '<stderr>', mode 'w' at 0xb72920d0>"
p2709
asbasbasbag57
(g73
g59
NtRp2710
(dp2711
g62
(dp2712
sg71
g2285
sg64
(lp2713
g57
(g78
g59
NtRp2714
(dp2715
g62
(dp2716
g82
g83
ssg71
g2710
sg64
(lp2717
S'wsgi.file_wrapper'
p2718
asbag57
(g78
g59
NtRp2719
(dp2720
g62
(dp2721
g89
g90
ssg71
g2710
sg64
(lp2722
S':'
asbag57
(g78
g59
NtRp2723
(dp2724
g62
(dp2725
sg71
g2710
sg64
(lp2726
g57
(g58
g59
NtRp2727
(dp2728
g62
(dp2729
g70
I3
ssg71
g2723
sg64
(lp2730
S'<class wsgiref.util.FileWrapper at 0x8b7d23c>'
p2731
asbasbasbag57
(g73
g59
NtRp2732
(dp2733
g62
(dp2734
sg71
g2285
sg64
(lp2735
g57
(g78
g59
NtRp2736
(dp2737
g62
(dp2738
g82
g83
ssg71
g2732
sg64
(lp2739
S'wsgi.input'
p2740
asbag57
(g78
g59
NtRp2741
(dp2742
g62
(dp2743
g89
g90
ssg71
g2732
sg64
(lp2744
S':'
asbag57
(g78
g59
NtRp2745
(dp2746
g62
(dp2747
sg71
g2732
sg64
(lp2748
g57
(g58
g59
NtRp2749
(dp2750
g62
(dp2751
g70
I3
ssg71
g2745
sg64
(lp2752
S'<cStringIO.StringO object at 0xab0b2980>'
p2753
asbasbasbag57
(g73
g59
NtRp2754
(dp2755
g62
(dp2756
sg71
g2285
sg64
(lp2757
g57
(g78
g59
NtRp2758
(dp2759
g62
(dp2760
g82
g83
ssg71
g2754
sg64
(lp2761
S'wsgi.multiprocess'
p2762
asbag57
(g78
g59
NtRp2763
(dp2764
g62
(dp2765
g89
g90
ssg71
g2754
sg64
(lp2766
S':'
asbag57
(g78
g59
NtRp2767
(dp2768
g62
(dp2769
sg71
g2754
sg64
(lp2770
g57
(g58
g59
NtRp2771
(dp2772
g62
(dp2773
g70
I3
ssg71
g2767
sg64
(lp2774
g775
asbasbasbag57
(g73
g59
NtRp2775
(dp2776
g62
(dp2777
sg71
g2285
sg64
(lp2778
g57
(g78
g59
NtRp2779
(dp2780
g62
(dp2781
g82
g83
ssg71
g2775
sg64
(lp2782
S'wsgi.multithread'
p2783
asbag57
(g78
g59
NtRp2784
(dp2785
g62
(dp2786
g89
g90
ssg71
g2775
sg64
(lp2787
S':'
asbag57
(g78
g59
NtRp2788
(dp2789
g62
(dp2790
sg71
g2775
sg64
(lp2791
g57
(g58
g59
NtRp2792
(dp2793
g62
(dp2794
g70
I3
ssg71
g2788
sg64
(lp2795
g100
asbasbasbag57
(g73
g59
NtRp2796
(dp2797
g62
(dp2798
sg71
g2285
sg64
(lp2799
g57
(g78
g59
NtRp2800
(dp2801
g62
(dp2802
g82
g83
ssg71
g2796
sg64
(lp2803
S'wsgi.run_once'
p2804
asbag57
(g78
g59
NtRp2805
(dp2806
g62
(dp2807
g89
g90
ssg71
g2796
sg64
(lp2808
S':'
asbag57
(g78
g59
NtRp2809
(dp2810
g62
(dp2811
sg71
g2796
sg64
(lp2812
g57
(g58
g59
NtRp2813
(dp2814
g62
(dp2815
g70
I3
ssg71
g2809
sg64
(lp2816
g775
asbasbasbag57
(g73
g59
NtRp2817
(dp2818
g62
(dp2819
sg71
g2285
sg64
(lp2820
g57
(g78
g59
NtRp2821
(dp2822
g62
(dp2823
g82
g83
ssg71
g2817
sg64
(lp2824
S'wsgi.url_scheme'
p2825
asbag57
(g78
g59
NtRp2826
(dp2827
g62
(dp2828
g89
g90
ssg71
g2817
sg64
(lp2829
S':'
asbag57
(g78
g59
NtRp2830
(dp2831
g62
(dp2832
sg71
g2817
sg64
(lp2833
g57
(g58
g59
NtRp2834
(dp2835
g62
(dp2836
g70
I3
ssg71
g2830
sg64
(lp2837
g1537
asbasbasbag57
(g73
g59
NtRp2838
(dp2839
g62
(dp2840
sg71
g2285
sg64
(lp2841
g57
(g78
g59
NtRp2842
(dp2843
g62
(dp2844
g82
g83
ssg71
g2838
sg64
(lp2845
S'wsgi.version'
p2846
asbag57
(g78
g59
NtRp2847
(dp2848
g62
(dp2849
g89
g90
ssg71
g2838
sg64
(lp2850
S':'
asbag57
(g78
g59
NtRp2851
(dp2852
g62
(dp2853
sg71
g2838
sg64
(lp2854
g57
(g58
g59
NtRp2855
(dp2856
g62
(dp2857
g70
I3
ssg71
g2851
sg64
(lp2858
S'1'
asbasbasbasbasbasbasbasbasbasbasbasbasbsS'frames'
p2859
(lp2860
(dp2861
S'file'
p2862
S'/usr/lib/pymodules/python2.7/gluon/restricted.py'
p2863
sS'dump'
p2864
(dp2865
S'environment'
p2866
S"{'A': <class 'gluon.html.A'>, 'Auth': <class 'gluon.tools.Auth'>, 'B': <class 'gluon.html.B'>, 'BEAUTIFY': <class 'gluon.html.BEAUTIFY'>, 'BODY': <class 'gluon.html.BODY'>, 'BR': <class 'gluon.html.BR'>, 'BUTTON': <class 'gluon.html.BUTTON'>, 'BaseTree': <module 'Bio.Phylo.BaseTree' from '/usr/local/lib/python2.7/dist-packages/Bio/Phylo/BaseTree.py'>, 'CAT': <class 'gluon.html.CAT'>, 'CENTER': <class 'gluon.html.CENTER'>, ...}"
p2867
sS'ccode'
p2868
S'<code object <module> at 0xb15b5068, file "/home...oShiny/controllers/reconciliotastic.py", line 11>'
p2869
ssS'lnum'
p2870
I204
sS'lines'
p2871
(dp2872
I199
S'    try:'
p2873
sI200
S'        if type(code) == types.CodeType:'
p2874
sI201
S'            ccode = code'
p2875
sI202
S'        else:'
p2876
sI203
S'            ccode = compile2(code,layer)'
p2877
sI204
S'        exec ccode in environment'
p2878
sI205
S'    except HTTP:'
p2879
sI206
S'        raise'
p2880
sI207
S'    except RestrictedError:'
p2881
sI208
S'        # do not encapsulate (obfuscate) the original RestrictedError'
p2882
ssS'call'
p2883
S"(code='# -*- coding: utf-8 -*-\\n# this file is released ...ponse._vars=response._caller(getPhylotasticTree)\\n', environment={'A': <class 'gluon.html.A'>, 'Auth': <class 'gluon.tools.Auth'>, 'B': <class 'gluon.html.B'>, 'BEAUTIFY': <class 'gluon.html.BEAUTIFY'>, 'BODY': <class 'gluon.html.BODY'>, 'BR': <class 'gluon.html.BR'>, 'BUTTON': <class 'gluon.html.BUTTON'>, 'BaseTree': <module 'Bio.Phylo.BaseTree' from '/usr/local/lib/python2.7/dist-packages/Bio/Phylo/BaseTree.py'>, 'CAT': <class 'gluon.html.CAT'>, 'CENTER': <class 'gluon.html.CENTER'>, ...}, layer='/home/prateek/web2py/applications/phyloShiny/controllers/reconciliotastic.py')"
p2884
sS'func'
p2885
S'restricted'
p2886
sa(dp2887
g2862
S'/home/prateek/web2py/applications/phyloShiny/controllers/reconciliotastic.py'
p2888
sg2864
(dp2889
sg2870
I180
sg2871
(dp2890
I169
S'    shellCall += geneTreeFile'
p2891
sI170
S"    shellCall += ' '+speciesTreeFile"
p2892
sI171
S''
sI172
S'    os.system(shellCall)'
p2893
sI173
S''
sI174
S"    reconciledTreeWebFile = getRelativeWebPath('_preprocessed_gene_tree.phylo_gsdi_out.phylo.xml')"
p2894
sI175
S''
sI176
S'    return response.json( dict(vizFile = reconciledTreeWebFile,'
p2895
sI177
S'                               vizLabel = "Reconciled Tree (red=duplication, green=speciation)"'
p2896
sI178
S'                               ) )'
p2897
ssg2883
S'()'
p2898
sg2885
S'<module>'
p2899
sa(dp2900
g2862
S'/usr/lib/pymodules/python2.7/gluon/globals.py'
p2901
sg2864
(dp2902
S'self'
p2903
S'undefined'
p2904
sS'f'
S'<function getPhylotasticTree>'
p2905
ssg2870
I172
sg2871
(dp2906
I167
S'        self.meta = Storage()      # used by web2py_ajax.html'
p2907
sI168
S'        self.menu = []             # used by the default view layout'
p2908
sI169
S'        self.files = []            # used by web2py_ajax.html'
p2909
sI170
S'        self.generic_patterns = [] # patterns to allow generic views'
p2910
sI171
S'        self._vars = None'
p2911
sI172
S'        self._caller = lambda f: f()'
p2912
sI173
S'        self._view_environment = None'
p2913
sI174
S'        self._custom_commit = None'
p2914
sI175
S'        self._custom_rollback = None'
p2915
sI176
S''
ssg2883
S'(f=<function getPhylotasticTree>)'
p2916
sg2885
S'<lambda>'
p2917
sa(dp2918
g2862
S'/home/prateek/web2py/applications/phyloShiny/controllers/reconciliotastic.py'
p2919
sg2864
(dp2920
S'mymodule'
p2921
g2904
sS'global local_import'
p2922
S'<function <lambda>>'
p2923
ssg2870
I126
sg2871
(dp2924
I128
S"    tree = Phylo.read(speciesTreeFilename, 'newick')\t\t\t\t#tree reads the species labels in newick format"
p2925
sI129
S'##    for node in tree.get_terminals(): \t\t\t\t\t#loop to traverse through these nodes'
p2926
sI130
S'##\t    count+=1\t\t\t\t\t\t\t\t\t#updating counter value'
p2927
sI121
S'    # the returned species tree, so we can let users know if PTastic'
p2928
sI122
S'    # found everything we searched for. This would require parsing the'
p2929
sI123
S'    # Newick and counting nodes, probably using something like'
p2930
sI124
S'    # BioPython rather than making an external call to Java again.'
p2931
sI125
S''
sI126
S"    mymodule = local_import('Bio')"
p2932
sI127
S'    got_nodes=0\t\t\t\t\t\t\t\t\t#global counter to keep the count of the nodes'
p2933
ssg2883
S'()'
p2934
sg2885
S'getPhylotasticTree'
p2935
sa(dp2936
g2862
S'/usr/lib/pymodules/python2.7/gluon/compileapp.py'
p2937
sg2864
(dp2938
S'global local_import_aux'
p2939
S'<function local_import_aux>'
p2940
sS'reload'
p2941
g775
sS'app'
p2942
S"'phyloShiny'"
p2943
sS'name'
p2944
S"'Bio'"
p2945
ssg2870
I370
sg2871
(dp2946
I365
S"    environment['SQLFORM'] = SQLFORM"
p2947
sI366
S"    environment['SQLTABLE'] = SQLTABLE"
p2948
sI367
S"    environment['LOAD'] = LOAD"
p2949
sI368
S"    environment['local_import'] = \\"
p2950
sI369
S'        lambda name, reload=False, app=request.application:\\'
p2951
sI370
S'        local_import_aux(name,reload,app)'
p2952
sI371
S"    BaseAdapter.set_folder(os.path.join(request.folder, 'databases'))"
p2953
sI372
S'    response._view_environment = copy.copy(environment)'
p2954
sI373
S'    return environment'
p2955
sI374
S''
ssg2883
S"(name='Bio', reload=False, app='phyloShiny')"
p2956
sg2885
g2917
sa(dp2957
g2862
S'/usr/lib/pymodules/python2.7/gluon/compileapp.py'
p2958
sg2864
(dp2959
S'name'
p2960
S"'applications.phyloShiny.modules.Bio'"
p2961
sS'module'
p2962
g2904
sS'builtin__import__'
p2963
S'<gluon.custom_import._Web2pyImporter object>'
p2964
ssg2870
I289
sg2871
(dp2965
I288
S'    name = "applications.%s.modules.%s" % (app, items)'
p2966
sI289
S'    module = __import__(name)'
p2967
sI290
S'    for item in name.split(".")[1:]:'
p2968
sI291
S'        module = getattr(module, item)'
p2969
sI292
S'    if reload_force:'
p2970
sI293
S'        reload(module)'
p2971
sI284
S'    This prevents conflict between applications and un-necessary execs.'
p2972
sI285
S'    It can be used to import any module, including regular Python modules.'
p2973
sI286
S'    """'
p2974
sI287
S"    items = name.replace('/','.')"
p2975
ssg2883
S"(name='applications.phyloShiny.modules.Bio', reload_force=False, app='phyloShiny')"
p2976
sg2885
S'local_import_aux'
p2977
sa(dp2978
g2862
S'/usr/lib/pymodules/python2.7/gluon/custom_import.py'
p2979
sg2864
(dp2980
S'fromlist'
p2981
S'[]'
p2982
sS'level'
p2983
S'-1'
p2984
ssg2870
I293
sg2871
(dp2985
I288
S'                            .__call__(modules_prefix+"."+name,'
p2986
sI289
S'                                    globals, locals, fromlist, level)'
p2987
sI290
S'                except ImportError:'
p2988
sI291
S'                    pass'
p2989
sI292
S'        return super(_Web2pyImporter, self).__call__(name, globals, locals,'
p2990
sI293
S'                                                    fromlist, level)'
p2991
sI294
S'        #except Exception, e:'
p2992
sI295
S"        #    raise e  # Don't hide something that went wrong"
p2993
sI296
S'        #finally:'
p2994
sI297
S'        self.end()'
p2995
ssg2883
S"(self=<gluon.custom_import._Web2pyImporter object>, name='applications.phyloShiny.modules.Bio', globals={}, locals={}, fromlist=[], level=-1)"
p2996
sg2885
S'__call__'
p2997
sa(dp2998
g2862
S'/usr/lib/pymodules/python2.7/gluon/custom_import.py'
p2999
sg2864
(dp3000
S'level'
p3001
S'-1'
p3002
ssg2870
I78
sg2871
(dp3003
I73
S'        """'
p3004
sI74
S'        return _STANDARD_PYTHON_IMPORTER(name,'
p3005
sI75
S'                                         globals,'
p3006
sI76
S'                                         locals,'
p3007
sI77
S'                                         fromlist,'
p3008
sI78
S'                                         level)'
p3009
sI79
S''
sI80
S'    def end(self):'
p3010
sI81
S'        """'
p3011
sI82
S'        Needed for clean up.'
p3012
ssg2883
S"(self=<gluon.custom_import._Web2pyImporter object>, name='applications.phyloShiny.modules.Bio', globals={}, locals={}, fromlist=[], level=-1)"
p3013
sg2885
g2997
sasS'pyver'
p3014
S'Python 2.7.3: /usr/bin/python'
p3015
sS'session'
p3016
g57
(g58
g59
NtRp3017
(dp3018
g62
(dp3019
sg64
(lp3020
g57
(g66
g59
NtRp3021
(dp3022
g62
(dp3023
g70
I5
ssg71
Nsg64
(lp3024
sbasbsS'etype'
p3025
S"<type 'exceptions.ImportError'>"
p3026
sS'date'
p3027
S'Fri May 17 13:58:22 2013'
p3028
sS'response'
p3029
g57
(g58
g59
NtRp3030
(dp3031
g62
(dp3032
sg64
(lp3033
g57
(g66
g59
NtRp3034
(dp3035
g62
(dp3036
g70
I5
ssg71
Nsg64
(lp3037
g57
(g73
g59
NtRp3038
(dp3039
g62
(dp3040
sg71
g3034
sg64
(lp3041
g57
(g78
g59
NtRp3042
(dp3043
g62
(dp3044
g82
g83
ssg71
g3038
sg64
(lp3045
g155
asbag57
(g78
g59
NtRp3046
(dp3047
g62
(dp3048
g89
g90
ssg71
g3038
sg64
(lp3049
S':'
asbag57
(g78
g59
NtRp3050
(dp3051
g62
(dp3052
sg71
g3038
sg64
(lp3053
g57
(g58
g59
NtRp3054
(dp3055
g62
(dp3056
g70
I5
ssg71
g3050
sg64
(lp3057
S'<cStringIO.StringO object at 0xab0b90c0>'
p3058
asbasbasbag57
(g73
g59
NtRp3059
(dp3060
g62
(dp3061
sg71
g3034
sg64
(lp3062
g57
(g78
g59
NtRp3063
(dp3064
g62
(dp3065
g82
g83
ssg71
g3059
sg64
(lp3066
g221
asbag57
(g78
g59
NtRp3067
(dp3068
g62
(dp3069
g89
g90
ssg71
g3059
sg64
(lp3070
S':'
asbag57
(g78
g59
NtRp3071
(dp3072
g62
(dp3073
sg71
g3059
sg64
(lp3074
g57
(g58
g59
NtRp3075
(dp3076
g62
(dp3077
g70
I5
ssg71
g3071
sg64
(lp3078
g57
(g66
g59
NtRp3079
(dp3080
g62
(dp3081
g70
I4
ssg71
Nsg64
(lp3082
g57
(g73
g59
NtRp3083
(dp3084
g62
(dp3085
sg71
g3079
sg64
(lp3086
g57
(g78
g59
NtRp3087
(dp3088
g62
(dp3089
g82
g83
ssg71
g3083
sg64
(lp3090
S'session_id_phyloshiny'
p3091
asbag57
(g78
g59
NtRp3092
(dp3093
g62
(dp3094
g89
g90
ssg71
g3083
sg64
(lp3095
S':'
asbag57
(g78
g59
NtRp3096
(dp3097
g62
(dp3098
sg71
g3083
sg64
(lp3099
g57
(g58
g59
NtRp3100
(dp3101
g62
(dp3102
g70
I4
ssg71
g3096
sg64
(lp3103
g57
(g66
g59
NtRp3104
(dp3105
g62
(dp3106
g70
I3
ssg71
Nsg64
(lp3107
g57
(g73
g59
NtRp3108
(dp3109
g62
(dp3110
sg71
g3104
sg64
(lp3111
g57
(g78
g59
NtRp3112
(dp3113
g62
(dp3114
g82
g83
ssg71
g3108
sg64
(lp3115
g271
asbag57
(g78
g59
NtRp3116
(dp3117
g62
(dp3118
g89
g90
ssg71
g3108
sg64
(lp3119
S':'
asbag57
(g78
g59
NtRp3120
(dp3121
g62
(dp3122
sg71
g3108
sg64
(lp3123
g57
(g58
g59
NtRp3124
(dp3125
g62
(dp3126
g70
I3
ssg71
g3120
sg64
(lp3127
S''
asbasbasbag57
(g73
g59
NtRp3128
(dp3129
g62
(dp3130
sg71
g3104
sg64
(lp3131
g57
(g78
g59
NtRp3132
(dp3133
g62
(dp3134
g82
g83
ssg71
g3128
sg64
(lp3135
g292
asbag57
(g78
g59
NtRp3136
(dp3137
g62
(dp3138
g89
g90
ssg71
g3128
sg64
(lp3139
S':'
asbag57
(g78
g59
NtRp3140
(dp3141
g62
(dp3142
sg71
g3128
sg64
(lp3143
g57
(g58
g59
NtRp3144
(dp3145
g62
(dp3146
g70
I3
ssg71
g3140
sg64
(lp3147
S''
asbasbasbag57
(g73
g59
NtRp3148
(dp3149
g62
(dp3150
sg71
g3104
sg64
(lp3151
g57
(g78
g59
NtRp3152
(dp3153
g62
(dp3154
g82
g83
ssg71
g3148
sg64
(lp3155
g313
asbag57
(g78
g59
NtRp3156
(dp3157
g62
(dp3158
g89
g90
ssg71
g3148
sg64
(lp3159
S':'
asbag57
(g78
g59
NtRp3160
(dp3161
g62
(dp3162
sg71
g3148
sg64
(lp3163
g57
(g58
g59
NtRp3164
(dp3165
g62
(dp3166
g70
I3
ssg71
g3160
sg64
(lp3167
S''
asbasbasbag57
(g73
g59
NtRp3168
(dp3169
g62
(dp3170
sg71
g3104
sg64
(lp3171
g57
(g78
g59
NtRp3172
(dp3173
g62
(dp3174
g82
g83
ssg71
g3168
sg64
(lp3175
g334
asbag57
(g78
g59
NtRp3176
(dp3177
g62
(dp3178
g89
g90
ssg71
g3168
sg64
(lp3179
S':'
asbag57
(g78
g59
NtRp3180
(dp3181
g62
(dp3182
sg71
g3168
sg64
(lp3183
g57
(g58
g59
NtRp3184
(dp3185
g62
(dp3186
g70
I3
ssg71
g3180
sg64
(lp3187
S''
asbasbasbag57
(g73
g59
NtRp3188
(dp3189
g62
(dp3190
sg71
g3104
sg64
(lp3191
g57
(g78
g59
NtRp3192
(dp3193
g62
(dp3194
g82
g83
ssg71
g3188
sg64
(lp3195
g355
asbag57
(g78
g59
NtRp3196
(dp3197
g62
(dp3198
g89
g90
ssg71
g3188
sg64
(lp3199
S':'
asbag57
(g78
g59
NtRp3200
(dp3201
g62
(dp3202
sg71
g3188
sg64
(lp3203
g57
(g58
g59
NtRp3204
(dp3205
g62
(dp3206
g70
I3
ssg71
g3200
sg64
(lp3207
S''
asbasbasbag57
(g73
g59
NtRp3208
(dp3209
g62
(dp3210
sg71
g3104
sg64
(lp3211
g57
(g78
g59
NtRp3212
(dp3213
g62
(dp3214
g82
g83
ssg71
g3208
sg64
(lp3215
g376
asbag57
(g78
g59
NtRp3216
(dp3217
g62
(dp3218
g89
g90
ssg71
g3208
sg64
(lp3219
S':'
asbag57
(g78
g59
NtRp3220
(dp3221
g62
(dp3222
sg71
g3208
sg64
(lp3223
g57
(g58
g59
NtRp3224
(dp3225
g62
(dp3226
g70
I3
ssg71
g3220
sg64
(lp3227
S'/'
asbasbasbag57
(g73
g59
NtRp3228
(dp3229
g62
(dp3230
sg71
g3104
sg64
(lp3231
g57
(g78
g59
NtRp3232
(dp3233
g62
(dp3234
g82
g83
ssg71
g3228
sg64
(lp3235
g397
asbag57
(g78
g59
NtRp3236
(dp3237
g62
(dp3238
g89
g90
ssg71
g3228
sg64
(lp3239
S':'
asbag57
(g78
g59
NtRp3240
(dp3241
g62
(dp3242
sg71
g3228
sg64
(lp3243
g57
(g58
g59
NtRp3244
(dp3245
g62
(dp3246
g70
I3
ssg71
g3240
sg64
(lp3247
S''
asbasbasbag57
(g73
g59
NtRp3248
(dp3249
g62
(dp3250
sg71
g3104
sg64
(lp3251
g57
(g78
g59
NtRp3252
(dp3253
g62
(dp3254
g82
g83
ssg71
g3248
sg64
(lp3255
g418
asbag57
(g78
g59
NtRp3256
(dp3257
g62
(dp3258
g89
g90
ssg71
g3248
sg64
(lp3259
S':'
asbag57
(g78
g59
NtRp3260
(dp3261
g62
(dp3262
sg71
g3248
sg64
(lp3263
g57
(g58
g59
NtRp3264
(dp3265
g62
(dp3266
g70
I3
ssg71
g3260
sg64
(lp3267
S''
asbasbasbasbasbasbasbasbasbasbasbag57
(g73
g59
NtRp3268
(dp3269
g62
(dp3270
sg71
g3034
sg64
(lp3271
g57
(g78
g59
NtRp3272
(dp3273
g62
(dp3274
g82
g83
ssg71
g3268
sg64
(lp3275
S'files'
p3276
asbag57
(g78
g59
NtRp3277
(dp3278
g62
(dp3279
g89
g90
ssg71
g3268
sg64
(lp3280
S':'
asbag57
(g78
g59
NtRp3281
(dp3282
g62
(dp3283
sg71
g3268
sg64
(lp3284
g57
(g58
g59
NtRp3285
(dp3286
g62
(dp3287
g70
I5
ssg71
g3281
sg64
(lp3288
g57
(g66
g59
NtRp3289
(dp3290
g62
(dp3291
g70
I4
ssg71
Nsg64
(lp3292
sbasbasbasbag57
(g73
g59
NtRp3293
(dp3294
g62
(dp3295
sg71
g3034
sg64
(lp3296
g57
(g78
g59
NtRp3297
(dp3298
g62
(dp3299
g82
g83
ssg71
g3293
sg64
(lp3300
S'flash'
p3301
asbag57
(g78
g59
NtRp3302
(dp3303
g62
(dp3304
g89
g90
ssg71
g3293
sg64
(lp3305
S':'
asbag57
(g78
g59
NtRp3306
(dp3307
g62
(dp3308
sg71
g3293
sg64
(lp3309
g57
(g58
g59
NtRp3310
(dp3311
g62
(dp3312
g70
I5
ssg71
g3306
sg64
(lp3313
S''
asbasbasbag57
(g73
g59
NtRp3314
(dp3315
g62
(dp3316
sg71
g3034
sg64
(lp3317
g57
(g78
g59
NtRp3318
(dp3319
g62
(dp3320
g82
g83
ssg71
g3314
sg64
(lp3321
S'generic_patterns'
p3322
asbag57
(g78
g59
NtRp3323
(dp3324
g62
(dp3325
g89
g90
ssg71
g3314
sg64
(lp3326
S':'
asbag57
(g78
g59
NtRp3327
(dp3328
g62
(dp3329
sg71
g3314
sg64
(lp3330
g57
(g58
g59
NtRp3331
(dp3332
g62
(dp3333
g70
I5
ssg71
g3327
sg64
(lp3334
g57
(g66
g59
NtRp3335
(dp3336
g62
(dp3337
g70
I4
ssg71
Nsg64
(lp3338
g57
(g73
g59
NtRp3339
(dp3340
g62
(dp3341
sg71
g3335
sg64
(lp3342
g57
(g78
g59
NtRp3343
(dp3344
g62
(dp3345
sg71
g3339
sg64
(lp3346
g57
(g58
g59
NtRp3347
(dp3348
g62
(dp3349
g70
I4
ssg71
g3343
sg64
(lp3350
S'*'
asbasbasbasbasbasbasbag57
(g73
g59
NtRp3351
(dp3352
g62
(dp3353
sg71
g3034
sg64
(lp3354
g57
(g78
g59
NtRp3355
(dp3356
g62
(dp3357
g82
g83
ssg71
g3351
sg64
(lp3358
S'headers'
p3359
asbag57
(g78
g59
NtRp3360
(dp3361
g62
(dp3362
g89
g90
ssg71
g3351
sg64
(lp3363
S':'
asbag57
(g78
g59
NtRp3364
(dp3365
g62
(dp3366
sg71
g3351
sg64
(lp3367
g57
(g58
g59
NtRp3368
(dp3369
g62
(dp3370
g70
I5
ssg71
g3364
sg64
(lp3371
g57
(g66
g59
NtRp3372
(dp3373
g62
(dp3374
g70
I4
ssg71
Nsg64
(lp3375
g57
(g73
g59
NtRp3376
(dp3377
g62
(dp3378
sg71
g3372
sg64
(lp3379
g57
(g78
g59
NtRp3380
(dp3381
g62
(dp3382
g82
g83
ssg71
g3376
sg64
(lp3383
S'Cache-Control'
p3384
asbag57
(g78
g59
NtRp3385
(dp3386
g62
(dp3387
g89
g90
ssg71
g3376
sg64
(lp3388
S':'
asbag57
(g78
g59
NtRp3389
(dp3390
g62
(dp3391
sg71
g3376
sg64
(lp3392
g57
(g58
g59
NtRp3393
(dp3394
g62
(dp3395
g70
I4
ssg71
g3389
sg64
(lp3396
S'no-store, no-cache, must-revalidate, post-check=0, pre-check=0'
p3397
asbasbasbag57
(g73
g59
NtRp3398
(dp3399
g62
(dp3400
sg71
g3372
sg64
(lp3401
g57
(g78
g59
NtRp3402
(dp3403
g62
(dp3404
g82
g83
ssg71
g3398
sg64
(lp3405
S'Content-Type'
p3406
asbag57
(g78
g59
NtRp3407
(dp3408
g62
(dp3409
g89
g90
ssg71
g3398
sg64
(lp3410
S':'
asbag57
(g78
g59
NtRp3411
(dp3412
g62
(dp3413
sg71
g3398
sg64
(lp3414
g57
(g58
g59
NtRp3415
(dp3416
g62
(dp3417
g70
I4
ssg71
g3411
sg64
(lp3418
S'text/html; charset=utf-8'
p3419
asbasbasbag57
(g73
g59
NtRp3420
(dp3421
g62
(dp3422
sg71
g3372
sg64
(lp3423
g57
(g78
g59
NtRp3424
(dp3425
g62
(dp3426
g82
g83
ssg71
g3420
sg64
(lp3427
S'Expires'
p3428
asbag57
(g78
g59
NtRp3429
(dp3430
g62
(dp3431
g89
g90
ssg71
g3420
sg64
(lp3432
S':'
asbag57
(g78
g59
NtRp3433
(dp3434
g62
(dp3435
sg71
g3420
sg64
(lp3436
g57
(g58
g59
NtRp3437
(dp3438
g62
(dp3439
g70
I4
ssg71
g3433
sg64
(lp3440
S'Fri, 17 May 2013 08:28:13 GMT'
p3441
asbasbasbag57
(g73
g59
NtRp3442
(dp3443
g62
(dp3444
sg71
g3372
sg64
(lp3445
g57
(g78
g59
NtRp3446
(dp3447
g62
(dp3448
g82
g83
ssg71
g3442
sg64
(lp3449
S'Pragma'
p3450
asbag57
(g78
g59
NtRp3451
(dp3452
g62
(dp3453
g89
g90
ssg71
g3442
sg64
(lp3454
S':'
asbag57
(g78
g59
NtRp3455
(dp3456
g62
(dp3457
sg71
g3442
sg64
(lp3458
g57
(g58
g59
NtRp3459
(dp3460
g62
(dp3461
g70
I4
ssg71
g3455
sg64
(lp3462
S'no-cache'
p3463
asbasbasbag57
(g73
g59
NtRp3464
(dp3465
g62
(dp3466
sg71
g3372
sg64
(lp3467
g57
(g78
g59
NtRp3468
(dp3469
g62
(dp3470
g82
g83
ssg71
g3464
sg64
(lp3471
S'X-Powered-By'
p3472
asbag57
(g78
g59
NtRp3473
(dp3474
g62
(dp3475
g89
g90
ssg71
g3464
sg64
(lp3476
S':'
asbag57
(g78
g59
NtRp3477
(dp3478
g62
(dp3479
sg71
g3464
sg64
(lp3480
g57
(g58
g59
NtRp3481
(dp3482
g62
(dp3483
g70
I4
ssg71
g3477
sg64
(lp3484
S'web2py'
p3485
asbasbasbasbasbasbasbag57
(g73
g59
NtRp3486
(dp3487
g62
(dp3488
sg71
g3034
sg64
(lp3489
g57
(g78
g59
NtRp3490
(dp3491
g62
(dp3492
g82
g83
ssg71
g3486
sg64
(lp3493
S'menu'
p3494
asbag57
(g78
g59
NtRp3495
(dp3496
g62
(dp3497
g89
g90
ssg71
g3486
sg64
(lp3498
S':'
asbag57
(g78
g59
NtRp3499
(dp3500
g62
(dp3501
sg71
g3486
sg64
(lp3502
g57
(g58
g59
NtRp3503
(dp3504
g62
(dp3505
g70
I5
ssg71
g3499
sg64
(lp3506
g57
(g66
g59
NtRp3507
(dp3508
g62
(dp3509
g70
I4
ssg71
Nsg64
(lp3510
g57
(g73
g59
NtRp3511
(dp3512
g62
(dp3513
sg71
g3507
sg64
(lp3514
g57
(g78
g59
NtRp3515
(dp3516
g62
(dp3517
sg71
g3511
sg64
(lp3518
g57
(g58
g59
NtRp3519
(dp3520
g62
(dp3521
g70
I4
ssg71
g3515
sg64
(lp3522
g57
(g66
g59
NtRp3523
(dp3524
g62
(dp3525
g70
I3
ssg71
Nsg64
(lp3526
g57
(g73
g59
NtRp3527
(dp3528
g62
(dp3529
sg71
g3523
sg64
(lp3530
g57
(g78
g59
NtRp3531
(dp3532
g62
(dp3533
sg71
g3527
sg64
(lp3534
g57
(g58
g59
NtRp3535
(dp3536
g62
(dp3537
g70
I3
ssg71
g3531
sg64
(lp3538
cgluon.languages
lazyT_unpickle
p3539
(S't\x04\x00\x00\x00Home'
tRp3540
asbasbasbag57
(g73
g59
NtRp3541
(dp3542
g62
(dp3543
sg71
g3523
sg64
(lp3544
g57
(g78
g59
NtRp3545
(dp3546
g62
(dp3547
sg71
g3541
sg64
(lp3548
g57
(g58
g59
NtRp3549
(dp3550
g62
(dp3551
g70
I3
ssg71
g3545
sg64
(lp3552
g775
asbasbasbag57
(g73
g59
NtRp3553
(dp3554
g62
(dp3555
sg71
g3523
sg64
(lp3556
g57
(g78
g59
NtRp3557
(dp3558
g62
(dp3559
sg71
g3553
sg64
(lp3560
g57
(g58
g59
NtRp3561
(dp3562
g62
(dp3563
g70
I3
ssg71
g3557
sg64
(lp3564
S'/phyloShiny/default/index'
p3565
asbasbasbag57
(g73
g59
NtRp3566
(dp3567
g62
(dp3568
sg71
g3523
sg64
(lp3569
g57
(g78
g59
NtRp3570
(dp3571
g62
(dp3572
sg71
g3566
sg64
(lp3573
g57
(g58
g59
NtRp3574
(dp3575
g62
(dp3576
g70
I3
ssg71
g3570
sg64
(lp3577
g57
(g66
g59
NtRp3578
(dp3579
g62
(dp3580
g70
I2
ssg71
Nsg64
(lp3581
sbasbasbasbasbasbasbasbag57
(g73
g59
NtRp3582
(dp3583
g62
(dp3584
sg71
g3507
sg64
(lp3585
g57
(g78
g59
NtRp3586
(dp3587
g62
(dp3588
sg71
g3582
sg64
(lp3589
g57
(g58
g59
NtRp3590
(dp3591
g62
(dp3592
g70
I4
ssg71
g3586
sg64
(lp3593
g57
(g66
g59
NtRp3594
(dp3595
g62
(dp3596
g70
I3
ssg71
Nsg64
(lp3597
g57
(g73
g59
NtRp3598
(dp3599
g62
(dp3600
sg71
g3594
sg64
(lp3601
g57
(g78
g59
NtRp3602
(dp3603
g62
(dp3604
sg71
g3598
sg64
(lp3605
g57
(g58
g59
NtRp3606
(dp3607
g62
(dp3608
g70
I3
ssg71
g3602
sg64
(lp3609
g57
(cgluon.html
SPAN
p3610
g59
NtRp3611
(dp3612
g62
(dp3613
g82
S'color:yellow'
p3614
ssg71
Nsg64
(lp3615
g3485
asbasbasbasbag57
(g73
g59
NtRp3616
(dp3617
g62
(dp3618
sg71
g3594
sg64
(lp3619
g57
(g78
g59
NtRp3620
(dp3621
g62
(dp3622
sg71
g3616
sg64
(lp3623
g57
(g58
g59
NtRp3624
(dp3625
g62
(dp3626
g70
I3
ssg71
g3620
sg64
(lp3627
g775
asbasbasbag57
(g73
g59
NtRp3628
(dp3629
g62
(dp3630
sg71
g3594
sg64
(lp3631
g57
(g78
g59
NtRp3632
(dp3633
g62
(dp3634
sg71
g3628
sg64
(lp3635
g57
(g58
g59
NtRp3636
(dp3637
g62
(dp3638
g70
I3
ssg71
g3632
sg64
(lp3639
S'None'
p3640
asbasbasbag57
(g73
g59
NtRp3641
(dp3642
g62
(dp3643
sg71
g3594
sg64
(lp3644
g57
(g78
g59
NtRp3645
(dp3646
g62
(dp3647
sg71
g3641
sg64
(lp3648
g57
(g58
g59
NtRp3649
(dp3650
g62
(dp3651
g70
I3
ssg71
g3645
sg64
(lp3652
g57
(g66
g59
NtRp3653
(dp3654
g62
(dp3655
g70
I2
ssg71
Nsg64
(lp3656
g57
(g73
g59
NtRp3657
(dp3658
g62
(dp3659
sg71
g3653
sg64
(lp3660
g57
(g78
g59
NtRp3661
(dp3662
g62
(dp3663
sg71
g3657
sg64
(lp3664
g57
(g58
g59
NtRp3665
(dp3666
g62
(dp3667
g70
I2
ssg71
g3661
sg64
(lp3668
g57
(g66
g59
NtRp3669
(dp3670
g62
(dp3671
g70
I1
ssg71
Nsg64
(lp3672
g57
(g73
g59
NtRp3673
(dp3674
g62
(dp3675
sg71
g3669
sg64
(lp3676
g57
(g78
g59
NtRp3677
(dp3678
g62
(dp3679
sg71
g3673
sg64
(lp3680
g57
(g58
g59
NtRp3681
(dp3682
g62
(dp3683
g70
I1
ssg71
g3677
sg64
(lp3684
g3539
(S's\x08\x00\x00\x00My Sites'
tRp3685
asbasbasbag57
(g73
g59
NtRp3686
(dp3687
g62
(dp3688
sg71
g3669
sg64
(lp3689
g57
(g78
g59
NtRp3690
(dp3691
g62
(dp3692
sg71
g3686
sg64
(lp3693
g57
(g58
g59
NtRp3694
(dp3695
g62
(dp3696
g70
I1
ssg71
g3690
sg64
(lp3697
I00
asbasbasbag57
(g73
g59
NtRp3698
(dp3699
g62
(dp3700
sg71
g3669
sg64
(lp3701
g57
(g78
g59
NtRp3702
(dp3703
g62
(dp3704
sg71
g3698
sg64
(lp3705
g57
(g58
g59
NtRp3706
(dp3707
g62
(dp3708
g70
I1
ssg71
g3702
sg64
(lp3709
S'/admin/default/site'
p3710
asbasbasbasbasbasbasbag57
(g73
g59
NtRp3711
(dp3712
g62
(dp3713
sg71
g3653
sg64
(lp3714
g57
(g78
g59
NtRp3715
(dp3716
g62
(dp3717
sg71
g3711
sg64
(lp3718
g57
(g58
g59
NtRp3719
(dp3720
g62
(dp3721
g70
I2
ssg71
g3715
sg64
(lp3722
g57
(g66
g59
NtRp3723
(dp3724
g62
(dp3725
g70
I1
ssg71
Nsg64
(lp3726
g57
(g73
g59
NtRp3727
(dp3728
g62
(dp3729
sg71
g3723
sg64
(lp3730
g57
(g78
g59
NtRp3731
(dp3732
g62
(dp3733
sg71
g3727
sg64
(lp3734
g57
(g58
g59
NtRp3735
(dp3736
g62
(dp3737
g70
I1
ssg71
g3731
sg64
(lp3738
g3539
(S's\x08\x00\x00\x00This App'
tRp3739
asbasbasbag57
(g73
g59
NtRp3740
(dp3741
g62
(dp3742
sg71
g3723
sg64
(lp3743
g57
(g78
g59
NtRp3744
(dp3745
g62
(dp3746
sg71
g3740
sg64
(lp3747
g57
(g58
g59
NtRp3748
(dp3749
g62
(dp3750
g70
I1
ssg71
g3744
sg64
(lp3751
I00
asbasbasbag57
(g73
g59
NtRp3752
(dp3753
g62
(dp3754
sg71
g3723
sg64
(lp3755
g57
(g78
g59
NtRp3756
(dp3757
g62
(dp3758
sg71
g3752
sg64
(lp3759
g57
(g58
g59
NtRp3760
(dp3761
g62
(dp3762
g70
I1
ssg71
g3756
sg64
(lp3763
S'/admin/default/design/phyloShiny'
p3764
asbasbasbag57
(g73
g59
NtRp3765
(dp3766
g62
(dp3767
sg71
g3723
sg64
(lp3768
g57
(g78
g59
NtRp3769
(dp3770
g62
(dp3771
sg71
g3765
sg64
(lp3772
g57
(g58
g59
NtRp3773
(dp3774
g62
(dp3775
g70
I1
ssg71
g3769
sg64
(lp3776
(lp3777
(g3539
(S't\n\x00\x00\x00Controller'
tRp3778
I00
S'/admin/default/edit/phyloShiny/controllers/reconciliotastic.py'
tp3779
a(g3539
(S't\x04\x00\x00\x00View'
tRp3780
I00
S'/admin/default/edit/phyloShiny/views/reconciliotastic/getPhylotasticTree.html'
tp3781
a(g3539
(S't\x06\x00\x00\x00Layout'
tRp3782
I00
S'/admin/default/edit/phyloShiny/views/layout.html'
tp3783
a(g3539
(S't\n\x00\x00\x00Stylesheet'
tRp3784
I00
S'/admin/default/edit/phyloShiny/static/css/web2py.css'
tp3785
a(g3539
(S's\x08\x00\x00\x00DB Model'
tRp3786
I00
S'/admin/default/edit/phyloShiny/models/db.py'
tp3787
a(g3539
(S's\n\x00\x00\x00Menu Model'
tRp3788
I00
S'/admin/default/edit/phyloShiny/models/menu.py'
tp3789
a(g3539
(S't\x08\x00\x00\x00Database'
tRp3790
I00
S'/phyloShiny/appadmin/index'
tp3791
a(g3539
(S't\x06\x00\x00\x00Errors'
tRp3792
I00
S'/admin/default/errors/phyloShiny'
tp3793
a(g3539
(S't\x05\x00\x00\x00About'
tRp3794
I00
S'/admin/default/about/phyloShiny'
tp3795
aasbasbasbasbasbasbasbag57
(g73
g59
NtRp3796
(dp3797
g62
(dp3798
sg71
g3653
sg64
(lp3799
g57
(g78
g59
NtRp3800
(dp3801
g62
(dp3802
sg71
g3796
sg64
(lp3803
g57
(g58
g59
NtRp3804
(dp3805
g62
(dp3806
g70
I2
ssg71
g3800
sg64
(lp3807
g57
(g66
g59
NtRp3808
(dp3809
g62
(dp3810
g70
I1
ssg71
Nsg64
(lp3811
g57
(g73
g59
NtRp3812
(dp3813
g62
(dp3814
sg71
g3808
sg64
(lp3815
g57
(g78
g59
NtRp3816
(dp3817
g62
(dp3818
sg71
g3812
sg64
(lp3819
g57
(g58
g59
NtRp3820
(dp3821
g62
(dp3822
g70
I1
ssg71
g3816
sg64
(lp3823
S'web2py.com'
p3824
asbasbasbag57
(g73
g59
NtRp3825
(dp3826
g62
(dp3827
sg71
g3808
sg64
(lp3828
g57
(g78
g59
NtRp3829
(dp3830
g62
(dp3831
sg71
g3825
sg64
(lp3832
g57
(g58
g59
NtRp3833
(dp3834
g62
(dp3835
g70
I1
ssg71
g3829
sg64
(lp3836
I00
asbasbasbag57
(g73
g59
NtRp3837
(dp3838
g62
(dp3839
sg71
g3808
sg64
(lp3840
g57
(g78
g59
NtRp3841
(dp3842
g62
(dp3843
sg71
g3837
sg64
(lp3844
g57
(g58
g59
NtRp3845
(dp3846
g62
(dp3847
g70
I1
ssg71
g3841
sg64
(lp3848
S'http://www.web2py.com'
p3849
asbasbasbag57
(g73
g59
NtRp3850
(dp3851
g62
(dp3852
sg71
g3808
sg64
(lp3853
g57
(g78
g59
NtRp3854
(dp3855
g62
(dp3856
sg71
g3850
sg64
(lp3857
g57
(g58
g59
NtRp3858
(dp3859
g62
(dp3860
g70
I1
ssg71
g3854
sg64
(lp3861
(lp3862
(g3539
(S't\x08\x00\x00\x00Download'
tRp3863
I00
S'http://www.web2py.com/examples/default/download'
p3864
tp3865
a(g3539
(S't\x07\x00\x00\x00Support'
tRp3866
I00
S'http://www.web2py.com/examples/default/support'
p3867
tp3868
a(g3539
(S't\x04\x00\x00\x00Demo'
tRp3869
I00
S'http://web2py.com/demo_admin'
p3870
tp3871
a(g3539
(S's\x0e\x00\x00\x00Quick Examples'
tRp3872
I00
S'http://web2py.com/examples/default/examples'
p3873
tp3874
a(g3539
(S't\x03\x00\x00\x00FAQ'
tRp3875
I00
S'http://web2py.com/AlterEgo'
p3876
tp3877
a(g3539
(S't\x06\x00\x00\x00Videos'
tRp3878
I00
S'http://www.web2py.com/examples/default/videos/'
p3879
tp3880
a(g3539
(S's\x11\x00\x00\x00Free Applications'
tRp3881
I00
S'http://web2py.com/appliances'
p3882
tp3883
a(g3539
(S't\x07\x00\x00\x00Plugins'
tRp3884
I00
S'http://web2py.com/plugins'
p3885
tp3886
a(g3539
(S't\x07\x00\x00\x00Layouts'
tRp3887
I00
S'http://web2py.com/layouts'
p3888
tp3889
a(g3539
(S't\x07\x00\x00\x00Recipes'
tRp3890
I00
S'http://web2pyslices.com/'
p3891
tp3892
a(g3539
(S't\x08\x00\x00\x00Semantic'
tRp3893
I00
S'http://web2py.com/semantic'
p3894
tp3895
aasbasbasbasbasbasbasbag57
(g73
g59
NtRp3896
(dp3897
g62
(dp3898
sg71
g3653
sg64
(lp3899
g57
(g78
g59
NtRp3900
(dp3901
g62
(dp3902
sg71
g3896
sg64
(lp3903
g57
(g58
g59
NtRp3904
(dp3905
g62
(dp3906
g70
I2
ssg71
g3900
sg64
(lp3907
g57
(g66
g59
NtRp3908
(dp3909
g62
(dp3910
g70
I1
ssg71
Nsg64
(lp3911
g57
(g73
g59
NtRp3912
(dp3913
g62
(dp3914
sg71
g3908
sg64
(lp3915
g57
(g78
g59
NtRp3916
(dp3917
g62
(dp3918
sg71
g3912
sg64
(lp3919
g57
(g58
g59
NtRp3920
(dp3921
g62
(dp3922
g70
I1
ssg71
g3916
sg64
(lp3923
g3539
(S't\r\x00\x00\x00Documentation'
tRp3924
asbasbasbag57
(g73
g59
NtRp3925
(dp3926
g62
(dp3927
sg71
g3908
sg64
(lp3928
g57
(g78
g59
NtRp3929
(dp3930
g62
(dp3931
sg71
g3925
sg64
(lp3932
g57
(g58
g59
NtRp3933
(dp3934
g62
(dp3935
g70
I1
ssg71
g3929
sg64
(lp3936
I00
asbasbasbag57
(g73
g59
NtRp3937
(dp3938
g62
(dp3939
sg71
g3908
sg64
(lp3940
g57
(g78
g59
NtRp3941
(dp3942
g62
(dp3943
sg71
g3937
sg64
(lp3944
g57
(g58
g59
NtRp3945
(dp3946
g62
(dp3947
g70
I1
ssg71
g3941
sg64
(lp3948
S'http://www.web2py.com/book'
p3949
asbasbasbag57
(g73
g59
NtRp3950
(dp3951
g62
(dp3952
sg71
g3908
sg64
(lp3953
g57
(g78
g59
NtRp3954
(dp3955
g62
(dp3956
sg71
g3950
sg64
(lp3957
g57
(g58
g59
NtRp3958
(dp3959
g62
(dp3960
g70
I1
ssg71
g3954
sg64
(lp3961
(lp3962
(g3539
(S't\x07\x00\x00\x00Preface'
tRp3963
I00
S'http://www.web2py.com/book/default/chapter/00'
p3964
tp3965
a(g3539
(S't\x0c\x00\x00\x00Introduction'
tRp3966
I00
S'http://www.web2py.com/book/default/chapter/01'
p3967
tp3968
a(g3539
(S't\x06\x00\x00\x00Python'
tRp3969
I00
S'http://www.web2py.com/book/default/chapter/02'
p3970
tp3971
a(g3539
(S't\x08\x00\x00\x00Overview'
tRp3972
I00
S'http://www.web2py.com/book/default/chapter/03'
p3973
tp3974
a(g3539
(S's\x08\x00\x00\x00The Core'
tRp3975
I00
S'http://www.web2py.com/book/default/chapter/04'
p3976
tp3977
a(g3539
(S's\t\x00\x00\x00The Views'
tRp3978
I00
S'http://www.web2py.com/book/default/chapter/05'
p3979
tp3980
a(g3539
(S't\x08\x00\x00\x00Database'
tRp3981
I00
S'http://www.web2py.com/book/default/chapter/06'
p3982
tp3983
a(g3539
(S's\x14\x00\x00\x00Forms and Validators'
tRp3984
I00
S'http://www.web2py.com/book/default/chapter/07'
p3985
tp3986
a(g3539
(S's\r\x00\x00\x00Email and SMS'
tRp3987
I00
S'http://www.web2py.com/book/default/chapter/08'
p3988
tp3989
a(g3539
(S's\x0e\x00\x00\x00Access Control'
tRp3990
I00
S'http://www.web2py.com/book/default/chapter/09'
p3991
tp3992
a(g3539
(S't\x08\x00\x00\x00Services'
tRp3993
I00
S'http://www.web2py.com/book/default/chapter/10'
p3994
tp3995
a(g3539
(S's\x0c\x00\x00\x00Ajax Recipes'
tRp3996
I00
S'http://www.web2py.com/book/default/chapter/11'
p3997
tp3998
a(g3539
(S's\x16\x00\x00\x00Components and Plugins'
tRp3999
I00
S'http://www.web2py.com/book/default/chapter/12'
p4000
tp4001
a(g3539
(S's\x12\x00\x00\x00Deployment Recipes'
tRp4002
I00
S'http://www.web2py.com/book/default/chapter/13'
p4003
tp4004
a(g3539
(S's\r\x00\x00\x00Other Recipes'
tRp4005
I00
S'http://www.web2py.com/book/default/chapter/14'
p4006
tp4007
a(g3539
(S's\r\x00\x00\x00Buy this book'
tRp4008
I00
S'http://stores.lulu.com/web2py'
p4009
tp4010
aasbasbasbasbasbasbasbag57
(g73
g59
NtRp4011
(dp4012
g62
(dp4013
sg71
g3653
sg64
(lp4014
g57
(g78
g59
NtRp4015
(dp4016
g62
(dp4017
sg71
g4011
sg64
(lp4018
g57
(g58
g59
NtRp4019
(dp4020
g62
(dp4021
g70
I2
ssg71
g4015
sg64
(lp4022
g57
(g66
g59
NtRp4023
(dp4024
g62
(dp4025
g70
I1
ssg71
Nsg64
(lp4026
g57
(g73
g59
NtRp4027
(dp4028
g62
(dp4029
sg71
g4023
sg64
(lp4030
g57
(g78
g59
NtRp4031
(dp4032
g62
(dp4033
sg71
g4027
sg64
(lp4034
g57
(g58
g59
NtRp4035
(dp4036
g62
(dp4037
g70
I1
ssg71
g4031
sg64
(lp4038
g3539
(S't\t\x00\x00\x00Community'
tRp4039
asbasbasbag57
(g73
g59
NtRp4040
(dp4041
g62
(dp4042
sg71
g4023
sg64
(lp4043
g57
(g78
g59
NtRp4044
(dp4045
g62
(dp4046
sg71
g4040
sg64
(lp4047
g57
(g58
g59
NtRp4048
(dp4049
g62
(dp4050
g70
I1
ssg71
g4044
sg64
(lp4051
I00
asbasbasbag57
(g73
g59
NtRp4052
(dp4053
g62
(dp4054
sg71
g4023
sg64
(lp4055
g57
(g78
g59
NtRp4056
(dp4057
g62
(dp4058
sg71
g4052
sg64
(lp4059
g57
(g58
g59
NtRp4060
(dp4061
g62
(dp4062
g70
I1
ssg71
g4056
sg64
(lp4063
Nasbasbasbag57
(g73
g59
NtRp4064
(dp4065
g62
(dp4066
sg71
g4023
sg64
(lp4067
g57
(g78
g59
NtRp4068
(dp4069
g62
(dp4070
sg71
g4064
sg64
(lp4071
g57
(g58
g59
NtRp4072
(dp4073
g62
(dp4074
g70
I1
ssg71
g4068
sg64
(lp4075
(lp4076
(g3539
(S't\x06\x00\x00\x00Groups'
tRp4077
I00
S'http://www.web2py.com/examples/default/usergroups'
p4078
tp4079
a(g3539
(S't\x07\x00\x00\x00Twitter'
tRp4080
I00
S'http://twitter.com/web2py'
p4081
tp4082
a(g3539
(S's\t\x00\x00\x00Live Chat'
tRp4083
I00
S'http://webchat.freenode.net/?channels=web2py'
p4084
tp4085
aasbasbasbasbasbasbasbag57
(g73
g59
NtRp4086
(dp4087
g62
(dp4088
sg71
g3653
sg64
(lp4089
g57
(g78
g59
NtRp4090
(dp4091
g62
(dp4092
sg71
g4086
sg64
(lp4093
g57
(g58
g59
NtRp4094
(dp4095
g62
(dp4096
g70
I2
ssg71
g4090
sg64
(lp4097
g57
(g66
g59
NtRp4098
(dp4099
g62
(dp4100
g70
I1
ssg71
Nsg64
(lp4101
g57
(g73
g59
NtRp4102
(dp4103
g62
(dp4104
sg71
g4098
sg64
(lp4105
g57
(g78
g59
NtRp4106
(dp4107
g62
(dp4108
sg71
g4102
sg64
(lp4109
g57
(g58
g59
NtRp4110
(dp4111
g62
(dp4112
g70
I1
ssg71
g4106
sg64
(lp4113
g3539
(S't\x07\x00\x00\x00Plugins'
tRp4114
asbasbasbag57
(g73
g59
NtRp4115
(dp4116
g62
(dp4117
sg71
g4098
sg64
(lp4118
g57
(g78
g59
NtRp4119
(dp4120
g62
(dp4121
sg71
g4115
sg64
(lp4122
g57
(g58
g59
NtRp4123
(dp4124
g62
(dp4125
g70
I1
ssg71
g4119
sg64
(lp4126
I00
asbasbasbag57
(g73
g59
NtRp4127
(dp4128
g62
(dp4129
sg71
g4098
sg64
(lp4130
g57
(g78
g59
NtRp4131
(dp4132
g62
(dp4133
sg71
g4127
sg64
(lp4134
g57
(g58
g59
NtRp4135
(dp4136
g62
(dp4137
g70
I1
ssg71
g4131
sg64
(lp4138
Nasbasbasbag57
(g73
g59
NtRp4139
(dp4140
g62
(dp4141
sg71
g4098
sg64
(lp4142
g57
(g78
g59
NtRp4143
(dp4144
g62
(dp4145
sg71
g4139
sg64
(lp4146
g57
(g58
g59
NtRp4147
(dp4148
g62
(dp4149
g70
I1
ssg71
g4143
sg64
(lp4150
(lp4151
(S'plugin_wiki'
p4152
I00
S'http://web2py.com/examples/default/download'
p4153
tp4154
a(g3539
(S's\r\x00\x00\x00Other Plugins'
tRp4155
I00
g3885
tp4156
a(g3539
(S's\x0e\x00\x00\x00Layout Plugins'
tRp4157
I00
g3888
tp4158
aasbasbasbasbasbasbasbasbasbasbasbasbasbasbasbasbasbasbasbag57
(g73
g59
NtRp4159
(dp4160
g62
(dp4161
sg71
g3034
sg64
(lp4162
g57
(g78
g59
NtRp4163
(dp4164
g62
(dp4165
g82
g83
ssg71
g4159
sg64
(lp4166
S'meta'
p4167
asbag57
(g78
g59
NtRp4168
(dp4169
g62
(dp4170
g89
g90
ssg71
g4159
sg64
(lp4171
S':'
asbag57
(g78
g59
NtRp4172
(dp4173
g62
(dp4174
sg71
g4159
sg64
(lp4175
g57
(g58
g59
NtRp4176
(dp4177
g62
(dp4178
g70
I5
ssg71
g4172
sg64
(lp4179
g57
(g66
g59
NtRp4180
(dp4181
g62
(dp4182
g70
I4
ssg71
Nsg64
(lp4183
g57
(g73
g59
NtRp4184
(dp4185
g62
(dp4186
sg71
g4180
sg64
(lp4187
g57
(g78
g59
NtRp4188
(dp4189
g62
(dp4190
g82
g83
ssg71
g4184
sg64
(lp4191
S'author'
p4192
asbag57
(g78
g59
NtRp4193
(dp4194
g62
(dp4195
g89
g90
ssg71
g4184
sg64
(lp4196
S':'
asbag57
(g78
g59
NtRp4197
(dp4198
g62
(dp4199
sg71
g4184
sg64
(lp4200
g57
(g58
g59
NtRp4201
(dp4202
g62
(dp4203
g70
I4
ssg71
g4197
sg64
(lp4204
S'Your Name <you@example.com>'
p4205
asbasbasbag57
(g73
g59
NtRp4206
(dp4207
g62
(dp4208
sg71
g4180
sg64
(lp4209
g57
(g78
g59
NtRp4210
(dp4211
g62
(dp4212
g82
g83
ssg71
g4206
sg64
(lp4213
S'copyright'
p4214
asbag57
(g78
g59
NtRp4215
(dp4216
g62
(dp4217
g89
g90
ssg71
g4206
sg64
(lp4218
S':'
asbag57
(g78
g59
NtRp4219
(dp4220
g62
(dp4221
sg71
g4206
sg64
(lp4222
g57
(g58
g59
NtRp4223
(dp4224
g62
(dp4225
g70
I4
ssg71
g4219
sg64
(lp4226
S'Copyright 2011'
p4227
asbasbasbag57
(g73
g59
NtRp4228
(dp4229
g62
(dp4230
sg71
g4180
sg64
(lp4231
g57
(g78
g59
NtRp4232
(dp4233
g62
(dp4234
g82
g83
ssg71
g4228
sg64
(lp4235
S'description'
p4236
asbag57
(g78
g59
NtRp4237
(dp4238
g62
(dp4239
g89
g90
ssg71
g4228
sg64
(lp4240
S':'
asbag57
(g78
g59
NtRp4241
(dp4242
g62
(dp4243
sg71
g4228
sg64
(lp4244
g57
(g58
g59
NtRp4245
(dp4246
g62
(dp4247
g70
I4
ssg71
g4241
sg64
(lp4248
S'a cool new app'
p4249
asbasbasbag57
(g73
g59
NtRp4250
(dp4251
g62
(dp4252
sg71
g4180
sg64
(lp4253
g57
(g78
g59
NtRp4254
(dp4255
g62
(dp4256
g82
g83
ssg71
g4250
sg64
(lp4257
S'generator'
p4258
asbag57
(g78
g59
NtRp4259
(dp4260
g62
(dp4261
g89
g90
ssg71
g4250
sg64
(lp4262
S':'
asbag57
(g78
g59
NtRp4263
(dp4264
g62
(dp4265
sg71
g4250
sg64
(lp4266
g57
(g58
g59
NtRp4267
(dp4268
g62
(dp4269
g70
I4
ssg71
g4263
sg64
(lp4270
S'Web2py Web Framework'
p4271
asbasbasbag57
(g73
g59
NtRp4272
(dp4273
g62
(dp4274
sg71
g4180
sg64
(lp4275
g57
(g78
g59
NtRp4276
(dp4277
g62
(dp4278
g82
g83
ssg71
g4272
sg64
(lp4279
S'keywords'
p4280
asbag57
(g78
g59
NtRp4281
(dp4282
g62
(dp4283
g89
g90
ssg71
g4272
sg64
(lp4284
S':'
asbag57
(g78
g59
NtRp4285
(dp4286
g62
(dp4287
sg71
g4272
sg64
(lp4288
g57
(g58
g59
NtRp4289
(dp4290
g62
(dp4291
g70
I4
ssg71
g4285
sg64
(lp4292
S'web2py, python, framework'
p4293
asbasbasbasbasbasbasbag57
(g73
g59
NtRp4294
(dp4295
g62
(dp4296
sg71
g3034
sg64
(lp4297
g57
(g78
g59
NtRp4298
(dp4299
g62
(dp4300
g82
g83
ssg71
g4294
sg64
(lp4301
S'postprocessing'
p4302
asbag57
(g78
g59
NtRp4303
(dp4304
g62
(dp4305
g89
g90
ssg71
g4294
sg64
(lp4306
S':'
asbag57
(g78
g59
NtRp4307
(dp4308
g62
(dp4309
sg71
g4294
sg64
(lp4310
g57
(g58
g59
NtRp4311
(dp4312
g62
(dp4313
g70
I5
ssg71
g4307
sg64
(lp4314
g57
(g66
g59
NtRp4315
(dp4316
g62
(dp4317
g70
I4
ssg71
Nsg64
(lp4318
sbasbasbasbag57
(g73
g59
NtRp4319
(dp4320
g62
(dp4321
sg71
g3034
sg64
(lp4322
g57
(g78
g59
NtRp4323
(dp4324
g62
(dp4325
g82
g83
ssg71
g4319
sg64
(lp4326
S'session_filename'
p4327
asbag57
(g78
g59
NtRp4328
(dp4329
g62
(dp4330
g89
g90
ssg71
g4319
sg64
(lp4331
S':'
asbag57
(g78
g59
NtRp4332
(dp4333
g62
(dp4334
sg71
g4319
sg64
(lp4335
g57
(g58
g59
NtRp4336
(dp4337
g62
(dp4338
g70
I5
ssg71
g4332
sg64
(lp4339
S'/home/prateek/web2py/applications/phyloShiny/sessions/127.0.0.1-f252f34f-8e2e-41db-ad7d-ce0b83cabd3f'
p4340
asbasbasbag57
(g73
g59
NtRp4341
(dp4342
g62
(dp4343
sg71
g3034
sg64
(lp4344
g57
(g78
g59
NtRp4345
(dp4346
g62
(dp4347
g82
g83
ssg71
g4341
sg64
(lp4348
S'session_id'
p4349
asbag57
(g78
g59
NtRp4350
(dp4351
g62
(dp4352
g89
g90
ssg71
g4341
sg64
(lp4353
S':'
asbag57
(g78
g59
NtRp4354
(dp4355
g62
(dp4356
sg71
g4341
sg64
(lp4357
g57
(g58
g59
NtRp4358
(dp4359
g62
(dp4360
g70
I5
ssg71
g4354
sg64
(lp4361
S'127.0.0.1-f252f34f-8e2e-41db-ad7d-ce0b83cabd3f'
p4362
asbasbasbag57
(g73
g59
NtRp4363
(dp4364
g62
(dp4365
sg71
g3034
sg64
(lp4366
g57
(g78
g59
NtRp4367
(dp4368
g62
(dp4369
g82
g83
ssg71
g4363
sg64
(lp4370
S'session_id_name'
p4371
asbag57
(g78
g59
NtRp4372
(dp4373
g62
(dp4374
g89
g90
ssg71
g4363
sg64
(lp4375
S':'
asbag57
(g78
g59
NtRp4376
(dp4377
g62
(dp4378
sg71
g4363
sg64
(lp4379
g57
(g58
g59
NtRp4380
(dp4381
g62
(dp4382
g70
I5
ssg71
g4376
sg64
(lp4383
g3091
asbasbasbag57
(g73
g59
NtRp4384
(dp4385
g62
(dp4386
sg71
g3034
sg64
(lp4387
g57
(g78
g59
NtRp4388
(dp4389
g62
(dp4390
g82
g83
ssg71
g4384
sg64
(lp4391
S'session_new'
p4392
asbag57
(g78
g59
NtRp4393
(dp4394
g62
(dp4395
g89
g90
ssg71
g4384
sg64
(lp4396
S':'
asbag57
(g78
g59
NtRp4397
(dp4398
g62
(dp4399
sg71
g4384
sg64
(lp4400
g57
(g58
g59
NtRp4401
(dp4402
g62
(dp4403
g70
I5
ssg71
g4397
sg64
(lp4404
g100
asbasbasbag57
(g73
g59
NtRp4405
(dp4406
g62
(dp4407
sg71
g3034
sg64
(lp4408
g57
(g78
g59
NtRp4409
(dp4410
g62
(dp4411
g82
g83
ssg71
g4405
sg64
(lp4412
S'status'
p4413
asbag57
(g78
g59
NtRp4414
(dp4415
g62
(dp4416
g89
g90
ssg71
g4405
sg64
(lp4417
S':'
asbag57
(g78
g59
NtRp4418
(dp4419
g62
(dp4420
sg71
g4405
sg64
(lp4421
g57
(g58
g59
NtRp4422
(dp4423
g62
(dp4424
g70
I5
ssg71
g4418
sg64
(lp4425
S'200'
p4426
asbasbasbag57
(g73
g59
NtRp4427
(dp4428
g62
(dp4429
sg71
g3034
sg64
(lp4430
g57
(g78
g59
NtRp4431
(dp4432
g62
(dp4433
g82
g83
ssg71
g4427
sg64
(lp4434
S'subtitle'
p4435
asbag57
(g78
g59
NtRp4436
(dp4437
g62
(dp4438
g89
g90
ssg71
g4427
sg64
(lp4439
S':'
asbag57
(g78
g59
NtRp4440
(dp4441
g62
(dp4442
sg71
g4427
sg64
(lp4443
g57
(g58
g59
NtRp4444
(dp4445
g62
(dp4446
g70
I5
ssg71
g4440
sg64
(lp4447
g3539
(S's\r\x00\x00\x00customize me!'
tRp4448
asbasbasbag57
(g73
g59
NtRp4449
(dp4450
g62
(dp4451
sg71
g3034
sg64
(lp4452
g57
(g78
g59
NtRp4453
(dp4454
g62
(dp4455
g82
g83
ssg71
g4449
sg64
(lp4456
S'title'
p4457
asbag57
(g78
g59
NtRp4458
(dp4459
g62
(dp4460
g89
g90
ssg71
g4449
sg64
(lp4461
S':'
asbag57
(g78
g59
NtRp4462
(dp4463
g62
(dp4464
sg71
g4449
sg64
(lp4465
g57
(g58
g59
NtRp4466
(dp4467
g62
(dp4468
g70
I5
ssg71
g4462
sg64
(lp4469
S'Phyloshiny'
p4470
asbasbasbag57
(g73
g59
NtRp4471
(dp4472
g62
(dp4473
sg71
g3034
sg64
(lp4474
g57
(g78
g59
NtRp4475
(dp4476
g62
(dp4477
g82
g83
ssg71
g4471
sg64
(lp4478
g2180
asbag57
(g78
g59
NtRp4479
(dp4480
g62
(dp4481
g89
g90
ssg71
g4471
sg64
(lp4482
S':'
asbag57
(g78
g59
NtRp4483
(dp4484
g62
(dp4485
sg71
g4471
sg64
(lp4486
g57
(g58
g59
NtRp4487
(dp4488
g62
(dp4489
g70
I5
ssg71
g4483
sg64
(lp4490
g2193
asbasbasbag57
(g73
g59
NtRp4491
(dp4492
g62
(dp4493
sg71
g3034
sg64
(lp4494
g57
(g78
g59
NtRp4495
(dp4496
g62
(dp4497
g82
g83
ssg71
g4491
sg64
(lp4498
S'view'
p4499
asbag57
(g78
g59
NtRp4500
(dp4501
g62
(dp4502
g89
g90
ssg71
g4491
sg64
(lp4503
S':'
asbag57
(g78
g59
NtRp4504
(dp4505
g62
(dp4506
sg71
g4491
sg64
(lp4507
g57
(g58
g59
NtRp4508
(dp4509
g62
(dp4510
g70
I5
ssg71
g4504
sg64
(lp4511
S'reconciliotastic/getPhylotasticTree.html'
p4512
asbasbasbasbasbsS'locals'
p4513
(dp4514
S'fromlist'
p4515
S'[]'
p4516
sS'name'
p4517
S"'applications.phyloShiny.modules.Bio'"
p4518
sg70
S'-1'
p4519
sS'self'
p4520
S'<gluon.custom_import._Web2pyImporter object>'
p4521
sS'globals'
p4522
g45
sg4513
g45
sssS'traceback'
p4523
S'Traceback (most recent call last):\n  File "/usr/lib/pymodules/python2.7/gluon/restricted.py", line 204, in restricted\n    exec ccode in environment\n  File "/home/prateek/web2py/applications/phyloShiny/controllers/reconciliotastic.py", line 180, in <module>\n  File "/usr/lib/pymodules/python2.7/gluon/globals.py", line 172, in <lambda>\n    self._caller = lambda f: f()\n  File "/home/prateek/web2py/applications/phyloShiny/controllers/reconciliotastic.py", line 126, in getPhylotasticTree\n    mymodule = local_import(\'Bio\')\n  File "/usr/lib/pymodules/python2.7/gluon/compileapp.py", line 370, in <lambda>\n    local_import_aux(name,reload,app)\n  File "/usr/lib/pymodules/python2.7/gluon/compileapp.py", line 289, in local_import_aux\n    module = __import__(name)\n  File "/usr/lib/pymodules/python2.7/gluon/custom_import.py", line 293, in __call__\n    fromlist, level)\n  File "/usr/lib/pymodules/python2.7/gluon/custom_import.py", line 78, in __call__\n    level)\nImportError: No module named phyloShiny.modules.Bio\n'
p4524
s.