(dp1
S'output'
p2
S"<type 'exceptions.SyntaxError'> invalid syntax (reconciliotastic.py, line 15)"
p3
sS'layer'
p4
S'/home/prateek/web2py/applications/phyloShiny/controllers/reconciliotastic.py'
p5
sS'code'
p6
S'# -*- coding: utf-8 -*-\n# this file is released under public domain and you can use without limitations\n\n#########################################################################\n## This is a sample controller\n## - index is the default action of any application\n## - user is required for authentication and authorization\n## - download is for downloading files uploaded in the db (does streaming)\n## - call exposes all registered services (none by default)\n#########################################################################\nimport os\nimport socket\nimport urllib2\nfrom gluon import *\nimport Bio import Phylo\t\nimport Bio.Phylo import Newick\t\t\t\t\t \t\t#import biopython modules as per requirement \n\ndef index():\n    rootFolder = current.request.folder\n    folders = os.listdir(rootFolder+\'static/sample_data/\')\n\n    # Go through the subfolders within sample_data, only keep folders\n    # that match \'demo\'\n    folders = [x.split(\'_\',1)[1] for x in folders if x.split(\'_\')[0] == \'demo\']\n    folderLabels = [x.replace(\'_\', \' \') for x in folders]\n\n    # Return a list of tuples, like [ [\'Mammal_Hemoglobin\', \'Mammal Hemoglobin\'] , ... ]\n    # This lets us have nice display names in the <select> element in the view.\n    foldersAndLabels = zip(folders, folderLabels)\n    return dict(foldersAndLabels=foldersAndLabels)\n\ndef getFileName():\n    # Returns the absolute filename for the "input" gene tree\n    # file. Uses the treeFileName request parameter, as that\'s our\n    # main state-tracking value passed between the view and controller\n    # between each step.\n    rootFolder = current.request.folder\n    absoluteFileName = rootFolder+current.request.vars.treeFileName\n    return absoluteFileName\n\ndef getRelativeWebPath(suffix):\n    # Currently a no-op.\n    return suffix\n\ndef visualize():\n    # Visualize controller. Does some preprocessing before generating\n    # the HTML for viewing a given tree.\n\n    # Takes in the \'treeName\' and \'file\' params, and creates the URL\n    # which can be used to access / download the given tree file. This\n    # is only really necessary because the <applet> tag requires a\n    # parameter, which is then sent to Archaeopteryx, that requires\n    # the *entire* URL of the tree to load. With a non-applet based\n    # visualization this wouldn\'t be an issue.\n    treeFile = current.request.vars.treeName\n    suffix = current.request.vars.file\n\n    # Use the request http_host.\n    hostname = current.request.env.http_host\n\n    # Toggle to phylotastic URL if we detect a NESCENT socket host.\n    socket_hostname = socket.gethostname()\n    if \'phylotastic\' in socket_hostname.lower():\n        hostname = \'phylotastic.nescent.org\'\n\n    treeUrl = URL(\'static\', \'sample_data/demo_\'+treeFile+\'/input_genetree.nwk\'+suffix,\n                 scheme=\'http\', host=hostname)\n\n    return dict(treeUrl=treeUrl,\n                header=current.request.vars.header)\n\ndef getSpeciesList():\n    # Absolute file name of the input tree file.\n    absoluteFileName = getFileName()\n    # "Prefix", i.e. the input tree file without the ending\n    # \'.txt\'. This is used as the prefix for all generated output\n    # files\n    filePrefix = absoluteFileName[:-4]\n\n    shellCall = \'java -Xmx1024m -cp \'\n    shellCall += current.request.folder+\'static/lib/forester.jar \'\n    shellCall += \'org.forester.application.gene_tree_preprocess \'\n    shellCall += absoluteFileName\n    os.system(shellCall)\n\n    removedNodes = [l.strip() for l in open(filePrefix+\'_removed_nodes.txt\').readlines()]\n    keptNodes = [l.strip() for l in open(filePrefix+\'_species_present.txt\').readlines()]\n    \n    geneTreeFile = getRelativeWebPath(\'_preprocessed_gene_tree.phylo.xml\')\n\n    # Note: we always return the \'vizFile\' and \'vizLabel\' data values\n    # from each Ajax call, as they\'re used consistently by the\n    # front-end to generate visualization links.\n    return response.json( dict(vizFile = geneTreeFile,\n                               vizLabel = "Input Gene Tree",\n                               removedNodes = removedNodes, \n                               keptNodes = keptNodes))\n\ndef getPhylotasticTree():\n    absoluteFileName = getFileName()\n    filePrefix = absoluteFileName[:-4]\n\n    # Load the kept nodes and create the comma-delimited species\n    # string for sending to PTastic\n    speciesList = [l.strip() for l in open(filePrefix+\'_species_present.txt\').readlines()]\n    # Need underscores instead of spaces\n    speciesList = [x.replace(\' \', \'_\') for x in speciesList]\n    speciesString = \',\'.join(speciesList)\n\n    phylotasticUrlBase = \'http://phylotastic-wg.nescent.org/script/phylotastic.cgi?species=\'\n    speciesTreeUrl = phylotasticUrlBase+speciesString+\'&tree=mammals&format=newick\'\n    conn = urllib2.urlopen(speciesTreeUrl)\n    speciesTreeString = conn.read()\n    speciesTreeString = speciesTreeString.strip()\n\n    speciesTreeFilename = filePrefix+\'_species_tree.txt\'\n    open(speciesTreeFilename,\'w\').write(speciesTreeString)\n\n    # TODO: It would be nice here to count the number of species in\n    # the returned species tree, so we can let users know if PTastic\n    # found everything we searched for. This would require parsing the\n    # Newick and counting nodes, probably using something like\n    # BioPython rather than making an external call to Java again.\n    \n    got_nodes=countnodes()\n    #no. of non-terminal nodes received in got_nodes.Now can be printed or checked with user input value to test if all species received.\n    #then further we can maintain a textview in the frontend indicating the number of nodes(i.e. the number of species)\n\n    speciesTreeWebFile = getRelativeWebPath(\'_species_tree.txt\')\n\n    return response.json( dict(vizFile = speciesTreeWebFile,\n                               vizLabel = "Phylotastic Species Tree",\n\t\t\t       got_nodes=got_nodes\n                               ) )\n\ndef countnodes():\n\n    #setting a counter for counting nodes i.e.number of species in the species newick tree.\n    #I have referenced the link http://biopython.org/DIST/docs/tutorial/Tutorial.html#htoc182 to know the get_terminals() function\n\n    count=0\t\t\t\t\t\t\t\t\t#global counter to keep the count of the nodes\n    tree = Phylo.read("speciesTreeFilename", "newick")\t\t\t\t#tree reads the species labels in newick format\n    for node in tree.get_terminals(): \t\t\t\t\t#loop to traverse through these nodes\n\t    count+=1\t\t\t\t\t\t\t\t\t#updating counter value\n    return count\t\t\t\t\t\t\t\t#counter value return\n\n\ndef reconcileTrees():\n    absoluteFileName = getFileName()\n    filePrefix = absoluteFileName[:-4]\n\n    geneTreeFile = filePrefix+\'_preprocessed_gene_tree.phylo.xml\'\n    speciesTreeFile = filePrefix+\'_species_tree.txt\'\n\n    shellCall = \'java -Xmx1024m -cp \'\n    shellCall += current.request.folder+\'static/lib/forester.jar \'\n    shellCall += \'org.forester.application.gsdi \'\n    shellCall += \'-m -q \'\n    shellCall += geneTreeFile\n    shellCall += \' \'+speciesTreeFile\n\n    os.system(shellCall)\n    \n    reconciledTreeWebFile = getRelativeWebPath(\'_preprocessed_gene_tree.phylo_gsdi_out.phylo.xml\')\n    \n    return response.json( dict(vizFile = reconciledTreeWebFile,\n                               vizLabel = "Reconciled Tree (red=duplication, green=speciation)"\n                               ) )\n\nresponse._vars=response._caller(index)\n'
p7
sS'snapshot'
p8
(dp9
S'exception'
p10
(dp11
S'__getslice__'
p12
S"<method-wrapper '__getslice__' of exceptions.SyntaxError object>"
p13
sS'text'
p14
S"'import Bio import Phylo\\t\\n'"
p15
sS'__str__'
p16
S"<method-wrapper '__str__' of exceptions.SyntaxError object>"
p17
sS'__reduce__'
p18
S'<built-in method __reduce__ of exceptions.SyntaxError object>'
p19
sS'__dict__'
p20
S'{}'
p21
sS'__sizeof__'
p22
S'<built-in method __sizeof__ of exceptions.SyntaxError object>'
p23
sS'__init__'
p24
S"<method-wrapper '__init__' of exceptions.SyntaxError object>"
p25
sS'__setattr__'
p26
S"<method-wrapper '__setattr__' of exceptions.SyntaxError object>"
p27
sS'__reduce_ex__'
p28
S'<built-in method __reduce_ex__ of exceptions.SyntaxError object>'
p29
sS'__new__'
p30
S'<built-in method __new__ of type object>'
p31
sS'__format__'
p32
S'<built-in method __format__ of exceptions.SyntaxError object>'
p33
sS'__class__'
p34
S"<type 'exceptions.SyntaxError'>"
p35
sS'filename'
p36
S"'/home/prateek/web2py/applications/phyloShiny/controllers/reconciliotastic.py'"
p37
sS'lineno'
p38
S'15'
p39
sS'msg'
p40
S"'invalid syntax'"
p41
sS'__doc__'
p42
S"'Invalid syntax.'"
p43
sS'__getitem__'
p44
S"<method-wrapper '__getitem__' of exceptions.SyntaxError object>"
p45
sS'__setstate__'
p46
S'<built-in method __setstate__ of exceptions.SyntaxError object>'
p47
sS'__getattribute__'
p48
S"<method-wrapper '__getattribute__' of exceptions.SyntaxError object>"
p49
sS'print_file_and_line'
p50
S'None'
p51
sS'args'
p52
S"('invalid syntax', ('/home/prateek/web2py/applications/phyloShiny/controllers/reconciliotastic.py', 15, 17, 'import Bio import Phylo\\t\\n'))"
p53
sS'__subclasshook__'
p54
S'<built-in method __subclasshook__ of type object>'
p55
sS'offset'
p56
S'17'
p57
sS'__unicode__'
p58
S'<built-in method __unicode__ of exceptions.SyntaxError object>'
p59
sS'__delattr__'
p60
S"<method-wrapper '__delattr__' of exceptions.SyntaxError object>"
p61
sS'__repr__'
p62
S"<method-wrapper '__repr__' of exceptions.SyntaxError object>"
p63
sS'__hash__'
p64
S"<method-wrapper '__hash__' of exceptions.SyntaxError object>"
p65
ssS'evalue'
p66
S'invalid syntax (reconciliotastic.py, line 15)'
p67
sS'request'
p68
ccopy_reg
_reconstructor
p69
(cgluon.html
BEAUTIFY
p70
c__builtin__
object
p71
NtRp72
(dp73
S'attributes'
p74
(dp75
sS'components'
p76
(lp77
g69
(cgluon.html
TABLE
p78
g71
NtRp79
(dp80
g74
(dp81
S'level'
p82
I5
ssS'parent'
p83
Nsg76
(lp84
g69
(cgluon.html
TR
p85
g71
NtRp86
(dp87
g74
(dp88
sg83
g79
sg76
(lp89
g69
(cgluon.html
TD
p90
g71
NtRp91
(dp92
g74
(dp93
S'_style'
p94
S'font-weight:bold;vertical-align:top'
p95
ssg83
g86
sg76
(lp96
S'ajax'
p97
asbag69
(g90
g71
NtRp98
(dp99
g74
(dp100
S'_valign'
p101
S'top'
p102
ssg83
g86
sg76
(lp103
S':'
asbag69
(g90
g71
NtRp104
(dp105
g74
(dp106
sg83
g86
sg76
(lp107
g69
(g70
g71
NtRp108
(dp109
g74
(dp110
g82
I5
ssg83
g104
sg76
(lp111
S'False'
p112
asbasbasbag69
(g85
g71
NtRp113
(dp114
g74
(dp115
sg83
g79
sg76
(lp116
g69
(g90
g71
NtRp117
(dp118
g74
(dp119
g94
g95
ssg83
g113
sg76
(lp120
S'application'
p121
asbag69
(g90
g71
NtRp122
(dp123
g74
(dp124
g101
g102
ssg83
g113
sg76
(lp125
S':'
asbag69
(g90
g71
NtRp126
(dp127
g74
(dp128
sg83
g113
sg76
(lp129
g69
(g70
g71
NtRp130
(dp131
g74
(dp132
g82
I5
ssg83
g126
sg76
(lp133
S'phyloShiny'
p134
asbasbasbag69
(g85
g71
NtRp135
(dp136
g74
(dp137
sg83
g79
sg76
(lp138
g69
(g90
g71
NtRp139
(dp140
g74
(dp141
g94
g95
ssg83
g135
sg76
(lp142
g52
asbag69
(g90
g71
NtRp143
(dp144
g74
(dp145
g101
g102
ssg83
g135
sg76
(lp146
S':'
asbag69
(g90
g71
NtRp147
(dp148
g74
(dp149
sg83
g135
sg76
(lp150
g69
(g70
g71
NtRp151
(dp152
g74
(dp153
g82
I5
ssg83
g147
sg76
(lp154
g69
(g78
g71
NtRp155
(dp156
g74
(dp157
g82
I4
ssg83
Nsg76
(lp158
sbasbasbasbag69
(g85
g71
NtRp159
(dp160
g74
(dp161
sg83
g79
sg76
(lp162
g69
(g90
g71
NtRp163
(dp164
g74
(dp165
g94
g95
ssg83
g159
sg76
(lp166
S'body'
p167
asbag69
(g90
g71
NtRp168
(dp169
g74
(dp170
g101
g102
ssg83
g159
sg76
(lp171
S':'
asbag69
(g90
g71
NtRp172
(dp173
g74
(dp174
sg83
g159
sg76
(lp175
g69
(g70
g71
NtRp176
(dp177
g74
(dp178
g82
I5
ssg83
g172
sg76
(lp179
S'<cStringIO.StringO object at 0xaaea0be0>'
p180
asbasbasbag69
(g85
g71
NtRp181
(dp182
g74
(dp183
sg83
g79
sg76
(lp184
g69
(g90
g71
NtRp185
(dp186
g74
(dp187
g94
g95
ssg83
g181
sg76
(lp188
S'client'
p189
asbag69
(g90
g71
NtRp190
(dp191
g74
(dp192
g101
g102
ssg83
g181
sg76
(lp193
S':'
asbag69
(g90
g71
NtRp194
(dp195
g74
(dp196
sg83
g181
sg76
(lp197
g69
(g70
g71
NtRp198
(dp199
g74
(dp200
g82
I5
ssg83
g194
sg76
(lp201
S'127.0.0.1'
p202
asbasbasbag69
(g85
g71
NtRp203
(dp204
g74
(dp205
sg83
g79
sg76
(lp206
g69
(g90
g71
NtRp207
(dp208
g74
(dp209
g94
g95
ssg83
g203
sg76
(lp210
S'controller'
p211
asbag69
(g90
g71
NtRp212
(dp213
g74
(dp214
g101
g102
ssg83
g203
sg76
(lp215
S':'
asbag69
(g90
g71
NtRp216
(dp217
g74
(dp218
sg83
g203
sg76
(lp219
g69
(g70
g71
NtRp220
(dp221
g74
(dp222
g82
I5
ssg83
g216
sg76
(lp223
S'reconciliotastic'
p224
asbasbasbag69
(g85
g71
NtRp225
(dp226
g74
(dp227
sg83
g79
sg76
(lp228
g69
(g90
g71
NtRp229
(dp230
g74
(dp231
g94
g95
ssg83
g225
sg76
(lp232
S'cookies'
p233
asbag69
(g90
g71
NtRp234
(dp235
g74
(dp236
g101
g102
ssg83
g225
sg76
(lp237
S':'
asbag69
(g90
g71
NtRp238
(dp239
g74
(dp240
sg83
g225
sg76
(lp241
g69
(g70
g71
NtRp242
(dp243
g74
(dp244
g82
I5
ssg83
g238
sg76
(lp245
g69
(g78
g71
NtRp246
(dp247
g74
(dp248
g82
I4
ssg83
Nsg76
(lp249
g69
(g85
g71
NtRp250
(dp251
g74
(dp252
sg83
g246
sg76
(lp253
g69
(g90
g71
NtRp254
(dp255
g74
(dp256
g94
g95
ssg83
g250
sg76
(lp257
S'session_id_admin'
p258
asbag69
(g90
g71
NtRp259
(dp260
g74
(dp261
g101
g102
ssg83
g250
sg76
(lp262
S':'
asbag69
(g90
g71
NtRp263
(dp264
g74
(dp265
sg83
g250
sg76
(lp266
g69
(g70
g71
NtRp267
(dp268
g74
(dp269
g82
I4
ssg83
g263
sg76
(lp270
g69
(g78
g71
NtRp271
(dp272
g74
(dp273
g82
I3
ssg83
Nsg76
(lp274
g69
(g85
g71
NtRp275
(dp276
g74
(dp277
sg83
g271
sg76
(lp278
g69
(g90
g71
NtRp279
(dp280
g74
(dp281
g94
g95
ssg83
g275
sg76
(lp282
S'comment'
p283
asbag69
(g90
g71
NtRp284
(dp285
g74
(dp286
g101
g102
ssg83
g275
sg76
(lp287
S':'
asbag69
(g90
g71
NtRp288
(dp289
g74
(dp290
sg83
g275
sg76
(lp291
g69
(g70
g71
NtRp292
(dp293
g74
(dp294
g82
I3
ssg83
g288
sg76
(lp295
S''
asbasbasbag69
(g85
g71
NtRp296
(dp297
g74
(dp298
sg83
g271
sg76
(lp299
g69
(g90
g71
NtRp300
(dp301
g74
(dp302
g94
g95
ssg83
g296
sg76
(lp303
S'domain'
p304
asbag69
(g90
g71
NtRp305
(dp306
g74
(dp307
g101
g102
ssg83
g296
sg76
(lp308
S':'
asbag69
(g90
g71
NtRp309
(dp310
g74
(dp311
sg83
g296
sg76
(lp312
g69
(g70
g71
NtRp313
(dp314
g74
(dp315
g82
I3
ssg83
g309
sg76
(lp316
S''
asbasbasbag69
(g85
g71
NtRp317
(dp318
g74
(dp319
sg83
g271
sg76
(lp320
g69
(g90
g71
NtRp321
(dp322
g74
(dp323
g94
g95
ssg83
g317
sg76
(lp324
S'expires'
p325
asbag69
(g90
g71
NtRp326
(dp327
g74
(dp328
g101
g102
ssg83
g317
sg76
(lp329
S':'
asbag69
(g90
g71
NtRp330
(dp331
g74
(dp332
sg83
g317
sg76
(lp333
g69
(g70
g71
NtRp334
(dp335
g74
(dp336
g82
I3
ssg83
g330
sg76
(lp337
S''
asbasbasbag69
(g85
g71
NtRp338
(dp339
g74
(dp340
sg83
g271
sg76
(lp341
g69
(g90
g71
NtRp342
(dp343
g74
(dp344
g94
g95
ssg83
g338
sg76
(lp345
S'httponly'
p346
asbag69
(g90
g71
NtRp347
(dp348
g74
(dp349
g101
g102
ssg83
g338
sg76
(lp350
S':'
asbag69
(g90
g71
NtRp351
(dp352
g74
(dp353
sg83
g338
sg76
(lp354
g69
(g70
g71
NtRp355
(dp356
g74
(dp357
g82
I3
ssg83
g351
sg76
(lp358
S''
asbasbasbag69
(g85
g71
NtRp359
(dp360
g74
(dp361
sg83
g271
sg76
(lp362
g69
(g90
g71
NtRp363
(dp364
g74
(dp365
g94
g95
ssg83
g359
sg76
(lp366
S'max-age'
p367
asbag69
(g90
g71
NtRp368
(dp369
g74
(dp370
g101
g102
ssg83
g359
sg76
(lp371
S':'
asbag69
(g90
g71
NtRp372
(dp373
g74
(dp374
sg83
g359
sg76
(lp375
g69
(g70
g71
NtRp376
(dp377
g74
(dp378
g82
I3
ssg83
g372
sg76
(lp379
S''
asbasbasbag69
(g85
g71
NtRp380
(dp381
g74
(dp382
sg83
g271
sg76
(lp383
g69
(g90
g71
NtRp384
(dp385
g74
(dp386
g94
g95
ssg83
g380
sg76
(lp387
S'path'
p388
asbag69
(g90
g71
NtRp389
(dp390
g74
(dp391
g101
g102
ssg83
g380
sg76
(lp392
S':'
asbag69
(g90
g71
NtRp393
(dp394
g74
(dp395
sg83
g380
sg76
(lp396
g69
(g70
g71
NtRp397
(dp398
g74
(dp399
g82
I3
ssg83
g393
sg76
(lp400
S''
asbasbasbag69
(g85
g71
NtRp401
(dp402
g74
(dp403
sg83
g271
sg76
(lp404
g69
(g90
g71
NtRp405
(dp406
g74
(dp407
g94
g95
ssg83
g401
sg76
(lp408
S'secure'
p409
asbag69
(g90
g71
NtRp410
(dp411
g74
(dp412
g101
g102
ssg83
g401
sg76
(lp413
S':'
asbag69
(g90
g71
NtRp414
(dp415
g74
(dp416
sg83
g401
sg76
(lp417
g69
(g70
g71
NtRp418
(dp419
g74
(dp420
g82
I3
ssg83
g414
sg76
(lp421
S''
asbasbasbag69
(g85
g71
NtRp422
(dp423
g74
(dp424
sg83
g271
sg76
(lp425
g69
(g90
g71
NtRp426
(dp427
g74
(dp428
g94
g95
ssg83
g422
sg76
(lp429
S'version'
p430
asbag69
(g90
g71
NtRp431
(dp432
g74
(dp433
g101
g102
ssg83
g422
sg76
(lp434
S':'
asbag69
(g90
g71
NtRp435
(dp436
g74
(dp437
sg83
g422
sg76
(lp438
g69
(g70
g71
NtRp439
(dp440
g74
(dp441
g82
I3
ssg83
g435
sg76
(lp442
S''
asbasbasbasbasbasbasbag69
(g85
g71
NtRp443
(dp444
g74
(dp445
sg83
g246
sg76
(lp446
g69
(g90
g71
NtRp447
(dp448
g74
(dp449
g94
g95
ssg83
g443
sg76
(lp450
S'session_id_phyloshiny'
p451
asbag69
(g90
g71
NtRp452
(dp453
g74
(dp454
g101
g102
ssg83
g443
sg76
(lp455
S':'
asbag69
(g90
g71
NtRp456
(dp457
g74
(dp458
sg83
g443
sg76
(lp459
g69
(g70
g71
NtRp460
(dp461
g74
(dp462
g82
I4
ssg83
g456
sg76
(lp463
g69
(g78
g71
NtRp464
(dp465
g74
(dp466
g82
I3
ssg83
Nsg76
(lp467
g69
(g85
g71
NtRp468
(dp469
g74
(dp470
sg83
g464
sg76
(lp471
g69
(g90
g71
NtRp472
(dp473
g74
(dp474
g94
g95
ssg83
g468
sg76
(lp475
g283
asbag69
(g90
g71
NtRp476
(dp477
g74
(dp478
g101
g102
ssg83
g468
sg76
(lp479
S':'
asbag69
(g90
g71
NtRp480
(dp481
g74
(dp482
sg83
g468
sg76
(lp483
g69
(g70
g71
NtRp484
(dp485
g74
(dp486
g82
I3
ssg83
g480
sg76
(lp487
S''
asbasbasbag69
(g85
g71
NtRp488
(dp489
g74
(dp490
sg83
g464
sg76
(lp491
g69
(g90
g71
NtRp492
(dp493
g74
(dp494
g94
g95
ssg83
g488
sg76
(lp495
g304
asbag69
(g90
g71
NtRp496
(dp497
g74
(dp498
g101
g102
ssg83
g488
sg76
(lp499
S':'
asbag69
(g90
g71
NtRp500
(dp501
g74
(dp502
sg83
g488
sg76
(lp503
g69
(g70
g71
NtRp504
(dp505
g74
(dp506
g82
I3
ssg83
g500
sg76
(lp507
S''
asbasbasbag69
(g85
g71
NtRp508
(dp509
g74
(dp510
sg83
g464
sg76
(lp511
g69
(g90
g71
NtRp512
(dp513
g74
(dp514
g94
g95
ssg83
g508
sg76
(lp515
g325
asbag69
(g90
g71
NtRp516
(dp517
g74
(dp518
g101
g102
ssg83
g508
sg76
(lp519
S':'
asbag69
(g90
g71
NtRp520
(dp521
g74
(dp522
sg83
g508
sg76
(lp523
g69
(g70
g71
NtRp524
(dp525
g74
(dp526
g82
I3
ssg83
g520
sg76
(lp527
S''
asbasbasbag69
(g85
g71
NtRp528
(dp529
g74
(dp530
sg83
g464
sg76
(lp531
g69
(g90
g71
NtRp532
(dp533
g74
(dp534
g94
g95
ssg83
g528
sg76
(lp535
g346
asbag69
(g90
g71
NtRp536
(dp537
g74
(dp538
g101
g102
ssg83
g528
sg76
(lp539
S':'
asbag69
(g90
g71
NtRp540
(dp541
g74
(dp542
sg83
g528
sg76
(lp543
g69
(g70
g71
NtRp544
(dp545
g74
(dp546
g82
I3
ssg83
g540
sg76
(lp547
S''
asbasbasbag69
(g85
g71
NtRp548
(dp549
g74
(dp550
sg83
g464
sg76
(lp551
g69
(g90
g71
NtRp552
(dp553
g74
(dp554
g94
g95
ssg83
g548
sg76
(lp555
g367
asbag69
(g90
g71
NtRp556
(dp557
g74
(dp558
g101
g102
ssg83
g548
sg76
(lp559
S':'
asbag69
(g90
g71
NtRp560
(dp561
g74
(dp562
sg83
g548
sg76
(lp563
g69
(g70
g71
NtRp564
(dp565
g74
(dp566
g82
I3
ssg83
g560
sg76
(lp567
S''
asbasbasbag69
(g85
g71
NtRp568
(dp569
g74
(dp570
sg83
g464
sg76
(lp571
g69
(g90
g71
NtRp572
(dp573
g74
(dp574
g94
g95
ssg83
g568
sg76
(lp575
g388
asbag69
(g90
g71
NtRp576
(dp577
g74
(dp578
g101
g102
ssg83
g568
sg76
(lp579
S':'
asbag69
(g90
g71
NtRp580
(dp581
g74
(dp582
sg83
g568
sg76
(lp583
g69
(g70
g71
NtRp584
(dp585
g74
(dp586
g82
I3
ssg83
g580
sg76
(lp587
S''
asbasbasbag69
(g85
g71
NtRp588
(dp589
g74
(dp590
sg83
g464
sg76
(lp591
g69
(g90
g71
NtRp592
(dp593
g74
(dp594
g94
g95
ssg83
g588
sg76
(lp595
g409
asbag69
(g90
g71
NtRp596
(dp597
g74
(dp598
g101
g102
ssg83
g588
sg76
(lp599
S':'
asbag69
(g90
g71
NtRp600
(dp601
g74
(dp602
sg83
g588
sg76
(lp603
g69
(g70
g71
NtRp604
(dp605
g74
(dp606
g82
I3
ssg83
g600
sg76
(lp607
S''
asbasbasbag69
(g85
g71
NtRp608
(dp609
g74
(dp610
sg83
g464
sg76
(lp611
g69
(g90
g71
NtRp612
(dp613
g74
(dp614
g94
g95
ssg83
g608
sg76
(lp615
g430
asbag69
(g90
g71
NtRp616
(dp617
g74
(dp618
g101
g102
ssg83
g608
sg76
(lp619
S':'
asbag69
(g90
g71
NtRp620
(dp621
g74
(dp622
sg83
g608
sg76
(lp623
g69
(g70
g71
NtRp624
(dp625
g74
(dp626
g82
I3
ssg83
g620
sg76
(lp627
S''
asbasbasbasbasbasbasbasbasbasbasbag69
(g85
g71
NtRp628
(dp629
g74
(dp630
sg83
g79
sg76
(lp631
g69
(g90
g71
NtRp632
(dp633
g74
(dp634
g94
g95
ssg83
g628
sg76
(lp635
S'env'
p636
asbag69
(g90
g71
NtRp637
(dp638
g74
(dp639
g101
g102
ssg83
g628
sg76
(lp640
S':'
asbag69
(g90
g71
NtRp641
(dp642
g74
(dp643
sg83
g628
sg76
(lp644
g69
(g70
g71
NtRp645
(dp646
g74
(dp647
g82
I5
ssg83
g641
sg76
(lp648
g69
(g78
g71
NtRp649
(dp650
g74
(dp651
g82
I4
ssg83
Nsg76
(lp652
g69
(g85
g71
NtRp653
(dp654
g74
(dp655
sg83
g649
sg76
(lp656
g69
(g90
g71
NtRp657
(dp658
g74
(dp659
g94
g95
ssg83
g653
sg76
(lp660
S'app_folders'
p661
asbag69
(g90
g71
NtRp662
(dp663
g74
(dp664
g101
g102
ssg83
g653
sg76
(lp665
S':'
asbag69
(g90
g71
NtRp666
(dp667
g74
(dp668
sg83
g653
sg76
(lp669
g69
(g70
g71
NtRp670
(dp671
g74
(dp672
g82
I4
ssg83
g666
sg76
(lp673
S"set(['/home/prateek/web2py/applications/phyloShiny/', '/home/prateek/web2py/applications/admin/', '/home/prateek/web2py/applications/welcome/'])"
p674
asbasbasbag69
(g85
g71
NtRp675
(dp676
g74
(dp677
sg83
g649
sg76
(lp678
g69
(g90
g71
NtRp679
(dp680
g74
(dp681
g94
g95
ssg83
g675
sg76
(lp682
S'applications_parent'
p683
asbag69
(g90
g71
NtRp684
(dp685
g74
(dp686
g101
g102
ssg83
g675
sg76
(lp687
S':'
asbag69
(g90
g71
NtRp688
(dp689
g74
(dp690
sg83
g675
sg76
(lp691
g69
(g70
g71
NtRp692
(dp693
g74
(dp694
g82
I4
ssg83
g688
sg76
(lp695
S'/home/prateek/web2py'
p696
asbasbasbag69
(g85
g71
NtRp697
(dp698
g74
(dp699
sg83
g649
sg76
(lp700
g69
(g90
g71
NtRp701
(dp702
g74
(dp703
g94
g95
ssg83
g697
sg76
(lp704
S'cmd_args'
p705
asbag69
(g90
g71
NtRp706
(dp707
g74
(dp708
g101
g102
ssg83
g697
sg76
(lp709
S':'
asbag69
(g90
g71
NtRp710
(dp711
g74
(dp712
sg83
g697
sg76
(lp713
g69
(g70
g71
NtRp714
(dp715
g74
(dp716
g82
I4
ssg83
g710
sg76
(lp717
g69
(g78
g71
NtRp718
(dp719
g74
(dp720
g82
I3
ssg83
Nsg76
(lp721
sbasbasbasbag69
(g85
g71
NtRp722
(dp723
g74
(dp724
sg83
g649
sg76
(lp725
g69
(g90
g71
NtRp726
(dp727
g74
(dp728
g94
g95
ssg83
g722
sg76
(lp729
S'cmd_options'
p730
asbag69
(g90
g71
NtRp731
(dp732
g74
(dp733
g101
g102
ssg83
g722
sg76
(lp734
S':'
asbag69
(g90
g71
NtRp735
(dp736
g74
(dp737
sg83
g722
sg76
(lp738
g69
(g70
g71
NtRp739
(dp740
g74
(dp741
g82
I4
ssg83
g735
sg76
(lp742
S"<Values at 0x9aab5ec: {'verbose': False, 'ip': '127.0.0.1', 'shutdown_timeout': 5, 'taskbar': False, 'port': 8000, 'maxthreads': None, 'softcron': False, 'server_name': 'prateek-Inspiron-N5110', 'bpython': False, 'nogui': False, 'nocron': False, 'extcron': False, 'debuglevel': 30, 'test': None, 'folder': '/home/prateek/web2py', 'config': '', 'import_models': False, 'winservice': '', 'shell': None, 'run': '', 'log_filename': 'httpserver.log', 'args': [''], 'socket_timeout': 1, 'profiler_filename': None, 'ssl_private_key': '', 'password': '<ask>', 'request_queue_size': 5, 'ssl_certificate': '', 'cronjob': False, 'plain': False, 'quiet': False, 'interfaces': None, 'minthreads': None, 'timeout': 10, 'numthreads': None, 'nobanner': False, 'pid_filename': 'httpserver.pid'}>"
p743
asbasbasbag69
(g85
g71
NtRp744
(dp745
g74
(dp746
sg83
g649
sg76
(lp747
g69
(g90
g71
NtRp748
(dp749
g74
(dp750
g94
g95
ssg83
g744
sg76
(lp751
S'db_sessions'
p752
asbag69
(g90
g71
NtRp753
(dp754
g74
(dp755
g101
g102
ssg83
g744
sg76
(lp756
S':'
asbag69
(g90
g71
NtRp757
(dp758
g74
(dp759
sg83
g744
sg76
(lp760
g69
(g70
g71
NtRp761
(dp762
g74
(dp763
g82
I4
ssg83
g757
sg76
(lp764
S'set([])'
p765
asbasbasbag69
(g85
g71
NtRp766
(dp767
g74
(dp768
sg83
g649
sg76
(lp769
g69
(g90
g71
NtRp770
(dp771
g74
(dp772
g94
g95
ssg83
g766
sg76
(lp773
S'debugging'
p774
asbag69
(g90
g71
NtRp775
(dp776
g74
(dp777
g101
g102
ssg83
g766
sg76
(lp778
S':'
asbag69
(g90
g71
NtRp779
(dp780
g74
(dp781
sg83
g766
sg76
(lp782
g69
(g70
g71
NtRp783
(dp784
g74
(dp785
g82
I4
ssg83
g779
sg76
(lp786
g112
asbasbasbag69
(g85
g71
NtRp787
(dp788
g74
(dp789
sg83
g649
sg76
(lp790
g69
(g90
g71
NtRp791
(dp792
g74
(dp793
g94
g95
ssg83
g787
sg76
(lp794
S'gluon_parent'
p795
asbag69
(g90
g71
NtRp796
(dp797
g74
(dp798
g101
g102
ssg83
g787
sg76
(lp799
S':'
asbag69
(g90
g71
NtRp800
(dp801
g74
(dp802
sg83
g787
sg76
(lp803
g69
(g70
g71
NtRp804
(dp805
g74
(dp806
g82
I4
ssg83
g800
sg76
(lp807
S'/usr/share/web2py'
p808
asbasbasbag69
(g85
g71
NtRp809
(dp810
g74
(dp811
sg83
g649
sg76
(lp812
g69
(g90
g71
NtRp813
(dp814
g74
(dp815
g94
g95
ssg83
g809
sg76
(lp816
S'http_accept'
p817
asbag69
(g90
g71
NtRp818
(dp819
g74
(dp820
g101
g102
ssg83
g809
sg76
(lp821
S':'
asbag69
(g90
g71
NtRp822
(dp823
g74
(dp824
sg83
g809
sg76
(lp825
g69
(g70
g71
NtRp826
(dp827
g74
(dp828
g82
I4
ssg83
g822
sg76
(lp829
S'text/html,application/xhtml+xml,application/xml;q=0.9,*/*;q=0.8'
p830
asbasbasbag69
(g85
g71
NtRp831
(dp832
g74
(dp833
sg83
g649
sg76
(lp834
g69
(g90
g71
NtRp835
(dp836
g74
(dp837
g94
g95
ssg83
g831
sg76
(lp838
S'http_accept_encoding'
p839
asbag69
(g90
g71
NtRp840
(dp841
g74
(dp842
g101
g102
ssg83
g831
sg76
(lp843
S':'
asbag69
(g90
g71
NtRp844
(dp845
g74
(dp846
sg83
g831
sg76
(lp847
g69
(g70
g71
NtRp848
(dp849
g74
(dp850
g82
I4
ssg83
g844
sg76
(lp851
S'gzip, deflate'
p852
asbasbasbag69
(g85
g71
NtRp853
(dp854
g74
(dp855
sg83
g649
sg76
(lp856
g69
(g90
g71
NtRp857
(dp858
g74
(dp859
g94
g95
ssg83
g853
sg76
(lp860
S'http_accept_language'
p861
asbag69
(g90
g71
NtRp862
(dp863
g74
(dp864
g101
g102
ssg83
g853
sg76
(lp865
S':'
asbag69
(g90
g71
NtRp866
(dp867
g74
(dp868
sg83
g853
sg76
(lp869
g69
(g70
g71
NtRp870
(dp871
g74
(dp872
g82
I4
ssg83
g866
sg76
(lp873
S'en-US,en;q=0.5'
p874
asbasbasbag69
(g85
g71
NtRp875
(dp876
g74
(dp877
sg83
g649
sg76
(lp878
g69
(g90
g71
NtRp879
(dp880
g74
(dp881
g94
g95
ssg83
g875
sg76
(lp882
S'http_connection'
p883
asbag69
(g90
g71
NtRp884
(dp885
g74
(dp886
g101
g102
ssg83
g875
sg76
(lp887
S':'
asbag69
(g90
g71
NtRp888
(dp889
g74
(dp890
sg83
g875
sg76
(lp891
g69
(g70
g71
NtRp892
(dp893
g74
(dp894
g82
I4
ssg83
g888
sg76
(lp895
S'keep-alive'
p896
asbasbasbag69
(g85
g71
NtRp897
(dp898
g74
(dp899
sg83
g649
sg76
(lp900
g69
(g90
g71
NtRp901
(dp902
g74
(dp903
g94
g95
ssg83
g897
sg76
(lp904
S'http_cookie'
p905
asbag69
(g90
g71
NtRp906
(dp907
g74
(dp908
g101
g102
ssg83
g897
sg76
(lp909
S':'
asbag69
(g90
g71
NtRp910
(dp911
g74
(dp912
sg83
g897
sg76
(lp913
g69
(g70
g71
NtRp914
(dp915
g74
(dp916
g82
I4
ssg83
g910
sg76
(lp917
S'session_id_phyloshiny=127.0.0.1-f767572f-d179-4998-862a-4c1e2eaec93b; session_id_admin=127.0.0.1-93eaccf7-6654-4138-a9b6-5466fa6c980f'
p918
asbasbasbag69
(g85
g71
NtRp919
(dp920
g74
(dp921
sg83
g649
sg76
(lp922
g69
(g90
g71
NtRp923
(dp924
g74
(dp925
g94
g95
ssg83
g919
sg76
(lp926
S'http_host'
p927
asbag69
(g90
g71
NtRp928
(dp929
g74
(dp930
g101
g102
ssg83
g919
sg76
(lp931
S':'
asbag69
(g90
g71
NtRp932
(dp933
g74
(dp934
sg83
g919
sg76
(lp935
g69
(g70
g71
NtRp936
(dp937
g74
(dp938
g82
I4
ssg83
g932
sg76
(lp939
S'127.0.0.1:8000'
p940
asbasbasbag69
(g85
g71
NtRp941
(dp942
g74
(dp943
sg83
g649
sg76
(lp944
g69
(g90
g71
NtRp945
(dp946
g74
(dp947
g94
g95
ssg83
g941
sg76
(lp948
S'http_user_agent'
p949
asbag69
(g90
g71
NtRp950
(dp951
g74
(dp952
g101
g102
ssg83
g941
sg76
(lp953
S':'
asbag69
(g90
g71
NtRp954
(dp955
g74
(dp956
sg83
g941
sg76
(lp957
g69
(g70
g71
NtRp958
(dp959
g74
(dp960
g82
I4
ssg83
g954
sg76
(lp961
S'Mozilla/5.0 (X11; Ubuntu; Linux i686; rv:20.0) Gecko/20100101 Firefox/20.0'
p962
asbasbasbag69
(g85
g71
NtRp963
(dp964
g74
(dp965
sg83
g649
sg76
(lp966
g69
(g90
g71
NtRp967
(dp968
g74
(dp969
g94
g95
ssg83
g963
sg76
(lp970
S'is_jython'
p971
asbag69
(g90
g71
NtRp972
(dp973
g74
(dp974
g101
g102
ssg83
g963
sg76
(lp975
S':'
asbag69
(g90
g71
NtRp976
(dp977
g74
(dp978
sg83
g963
sg76
(lp979
g69
(g70
g71
NtRp980
(dp981
g74
(dp982
g82
I4
ssg83
g976
sg76
(lp983
g112
asbasbasbag69
(g85
g71
NtRp984
(dp985
g74
(dp986
sg83
g649
sg76
(lp987
g69
(g90
g71
NtRp988
(dp989
g74
(dp990
g94
g95
ssg83
g984
sg76
(lp991
S'is_pypy'
p992
asbag69
(g90
g71
NtRp993
(dp994
g74
(dp995
g101
g102
ssg83
g984
sg76
(lp996
S':'
asbag69
(g90
g71
NtRp997
(dp998
g74
(dp999
sg83
g984
sg76
(lp1000
g69
(g70
g71
NtRp1001
(dp1002
g74
(dp1003
g82
I4
ssg83
g997
sg76
(lp1004
g112
asbasbasbag69
(g85
g71
NtRp1005
(dp1006
g74
(dp1007
sg83
g649
sg76
(lp1008
g69
(g90
g71
NtRp1009
(dp1010
g74
(dp1011
g94
g95
ssg83
g1005
sg76
(lp1012
S'path_info'
p1013
asbag69
(g90
g71
NtRp1014
(dp1015
g74
(dp1016
g101
g102
ssg83
g1005
sg76
(lp1017
S':'
asbag69
(g90
g71
NtRp1018
(dp1019
g74
(dp1020
sg83
g1005
sg76
(lp1021
g69
(g70
g71
NtRp1022
(dp1023
g74
(dp1024
g82
I4
ssg83
g1018
sg76
(lp1025
S'/phyloShiny/reconciliotastic/index'
p1026
asbasbasbag69
(g85
g71
NtRp1027
(dp1028
g74
(dp1029
sg83
g649
sg76
(lp1030
g69
(g90
g71
NtRp1031
(dp1032
g74
(dp1033
g94
g95
ssg83
g1027
sg76
(lp1034
S'query_string'
p1035
asbag69
(g90
g71
NtRp1036
(dp1037
g74
(dp1038
g101
g102
ssg83
g1027
sg76
(lp1039
S':'
asbag69
(g90
g71
NtRp1040
(dp1041
g74
(dp1042
sg83
g1027
sg76
(lp1043
g69
(g70
g71
NtRp1044
(dp1045
g74
(dp1046
g82
I4
ssg83
g1040
sg76
(lp1047
S''
asbasbasbag69
(g85
g71
NtRp1048
(dp1049
g74
(dp1050
sg83
g649
sg76
(lp1051
g69
(g90
g71
NtRp1052
(dp1053
g74
(dp1054
g94
g95
ssg83
g1048
sg76
(lp1055
S'remote_addr'
p1056
asbag69
(g90
g71
NtRp1057
(dp1058
g74
(dp1059
g101
g102
ssg83
g1048
sg76
(lp1060
S':'
asbag69
(g90
g71
NtRp1061
(dp1062
g74
(dp1063
sg83
g1048
sg76
(lp1064
g69
(g70
g71
NtRp1065
(dp1066
g74
(dp1067
g82
I4
ssg83
g1061
sg76
(lp1068
g202
asbasbasbag69
(g85
g71
NtRp1069
(dp1070
g74
(dp1071
sg83
g649
sg76
(lp1072
g69
(g90
g71
NtRp1073
(dp1074
g74
(dp1075
g94
g95
ssg83
g1069
sg76
(lp1076
S'remote_port'
p1077
asbag69
(g90
g71
NtRp1078
(dp1079
g74
(dp1080
g101
g102
ssg83
g1069
sg76
(lp1081
S':'
asbag69
(g90
g71
NtRp1082
(dp1083
g74
(dp1084
sg83
g1069
sg76
(lp1085
g69
(g70
g71
NtRp1086
(dp1087
g74
(dp1088
g82
I4
ssg83
g1082
sg76
(lp1089
S'46443'
p1090
asbasbasbag69
(g85
g71
NtRp1091
(dp1092
g74
(dp1093
sg83
g649
sg76
(lp1094
g69
(g90
g71
NtRp1095
(dp1096
g74
(dp1097
g94
g95
ssg83
g1091
sg76
(lp1098
S'request_method'
p1099
asbag69
(g90
g71
NtRp1100
(dp1101
g74
(dp1102
g101
g102
ssg83
g1091
sg76
(lp1103
S':'
asbag69
(g90
g71
NtRp1104
(dp1105
g74
(dp1106
sg83
g1091
sg76
(lp1107
g69
(g70
g71
NtRp1108
(dp1109
g74
(dp1110
g82
I4
ssg83
g1104
sg76
(lp1111
S'GET'
p1112
asbasbasbag69
(g85
g71
NtRp1113
(dp1114
g74
(dp1115
sg83
g649
sg76
(lp1116
g69
(g90
g71
NtRp1117
(dp1118
g74
(dp1119
g94
g95
ssg83
g1113
sg76
(lp1120
S'script_name'
p1121
asbag69
(g90
g71
NtRp1122
(dp1123
g74
(dp1124
g101
g102
ssg83
g1113
sg76
(lp1125
S':'
asbag69
(g90
g71
NtRp1126
(dp1127
g74
(dp1128
sg83
g1113
sg76
(lp1129
g69
(g70
g71
NtRp1130
(dp1131
g74
(dp1132
g82
I4
ssg83
g1126
sg76
(lp1133
S''
asbasbasbag69
(g85
g71
NtRp1134
(dp1135
g74
(dp1136
sg83
g649
sg76
(lp1137
g69
(g90
g71
NtRp1138
(dp1139
g74
(dp1140
g94
g95
ssg83
g1134
sg76
(lp1141
S'server_name'
p1142
asbag69
(g90
g71
NtRp1143
(dp1144
g74
(dp1145
g101
g102
ssg83
g1134
sg76
(lp1146
S':'
asbag69
(g90
g71
NtRp1147
(dp1148
g74
(dp1149
sg83
g1134
sg76
(lp1150
g69
(g70
g71
NtRp1151
(dp1152
g74
(dp1153
g82
I4
ssg83
g1147
sg76
(lp1154
S'prateek-Inspiron-N5110'
p1155
asbasbasbag69
(g85
g71
NtRp1156
(dp1157
g74
(dp1158
sg83
g649
sg76
(lp1159
g69
(g90
g71
NtRp1160
(dp1161
g74
(dp1162
g94
g95
ssg83
g1156
sg76
(lp1163
S'server_port'
p1164
asbag69
(g90
g71
NtRp1165
(dp1166
g74
(dp1167
g101
g102
ssg83
g1156
sg76
(lp1168
S':'
asbag69
(g90
g71
NtRp1169
(dp1170
g74
(dp1171
sg83
g1156
sg76
(lp1172
g69
(g70
g71
NtRp1173
(dp1174
g74
(dp1175
g82
I4
ssg83
g1169
sg76
(lp1176
S'8000'
p1177
asbasbasbag69
(g85
g71
NtRp1178
(dp1179
g74
(dp1180
sg83
g649
sg76
(lp1181
g69
(g90
g71
NtRp1182
(dp1183
g74
(dp1184
g94
g95
ssg83
g1178
sg76
(lp1185
S'server_protocol'
p1186
asbag69
(g90
g71
NtRp1187
(dp1188
g74
(dp1189
g101
g102
ssg83
g1178
sg76
(lp1190
S':'
asbag69
(g90
g71
NtRp1191
(dp1192
g74
(dp1193
sg83
g1178
sg76
(lp1194
g69
(g70
g71
NtRp1195
(dp1196
g74
(dp1197
g82
I4
ssg83
g1191
sg76
(lp1198
S'HTTP/1.1'
p1199
asbasbasbag69
(g85
g71
NtRp1200
(dp1201
g74
(dp1202
sg83
g649
sg76
(lp1203
g69
(g90
g71
NtRp1204
(dp1205
g74
(dp1206
g94
g95
ssg83
g1200
sg76
(lp1207
S'server_software'
p1208
asbag69
(g90
g71
NtRp1209
(dp1210
g74
(dp1211
g101
g102
ssg83
g1200
sg76
(lp1212
S':'
asbag69
(g90
g71
NtRp1213
(dp1214
g74
(dp1215
sg83
g1200
sg76
(lp1216
g69
(g70
g71
NtRp1217
(dp1218
g74
(dp1219
g82
I4
ssg83
g1213
sg76
(lp1220
S'Rocket 1.2.4'
p1221
asbasbasbag69
(g85
g71
NtRp1222
(dp1223
g74
(dp1224
sg83
g649
sg76
(lp1225
g69
(g90
g71
NtRp1226
(dp1227
g74
(dp1228
g94
g95
ssg83
g1222
sg76
(lp1229
S'web2py_crontype'
p1230
asbag69
(g90
g71
NtRp1231
(dp1232
g74
(dp1233
g101
g102
ssg83
g1222
sg76
(lp1234
S':'
asbag69
(g90
g71
NtRp1235
(dp1236
g74
(dp1237
sg83
g1222
sg76
(lp1238
g69
(g70
g71
NtRp1239
(dp1240
g74
(dp1241
g82
I4
ssg83
g1235
sg76
(lp1242
S'hard'
p1243
asbasbasbag69
(g85
g71
NtRp1244
(dp1245
g74
(dp1246
sg83
g649
sg76
(lp1247
g69
(g90
g71
NtRp1248
(dp1249
g74
(dp1250
g94
g95
ssg83
g1244
sg76
(lp1251
S'web2py_path'
p1252
asbag69
(g90
g71
NtRp1253
(dp1254
g74
(dp1255
g101
g102
ssg83
g1244
sg76
(lp1256
S':'
asbag69
(g90
g71
NtRp1257
(dp1258
g74
(dp1259
sg83
g1244
sg76
(lp1260
g69
(g70
g71
NtRp1261
(dp1262
g74
(dp1263
g82
I4
ssg83
g1257
sg76
(lp1264
g696
asbasbasbag69
(g85
g71
NtRp1265
(dp1266
g74
(dp1267
sg83
g649
sg76
(lp1268
g69
(g90
g71
NtRp1269
(dp1270
g74
(dp1271
g94
g95
ssg83
g1265
sg76
(lp1272
S'web2py_version'
p1273
asbag69
(g90
g71
NtRp1274
(dp1275
g74
(dp1276
g101
g102
ssg83
g1265
sg76
(lp1277
S':'
asbag69
(g90
g71
NtRp1278
(dp1279
g74
(dp1280
sg83
g1265
sg76
(lp1281
g69
(g70
g71
NtRp1282
(dp1283
g74
(dp1284
g82
I4
ssg83
g1278
sg76
(lp1285
g69
(g78
g71
NtRp1286
(dp1287
g74
(dp1288
g82
I3
ssg83
Nsg76
(lp1289
g69
(g85
g71
NtRp1290
(dp1291
g74
(dp1292
sg83
g1286
sg76
(lp1293
g69
(g90
g71
NtRp1294
(dp1295
g74
(dp1296
sg83
g1290
sg76
(lp1297
g69
(g70
g71
NtRp1298
(dp1299
g74
(dp1300
g82
I3
ssg83
g1294
sg76
(lp1301
S'1'
asbasbasbag69
(g85
g71
NtRp1302
(dp1303
g74
(dp1304
sg83
g1286
sg76
(lp1305
g69
(g90
g71
NtRp1306
(dp1307
g74
(dp1308
sg83
g1302
sg76
(lp1309
g69
(g70
g71
NtRp1310
(dp1311
g74
(dp1312
g82
I3
ssg83
g1306
sg76
(lp1313
S'99'
p1314
asbasbasbag69
(g85
g71
NtRp1315
(dp1316
g74
(dp1317
sg83
g1286
sg76
(lp1318
g69
(g90
g71
NtRp1319
(dp1320
g74
(dp1321
sg83
g1315
sg76
(lp1322
g69
(g70
g71
NtRp1323
(dp1324
g74
(dp1325
g82
I3
ssg83
g1319
sg76
(lp1326
S'4'
asbasbasbag69
(g85
g71
NtRp1327
(dp1328
g74
(dp1329
sg83
g1286
sg76
(lp1330
g69
(g90
g71
NtRp1331
(dp1332
g74
(dp1333
sg83
g1327
sg76
(lp1334
g69
(g70
g71
NtRp1335
(dp1336
g74
(dp1337
g82
I3
ssg83
g1331
sg76
(lp1338
S'datetime.datetime(2011, 12, 14, 14, 46, 14)'
p1339
asbasbasbag69
(g85
g71
NtRp1340
(dp1341
g74
(dp1342
sg83
g1286
sg76
(lp1343
g69
(g90
g71
NtRp1344
(dp1345
g74
(dp1346
sg83
g1340
sg76
(lp1347
g69
(g70
g71
NtRp1348
(dp1349
g74
(dp1350
g82
I3
ssg83
g1344
sg76
(lp1351
S'stable'
p1352
asbasbasbasbasbasbasbag69
(g85
g71
NtRp1353
(dp1354
g74
(dp1355
sg83
g649
sg76
(lp1356
g69
(g90
g71
NtRp1357
(dp1358
g74
(dp1359
g94
g95
ssg83
g1353
sg76
(lp1360
S'wsgi_errors'
p1361
asbag69
(g90
g71
NtRp1362
(dp1363
g74
(dp1364
g101
g102
ssg83
g1353
sg76
(lp1365
S':'
asbag69
(g90
g71
NtRp1366
(dp1367
g74
(dp1368
sg83
g1353
sg76
(lp1369
g69
(g70
g71
NtRp1370
(dp1371
g74
(dp1372
g82
I4
ssg83
g1366
sg76
(lp1373
S"<open file '<stderr>', mode 'w' at 0xb73650d0>"
p1374
asbasbasbag69
(g85
g71
NtRp1375
(dp1376
g74
(dp1377
sg83
g649
sg76
(lp1378
g69
(g90
g71
NtRp1379
(dp1380
g74
(dp1381
g94
g95
ssg83
g1375
sg76
(lp1382
S'wsgi_file_wrapper'
p1383
asbag69
(g90
g71
NtRp1384
(dp1385
g74
(dp1386
g101
g102
ssg83
g1375
sg76
(lp1387
S':'
asbag69
(g90
g71
NtRp1388
(dp1389
g74
(dp1390
sg83
g1375
sg76
(lp1391
g69
(g70
g71
NtRp1392
(dp1393
g74
(dp1394
g82
I4
ssg83
g1388
sg76
(lp1395
S'<class wsgiref.util.FileWrapper at 0x987423c>'
p1396
asbasbasbag69
(g85
g71
NtRp1397
(dp1398
g74
(dp1399
sg83
g649
sg76
(lp1400
g69
(g90
g71
NtRp1401
(dp1402
g74
(dp1403
g94
g95
ssg83
g1397
sg76
(lp1404
S'wsgi_input'
p1405
asbag69
(g90
g71
NtRp1406
(dp1407
g74
(dp1408
g101
g102
ssg83
g1397
sg76
(lp1409
S':'
asbag69
(g90
g71
NtRp1410
(dp1411
g74
(dp1412
sg83
g1397
sg76
(lp1413
g69
(g70
g71
NtRp1414
(dp1415
g74
(dp1416
g82
I4
ssg83
g1410
sg76
(lp1417
S'<socket._fileobject object at 0xab15feec>'
p1418
asbasbasbag69
(g85
g71
NtRp1419
(dp1420
g74
(dp1421
sg83
g649
sg76
(lp1422
g69
(g90
g71
NtRp1423
(dp1424
g74
(dp1425
g94
g95
ssg83
g1419
sg76
(lp1426
S'wsgi_multiprocess'
p1427
asbag69
(g90
g71
NtRp1428
(dp1429
g74
(dp1430
g101
g102
ssg83
g1419
sg76
(lp1431
S':'
asbag69
(g90
g71
NtRp1432
(dp1433
g74
(dp1434
sg83
g1419
sg76
(lp1435
g69
(g70
g71
NtRp1436
(dp1437
g74
(dp1438
g82
I4
ssg83
g1432
sg76
(lp1439
g112
asbasbasbag69
(g85
g71
NtRp1440
(dp1441
g74
(dp1442
sg83
g649
sg76
(lp1443
g69
(g90
g71
NtRp1444
(dp1445
g74
(dp1446
g94
g95
ssg83
g1440
sg76
(lp1447
S'wsgi_multithread'
p1448
asbag69
(g90
g71
NtRp1449
(dp1450
g74
(dp1451
g101
g102
ssg83
g1440
sg76
(lp1452
S':'
asbag69
(g90
g71
NtRp1453
(dp1454
g74
(dp1455
sg83
g1440
sg76
(lp1456
g69
(g70
g71
NtRp1457
(dp1458
g74
(dp1459
g82
I4
ssg83
g1453
sg76
(lp1460
S'True'
p1461
asbasbasbag69
(g85
g71
NtRp1462
(dp1463
g74
(dp1464
sg83
g649
sg76
(lp1465
g69
(g90
g71
NtRp1466
(dp1467
g74
(dp1468
g94
g95
ssg83
g1462
sg76
(lp1469
S'wsgi_run_once'
p1470
asbag69
(g90
g71
NtRp1471
(dp1472
g74
(dp1473
g101
g102
ssg83
g1462
sg76
(lp1474
S':'
asbag69
(g90
g71
NtRp1475
(dp1476
g74
(dp1477
sg83
g1462
sg76
(lp1478
g69
(g70
g71
NtRp1479
(dp1480
g74
(dp1481
g82
I4
ssg83
g1475
sg76
(lp1482
g112
asbasbasbag69
(g85
g71
NtRp1483
(dp1484
g74
(dp1485
sg83
g649
sg76
(lp1486
g69
(g90
g71
NtRp1487
(dp1488
g74
(dp1489
g94
g95
ssg83
g1483
sg76
(lp1490
S'wsgi_url_scheme'
p1491
asbag69
(g90
g71
NtRp1492
(dp1493
g74
(dp1494
g101
g102
ssg83
g1483
sg76
(lp1495
S':'
asbag69
(g90
g71
NtRp1496
(dp1497
g74
(dp1498
sg83
g1483
sg76
(lp1499
g69
(g70
g71
NtRp1500
(dp1501
g74
(dp1502
g82
I4
ssg83
g1496
sg76
(lp1503
S'http'
p1504
asbasbasbag69
(g85
g71
NtRp1505
(dp1506
g74
(dp1507
sg83
g649
sg76
(lp1508
g69
(g90
g71
NtRp1509
(dp1510
g74
(dp1511
g94
g95
ssg83
g1505
sg76
(lp1512
S'wsgi_version'
p1513
asbag69
(g90
g71
NtRp1514
(dp1515
g74
(dp1516
g101
g102
ssg83
g1505
sg76
(lp1517
S':'
asbag69
(g90
g71
NtRp1518
(dp1519
g74
(dp1520
sg83
g1505
sg76
(lp1521
g69
(g70
g71
NtRp1522
(dp1523
g74
(dp1524
g82
I4
ssg83
g1518
sg76
(lp1525
g69
(g78
g71
NtRp1526
(dp1527
g74
(dp1528
g82
I3
ssg83
Nsg76
(lp1529
g69
(g85
g71
NtRp1530
(dp1531
g74
(dp1532
sg83
g1526
sg76
(lp1533
g69
(g90
g71
NtRp1534
(dp1535
g74
(dp1536
sg83
g1530
sg76
(lp1537
g69
(g70
g71
NtRp1538
(dp1539
g74
(dp1540
g82
I3
ssg83
g1534
sg76
(lp1541
S'1'
asbasbasbag69
(g85
g71
NtRp1542
(dp1543
g74
(dp1544
sg83
g1526
sg76
(lp1545
g69
(g90
g71
NtRp1546
(dp1547
g74
(dp1548
sg83
g1542
sg76
(lp1549
g69
(g70
g71
NtRp1550
(dp1551
g74
(dp1552
g82
I3
ssg83
g1546
sg76
(lp1553
S'0'
asbasbasbasbasbasbasbasbasbasbasbag69
(g85
g71
NtRp1554
(dp1555
g74
(dp1556
sg83
g79
sg76
(lp1557
g69
(g90
g71
NtRp1558
(dp1559
g74
(dp1560
g94
g95
ssg83
g1554
sg76
(lp1561
S'extension'
p1562
asbag69
(g90
g71
NtRp1563
(dp1564
g74
(dp1565
g101
g102
ssg83
g1554
sg76
(lp1566
S':'
asbag69
(g90
g71
NtRp1567
(dp1568
g74
(dp1569
sg83
g1554
sg76
(lp1570
g69
(g70
g71
NtRp1571
(dp1572
g74
(dp1573
g82
I5
ssg83
g1567
sg76
(lp1574
S'html'
p1575
asbasbasbag69
(g85
g71
NtRp1576
(dp1577
g74
(dp1578
sg83
g79
sg76
(lp1579
g69
(g90
g71
NtRp1580
(dp1581
g74
(dp1582
g94
g95
ssg83
g1576
sg76
(lp1583
S'folder'
p1584
asbag69
(g90
g71
NtRp1585
(dp1586
g74
(dp1587
g101
g102
ssg83
g1576
sg76
(lp1588
S':'
asbag69
(g90
g71
NtRp1589
(dp1590
g74
(dp1591
sg83
g1576
sg76
(lp1592
g69
(g70
g71
NtRp1593
(dp1594
g74
(dp1595
g82
I5
ssg83
g1589
sg76
(lp1596
S'/home/prateek/web2py/applications/phyloShiny/'
p1597
asbasbasbag69
(g85
g71
NtRp1598
(dp1599
g74
(dp1600
sg83
g79
sg76
(lp1601
g69
(g90
g71
NtRp1602
(dp1603
g74
(dp1604
g94
g95
ssg83
g1598
sg76
(lp1605
S'function'
p1606
asbag69
(g90
g71
NtRp1607
(dp1608
g74
(dp1609
g101
g102
ssg83
g1598
sg76
(lp1610
S':'
asbag69
(g90
g71
NtRp1611
(dp1612
g74
(dp1613
sg83
g1598
sg76
(lp1614
g69
(g70
g71
NtRp1615
(dp1616
g74
(dp1617
g82
I5
ssg83
g1611
sg76
(lp1618
S'index'
p1619
asbasbasbag69
(g85
g71
NtRp1620
(dp1621
g74
(dp1622
sg83
g79
sg76
(lp1623
g69
(g90
g71
NtRp1624
(dp1625
g74
(dp1626
g94
g95
ssg83
g1620
sg76
(lp1627
S'get_vars'
p1628
asbag69
(g90
g71
NtRp1629
(dp1630
g74
(dp1631
g101
g102
ssg83
g1620
sg76
(lp1632
S':'
asbag69
(g90
g71
NtRp1633
(dp1634
g74
(dp1635
sg83
g1620
sg76
(lp1636
g69
(g70
g71
NtRp1637
(dp1638
g74
(dp1639
g82
I5
ssg83
g1633
sg76
(lp1640
g69
(g78
g71
NtRp1641
(dp1642
g74
(dp1643
g82
I4
ssg83
Nsg76
(lp1644
sbasbasbasbag69
(g85
g71
NtRp1645
(dp1646
g74
(dp1647
sg83
g79
sg76
(lp1648
g69
(g90
g71
NtRp1649
(dp1650
g74
(dp1651
g94
g95
ssg83
g1645
sg76
(lp1652
S'global_settings'
p1653
asbag69
(g90
g71
NtRp1654
(dp1655
g74
(dp1656
g101
g102
ssg83
g1645
sg76
(lp1657
S':'
asbag69
(g90
g71
NtRp1658
(dp1659
g74
(dp1660
sg83
g1645
sg76
(lp1661
g69
(g70
g71
NtRp1662
(dp1663
g74
(dp1664
g82
I5
ssg83
g1658
sg76
(lp1665
g69
(g78
g71
NtRp1666
(dp1667
g74
(dp1668
g82
I4
ssg83
Nsg76
(lp1669
g69
(g85
g71
NtRp1670
(dp1671
g74
(dp1672
sg83
g1666
sg76
(lp1673
g69
(g90
g71
NtRp1674
(dp1675
g74
(dp1676
g94
g95
ssg83
g1670
sg76
(lp1677
g661
asbag69
(g90
g71
NtRp1678
(dp1679
g74
(dp1680
g101
g102
ssg83
g1670
sg76
(lp1681
S':'
asbag69
(g90
g71
NtRp1682
(dp1683
g74
(dp1684
sg83
g1670
sg76
(lp1685
g69
(g70
g71
NtRp1686
(dp1687
g74
(dp1688
g82
I4
ssg83
g1682
sg76
(lp1689
S"set(['/home/prateek/web2py/applications/phyloShiny/', '/home/prateek/web2py/applications/admin/', '/home/prateek/web2py/applications/welcome/'])"
p1690
asbasbasbag69
(g85
g71
NtRp1691
(dp1692
g74
(dp1693
sg83
g1666
sg76
(lp1694
g69
(g90
g71
NtRp1695
(dp1696
g74
(dp1697
g94
g95
ssg83
g1691
sg76
(lp1698
g683
asbag69
(g90
g71
NtRp1699
(dp1700
g74
(dp1701
g101
g102
ssg83
g1691
sg76
(lp1702
S':'
asbag69
(g90
g71
NtRp1703
(dp1704
g74
(dp1705
sg83
g1691
sg76
(lp1706
g69
(g70
g71
NtRp1707
(dp1708
g74
(dp1709
g82
I4
ssg83
g1703
sg76
(lp1710
g696
asbasbasbag69
(g85
g71
NtRp1711
(dp1712
g74
(dp1713
sg83
g1666
sg76
(lp1714
g69
(g90
g71
NtRp1715
(dp1716
g74
(dp1717
g94
g95
ssg83
g1711
sg76
(lp1718
g705
asbag69
(g90
g71
NtRp1719
(dp1720
g74
(dp1721
g101
g102
ssg83
g1711
sg76
(lp1722
S':'
asbag69
(g90
g71
NtRp1723
(dp1724
g74
(dp1725
sg83
g1711
sg76
(lp1726
g69
(g70
g71
NtRp1727
(dp1728
g74
(dp1729
g82
I4
ssg83
g1723
sg76
(lp1730
g69
(g78
g71
NtRp1731
(dp1732
g74
(dp1733
g82
I3
ssg83
Nsg76
(lp1734
sbasbasbasbag69
(g85
g71
NtRp1735
(dp1736
g74
(dp1737
sg83
g1666
sg76
(lp1738
g69
(g90
g71
NtRp1739
(dp1740
g74
(dp1741
g94
g95
ssg83
g1735
sg76
(lp1742
g730
asbag69
(g90
g71
NtRp1743
(dp1744
g74
(dp1745
g101
g102
ssg83
g1735
sg76
(lp1746
S':'
asbag69
(g90
g71
NtRp1747
(dp1748
g74
(dp1749
sg83
g1735
sg76
(lp1750
g69
(g70
g71
NtRp1751
(dp1752
g74
(dp1753
g82
I4
ssg83
g1747
sg76
(lp1754
S"<Values at 0x9aab5ec: {'verbose': False, 'ip': '127.0.0.1', 'shutdown_timeout': 5, 'taskbar': False, 'port': 8000, 'maxthreads': None, 'softcron': False, 'server_name': 'prateek-Inspiron-N5110', 'bpython': False, 'nogui': False, 'nocron': False, 'extcron': False, 'debuglevel': 30, 'test': None, 'folder': '/home/prateek/web2py', 'config': '', 'import_models': False, 'winservice': '', 'shell': None, 'run': '', 'log_filename': 'httpserver.log', 'args': [''], 'socket_timeout': 1, 'profiler_filename': None, 'ssl_private_key': '', 'password': '<ask>', 'request_queue_size': 5, 'ssl_certificate': '', 'cronjob': False, 'plain': False, 'quiet': False, 'interfaces': None, 'minthreads': None, 'timeout': 10, 'numthreads': None, 'nobanner': False, 'pid_filename': 'httpserver.pid'}>"
p1755
asbasbasbag69
(g85
g71
NtRp1756
(dp1757
g74
(dp1758
sg83
g1666
sg76
(lp1759
g69
(g90
g71
NtRp1760
(dp1761
g74
(dp1762
g94
g95
ssg83
g1756
sg76
(lp1763
g752
asbag69
(g90
g71
NtRp1764
(dp1765
g74
(dp1766
g101
g102
ssg83
g1756
sg76
(lp1767
S':'
asbag69
(g90
g71
NtRp1768
(dp1769
g74
(dp1770
sg83
g1756
sg76
(lp1771
g69
(g70
g71
NtRp1772
(dp1773
g74
(dp1774
g82
I4
ssg83
g1768
sg76
(lp1775
S'set([])'
p1776
asbasbasbag69
(g85
g71
NtRp1777
(dp1778
g74
(dp1779
sg83
g1666
sg76
(lp1780
g69
(g90
g71
NtRp1781
(dp1782
g74
(dp1783
g94
g95
ssg83
g1777
sg76
(lp1784
g774
asbag69
(g90
g71
NtRp1785
(dp1786
g74
(dp1787
g101
g102
ssg83
g1777
sg76
(lp1788
S':'
asbag69
(g90
g71
NtRp1789
(dp1790
g74
(dp1791
sg83
g1777
sg76
(lp1792
g69
(g70
g71
NtRp1793
(dp1794
g74
(dp1795
g82
I4
ssg83
g1789
sg76
(lp1796
g112
asbasbasbag69
(g85
g71
NtRp1797
(dp1798
g74
(dp1799
sg83
g1666
sg76
(lp1800
g69
(g90
g71
NtRp1801
(dp1802
g74
(dp1803
g94
g95
ssg83
g1797
sg76
(lp1804
g795
asbag69
(g90
g71
NtRp1805
(dp1806
g74
(dp1807
g101
g102
ssg83
g1797
sg76
(lp1808
S':'
asbag69
(g90
g71
NtRp1809
(dp1810
g74
(dp1811
sg83
g1797
sg76
(lp1812
g69
(g70
g71
NtRp1813
(dp1814
g74
(dp1815
g82
I4
ssg83
g1809
sg76
(lp1816
g808
asbasbasbag69
(g85
g71
NtRp1817
(dp1818
g74
(dp1819
sg83
g1666
sg76
(lp1820
g69
(g90
g71
NtRp1821
(dp1822
g74
(dp1823
g94
g95
ssg83
g1817
sg76
(lp1824
g971
asbag69
(g90
g71
NtRp1825
(dp1826
g74
(dp1827
g101
g102
ssg83
g1817
sg76
(lp1828
S':'
asbag69
(g90
g71
NtRp1829
(dp1830
g74
(dp1831
sg83
g1817
sg76
(lp1832
g69
(g70
g71
NtRp1833
(dp1834
g74
(dp1835
g82
I4
ssg83
g1829
sg76
(lp1836
g112
asbasbasbag69
(g85
g71
NtRp1837
(dp1838
g74
(dp1839
sg83
g1666
sg76
(lp1840
g69
(g90
g71
NtRp1841
(dp1842
g74
(dp1843
g94
g95
ssg83
g1837
sg76
(lp1844
g992
asbag69
(g90
g71
NtRp1845
(dp1846
g74
(dp1847
g101
g102
ssg83
g1837
sg76
(lp1848
S':'
asbag69
(g90
g71
NtRp1849
(dp1850
g74
(dp1851
sg83
g1837
sg76
(lp1852
g69
(g70
g71
NtRp1853
(dp1854
g74
(dp1855
g82
I4
ssg83
g1849
sg76
(lp1856
g112
asbasbasbag69
(g85
g71
NtRp1857
(dp1858
g74
(dp1859
sg83
g1666
sg76
(lp1860
g69
(g90
g71
NtRp1861
(dp1862
g74
(dp1863
g94
g95
ssg83
g1857
sg76
(lp1864
g1230
asbag69
(g90
g71
NtRp1865
(dp1866
g74
(dp1867
g101
g102
ssg83
g1857
sg76
(lp1868
S':'
asbag69
(g90
g71
NtRp1869
(dp1870
g74
(dp1871
sg83
g1857
sg76
(lp1872
g69
(g70
g71
NtRp1873
(dp1874
g74
(dp1875
g82
I4
ssg83
g1869
sg76
(lp1876
g1243
asbasbasbag69
(g85
g71
NtRp1877
(dp1878
g74
(dp1879
sg83
g1666
sg76
(lp1880
g69
(g90
g71
NtRp1881
(dp1882
g74
(dp1883
g94
g95
ssg83
g1877
sg76
(lp1884
g1273
asbag69
(g90
g71
NtRp1885
(dp1886
g74
(dp1887
g101
g102
ssg83
g1877
sg76
(lp1888
S':'
asbag69
(g90
g71
NtRp1889
(dp1890
g74
(dp1891
sg83
g1877
sg76
(lp1892
g69
(g70
g71
NtRp1893
(dp1894
g74
(dp1895
g82
I4
ssg83
g1889
sg76
(lp1896
g69
(g78
g71
NtRp1897
(dp1898
g74
(dp1899
g82
I3
ssg83
Nsg76
(lp1900
g69
(g85
g71
NtRp1901
(dp1902
g74
(dp1903
sg83
g1897
sg76
(lp1904
g69
(g90
g71
NtRp1905
(dp1906
g74
(dp1907
sg83
g1901
sg76
(lp1908
g69
(g70
g71
NtRp1909
(dp1910
g74
(dp1911
g82
I3
ssg83
g1905
sg76
(lp1912
S'1'
asbasbasbag69
(g85
g71
NtRp1913
(dp1914
g74
(dp1915
sg83
g1897
sg76
(lp1916
g69
(g90
g71
NtRp1917
(dp1918
g74
(dp1919
sg83
g1913
sg76
(lp1920
g69
(g70
g71
NtRp1921
(dp1922
g74
(dp1923
g82
I3
ssg83
g1917
sg76
(lp1924
S'99'
p1925
asbasbasbag69
(g85
g71
NtRp1926
(dp1927
g74
(dp1928
sg83
g1897
sg76
(lp1929
g69
(g90
g71
NtRp1930
(dp1931
g74
(dp1932
sg83
g1926
sg76
(lp1933
g69
(g70
g71
NtRp1934
(dp1935
g74
(dp1936
g82
I3
ssg83
g1930
sg76
(lp1937
S'4'
asbasbasbag69
(g85
g71
NtRp1938
(dp1939
g74
(dp1940
sg83
g1897
sg76
(lp1941
g69
(g90
g71
NtRp1942
(dp1943
g74
(dp1944
sg83
g1938
sg76
(lp1945
g69
(g70
g71
NtRp1946
(dp1947
g74
(dp1948
g82
I3
ssg83
g1942
sg76
(lp1949
S'datetime.datetime(2011, 12, 14, 14, 46, 14)'
p1950
asbasbasbag69
(g85
g71
NtRp1951
(dp1952
g74
(dp1953
sg83
g1897
sg76
(lp1954
g69
(g90
g71
NtRp1955
(dp1956
g74
(dp1957
sg83
g1951
sg76
(lp1958
g69
(g70
g71
NtRp1959
(dp1960
g74
(dp1961
g82
I3
ssg83
g1955
sg76
(lp1962
g1352
asbasbasbasbasbasbasbasbasbasbasbag69
(g85
g71
NtRp1963
(dp1964
g74
(dp1965
sg83
g79
sg76
(lp1966
g69
(g90
g71
NtRp1967
(dp1968
g74
(dp1969
g94
g95
ssg83
g1963
sg76
(lp1970
S'is_https'
p1971
asbag69
(g90
g71
NtRp1972
(dp1973
g74
(dp1974
g101
g102
ssg83
g1963
sg76
(lp1975
S':'
asbag69
(g90
g71
NtRp1976
(dp1977
g74
(dp1978
sg83
g1963
sg76
(lp1979
g69
(g70
g71
NtRp1980
(dp1981
g74
(dp1982
g82
I5
ssg83
g1976
sg76
(lp1983
g112
asbasbasbag69
(g85
g71
NtRp1984
(dp1985
g74
(dp1986
sg83
g79
sg76
(lp1987
g69
(g90
g71
NtRp1988
(dp1989
g74
(dp1990
g94
g95
ssg83
g1984
sg76
(lp1991
S'is_local'
p1992
asbag69
(g90
g71
NtRp1993
(dp1994
g74
(dp1995
g101
g102
ssg83
g1984
sg76
(lp1996
S':'
asbag69
(g90
g71
NtRp1997
(dp1998
g74
(dp1999
sg83
g1984
sg76
(lp2000
g69
(g70
g71
NtRp2001
(dp2002
g74
(dp2003
g82
I5
ssg83
g1997
sg76
(lp2004
g1461
asbasbasbag69
(g85
g71
NtRp2005
(dp2006
g74
(dp2007
sg83
g79
sg76
(lp2008
g69
(g90
g71
NtRp2009
(dp2010
g74
(dp2011
g94
g95
ssg83
g2005
sg76
(lp2012
S'is_restful'
p2013
asbag69
(g90
g71
NtRp2014
(dp2015
g74
(dp2016
g101
g102
ssg83
g2005
sg76
(lp2017
S':'
asbag69
(g90
g71
NtRp2018
(dp2019
g74
(dp2020
sg83
g2005
sg76
(lp2021
g69
(g70
g71
NtRp2022
(dp2023
g74
(dp2024
g82
I5
ssg83
g2018
sg76
(lp2025
g112
asbasbasbag69
(g85
g71
NtRp2026
(dp2027
g74
(dp2028
sg83
g79
sg76
(lp2029
g69
(g90
g71
NtRp2030
(dp2031
g74
(dp2032
g94
g95
ssg83
g2026
sg76
(lp2033
S'now'
p2034
asbag69
(g90
g71
NtRp2035
(dp2036
g74
(dp2037
g101
g102
ssg83
g2026
sg76
(lp2038
S':'
asbag69
(g90
g71
NtRp2039
(dp2040
g74
(dp2041
sg83
g2026
sg76
(lp2042
g69
(g70
g71
NtRp2043
(dp2044
g74
(dp2045
g82
I5
ssg83
g2039
sg76
(lp2046
S'datetime.datetime(2013, 5, 17, 12, 11, 42, 142146)'
p2047
asbasbasbag69
(g85
g71
NtRp2048
(dp2049
g74
(dp2050
sg83
g79
sg76
(lp2051
g69
(g90
g71
NtRp2052
(dp2053
g74
(dp2054
g94
g95
ssg83
g2048
sg76
(lp2055
S'post_vars'
p2056
asbag69
(g90
g71
NtRp2057
(dp2058
g74
(dp2059
g101
g102
ssg83
g2048
sg76
(lp2060
S':'
asbag69
(g90
g71
NtRp2061
(dp2062
g74
(dp2063
sg83
g2048
sg76
(lp2064
g69
(g70
g71
NtRp2065
(dp2066
g74
(dp2067
g82
I5
ssg83
g2061
sg76
(lp2068
g69
(g78
g71
NtRp2069
(dp2070
g74
(dp2071
g82
I4
ssg83
Nsg76
(lp2072
sbasbasbasbag69
(g85
g71
NtRp2073
(dp2074
g74
(dp2075
sg83
g79
sg76
(lp2076
g69
(g90
g71
NtRp2077
(dp2078
g74
(dp2079
g94
g95
ssg83
g2073
sg76
(lp2080
S'url'
p2081
asbag69
(g90
g71
NtRp2082
(dp2083
g74
(dp2084
g101
g102
ssg83
g2073
sg76
(lp2085
S':'
asbag69
(g90
g71
NtRp2086
(dp2087
g74
(dp2088
sg83
g2073
sg76
(lp2089
g69
(g70
g71
NtRp2090
(dp2091
g74
(dp2092
g82
I5
ssg83
g2086
sg76
(lp2093
S'/phyloShiny/reconciliotastic/index'
p2094
asbasbasbag69
(g85
g71
NtRp2095
(dp2096
g74
(dp2097
sg83
g79
sg76
(lp2098
g69
(g90
g71
NtRp2099
(dp2100
g74
(dp2101
g94
g95
ssg83
g2095
sg76
(lp2102
S'utcnow'
p2103
asbag69
(g90
g71
NtRp2104
(dp2105
g74
(dp2106
g101
g102
ssg83
g2095
sg76
(lp2107
S':'
asbag69
(g90
g71
NtRp2108
(dp2109
g74
(dp2110
sg83
g2095
sg76
(lp2111
g69
(g70
g71
NtRp2112
(dp2113
g74
(dp2114
g82
I5
ssg83
g2108
sg76
(lp2115
S'datetime.datetime(2013, 5, 17, 6, 41, 42, 142168)'
p2116
asbasbasbag69
(g85
g71
NtRp2117
(dp2118
g74
(dp2119
sg83
g79
sg76
(lp2120
g69
(g90
g71
NtRp2121
(dp2122
g74
(dp2123
g94
g95
ssg83
g2117
sg76
(lp2124
S'uuid'
p2125
asbag69
(g90
g71
NtRp2126
(dp2127
g74
(dp2128
g101
g102
ssg83
g2117
sg76
(lp2129
S':'
asbag69
(g90
g71
NtRp2130
(dp2131
g74
(dp2132
sg83
g2117
sg76
(lp2133
g69
(g70
g71
NtRp2134
(dp2135
g74
(dp2136
g82
I5
ssg83
g2130
sg76
(lp2137
S'phyloShiny/127.0.0.1.2013-05-17.12-11-42.e95f886d-176e-4d46-9cdc-e74ba4d5678e'
p2138
asbasbasbag69
(g85
g71
NtRp2139
(dp2140
g74
(dp2141
sg83
g79
sg76
(lp2142
g69
(g90
g71
NtRp2143
(dp2144
g74
(dp2145
g94
g95
ssg83
g2139
sg76
(lp2146
S'vars'
p2147
asbag69
(g90
g71
NtRp2148
(dp2149
g74
(dp2150
g101
g102
ssg83
g2139
sg76
(lp2151
S':'
asbag69
(g90
g71
NtRp2152
(dp2153
g74
(dp2154
sg83
g2139
sg76
(lp2155
g69
(g70
g71
NtRp2156
(dp2157
g74
(dp2158
g82
I5
ssg83
g2152
sg76
(lp2159
g69
(g78
g71
NtRp2160
(dp2161
g74
(dp2162
g82
I4
ssg83
Nsg76
(lp2163
sbasbasbasbag69
(g85
g71
NtRp2164
(dp2165
g74
(dp2166
sg83
g79
sg76
(lp2167
g69
(g90
g71
NtRp2168
(dp2169
g74
(dp2170
g94
g95
ssg83
g2164
sg76
(lp2171
S'wsgi'
p2172
asbag69
(g90
g71
NtRp2173
(dp2174
g74
(dp2175
g101
g102
ssg83
g2164
sg76
(lp2176
S':'
asbag69
(g90
g71
NtRp2177
(dp2178
g74
(dp2179
sg83
g2164
sg76
(lp2180
g69
(g70
g71
NtRp2181
(dp2182
g74
(dp2183
g82
I5
ssg83
g2177
sg76
(lp2184
g69
(g78
g71
NtRp2185
(dp2186
g74
(dp2187
g82
I4
ssg83
Nsg76
(lp2188
g69
(g85
g71
NtRp2189
(dp2190
g74
(dp2191
sg83
g2185
sg76
(lp2192
g69
(g90
g71
NtRp2193
(dp2194
g74
(dp2195
g94
g95
ssg83
g2189
sg76
(lp2196
S'environ'
p2197
asbag69
(g90
g71
NtRp2198
(dp2199
g74
(dp2200
g101
g102
ssg83
g2189
sg76
(lp2201
S':'
asbag69
(g90
g71
NtRp2202
(dp2203
g74
(dp2204
sg83
g2189
sg76
(lp2205
g69
(g70
g71
NtRp2206
(dp2207
g74
(dp2208
g82
I4
ssg83
g2202
sg76
(lp2209
g69
(g78
g71
NtRp2210
(dp2211
g74
(dp2212
g82
I3
ssg83
Nsg76
(lp2213
g69
(g85
g71
NtRp2214
(dp2215
g74
(dp2216
sg83
g2210
sg76
(lp2217
g69
(g90
g71
NtRp2218
(dp2219
g74
(dp2220
g94
g95
ssg83
g2214
sg76
(lp2221
S'HTTP_ACCEPT'
p2222
asbag69
(g90
g71
NtRp2223
(dp2224
g74
(dp2225
g101
g102
ssg83
g2214
sg76
(lp2226
S':'
asbag69
(g90
g71
NtRp2227
(dp2228
g74
(dp2229
sg83
g2214
sg76
(lp2230
g69
(g70
g71
NtRp2231
(dp2232
g74
(dp2233
g82
I3
ssg83
g2227
sg76
(lp2234
g830
asbasbasbag69
(g85
g71
NtRp2235
(dp2236
g74
(dp2237
sg83
g2210
sg76
(lp2238
g69
(g90
g71
NtRp2239
(dp2240
g74
(dp2241
g94
g95
ssg83
g2235
sg76
(lp2242
S'HTTP_ACCEPT_ENCODING'
p2243
asbag69
(g90
g71
NtRp2244
(dp2245
g74
(dp2246
g101
g102
ssg83
g2235
sg76
(lp2247
S':'
asbag69
(g90
g71
NtRp2248
(dp2249
g74
(dp2250
sg83
g2235
sg76
(lp2251
g69
(g70
g71
NtRp2252
(dp2253
g74
(dp2254
g82
I3
ssg83
g2248
sg76
(lp2255
g852
asbasbasbag69
(g85
g71
NtRp2256
(dp2257
g74
(dp2258
sg83
g2210
sg76
(lp2259
g69
(g90
g71
NtRp2260
(dp2261
g74
(dp2262
g94
g95
ssg83
g2256
sg76
(lp2263
S'HTTP_ACCEPT_LANGUAGE'
p2264
asbag69
(g90
g71
NtRp2265
(dp2266
g74
(dp2267
g101
g102
ssg83
g2256
sg76
(lp2268
S':'
asbag69
(g90
g71
NtRp2269
(dp2270
g74
(dp2271
sg83
g2256
sg76
(lp2272
g69
(g70
g71
NtRp2273
(dp2274
g74
(dp2275
g82
I3
ssg83
g2269
sg76
(lp2276
g874
asbasbasbag69
(g85
g71
NtRp2277
(dp2278
g74
(dp2279
sg83
g2210
sg76
(lp2280
g69
(g90
g71
NtRp2281
(dp2282
g74
(dp2283
g94
g95
ssg83
g2277
sg76
(lp2284
S'HTTP_CONNECTION'
p2285
asbag69
(g90
g71
NtRp2286
(dp2287
g74
(dp2288
g101
g102
ssg83
g2277
sg76
(lp2289
S':'
asbag69
(g90
g71
NtRp2290
(dp2291
g74
(dp2292
sg83
g2277
sg76
(lp2293
g69
(g70
g71
NtRp2294
(dp2295
g74
(dp2296
g82
I3
ssg83
g2290
sg76
(lp2297
g896
asbasbasbag69
(g85
g71
NtRp2298
(dp2299
g74
(dp2300
sg83
g2210
sg76
(lp2301
g69
(g90
g71
NtRp2302
(dp2303
g74
(dp2304
g94
g95
ssg83
g2298
sg76
(lp2305
S'HTTP_COOKIE'
p2306
asbag69
(g90
g71
NtRp2307
(dp2308
g74
(dp2309
g101
g102
ssg83
g2298
sg76
(lp2310
S':'
asbag69
(g90
g71
NtRp2311
(dp2312
g74
(dp2313
sg83
g2298
sg76
(lp2314
g69
(g70
g71
NtRp2315
(dp2316
g74
(dp2317
g82
I3
ssg83
g2311
sg76
(lp2318
g918
asbasbasbag69
(g85
g71
NtRp2319
(dp2320
g74
(dp2321
sg83
g2210
sg76
(lp2322
g69
(g90
g71
NtRp2323
(dp2324
g74
(dp2325
g94
g95
ssg83
g2319
sg76
(lp2326
S'HTTP_HOST'
p2327
asbag69
(g90
g71
NtRp2328
(dp2329
g74
(dp2330
g101
g102
ssg83
g2319
sg76
(lp2331
S':'
asbag69
(g90
g71
NtRp2332
(dp2333
g74
(dp2334
sg83
g2319
sg76
(lp2335
g69
(g70
g71
NtRp2336
(dp2337
g74
(dp2338
g82
I3
ssg83
g2332
sg76
(lp2339
g940
asbasbasbag69
(g85
g71
NtRp2340
(dp2341
g74
(dp2342
sg83
g2210
sg76
(lp2343
g69
(g90
g71
NtRp2344
(dp2345
g74
(dp2346
g94
g95
ssg83
g2340
sg76
(lp2347
S'HTTP_USER_AGENT'
p2348
asbag69
(g90
g71
NtRp2349
(dp2350
g74
(dp2351
g101
g102
ssg83
g2340
sg76
(lp2352
S':'
asbag69
(g90
g71
NtRp2353
(dp2354
g74
(dp2355
sg83
g2340
sg76
(lp2356
g69
(g70
g71
NtRp2357
(dp2358
g74
(dp2359
g82
I3
ssg83
g2353
sg76
(lp2360
g962
asbasbasbag69
(g85
g71
NtRp2361
(dp2362
g74
(dp2363
sg83
g2210
sg76
(lp2364
g69
(g90
g71
NtRp2365
(dp2366
g74
(dp2367
g94
g95
ssg83
g2361
sg76
(lp2368
S'PATH_INFO'
p2369
asbag69
(g90
g71
NtRp2370
(dp2371
g74
(dp2372
g101
g102
ssg83
g2361
sg76
(lp2373
S':'
asbag69
(g90
g71
NtRp2374
(dp2375
g74
(dp2376
sg83
g2361
sg76
(lp2377
g69
(g70
g71
NtRp2378
(dp2379
g74
(dp2380
g82
I3
ssg83
g2374
sg76
(lp2381
g1026
asbasbasbag69
(g85
g71
NtRp2382
(dp2383
g74
(dp2384
sg83
g2210
sg76
(lp2385
g69
(g90
g71
NtRp2386
(dp2387
g74
(dp2388
g94
g95
ssg83
g2382
sg76
(lp2389
S'QUERY_STRING'
p2390
asbag69
(g90
g71
NtRp2391
(dp2392
g74
(dp2393
g101
g102
ssg83
g2382
sg76
(lp2394
S':'
asbag69
(g90
g71
NtRp2395
(dp2396
g74
(dp2397
sg83
g2382
sg76
(lp2398
g69
(g70
g71
NtRp2399
(dp2400
g74
(dp2401
g82
I3
ssg83
g2395
sg76
(lp2402
S''
asbasbasbag69
(g85
g71
NtRp2403
(dp2404
g74
(dp2405
sg83
g2210
sg76
(lp2406
g69
(g90
g71
NtRp2407
(dp2408
g74
(dp2409
g94
g95
ssg83
g2403
sg76
(lp2410
S'REMOTE_ADDR'
p2411
asbag69
(g90
g71
NtRp2412
(dp2413
g74
(dp2414
g101
g102
ssg83
g2403
sg76
(lp2415
S':'
asbag69
(g90
g71
NtRp2416
(dp2417
g74
(dp2418
sg83
g2403
sg76
(lp2419
g69
(g70
g71
NtRp2420
(dp2421
g74
(dp2422
g82
I3
ssg83
g2416
sg76
(lp2423
g202
asbasbasbag69
(g85
g71
NtRp2424
(dp2425
g74
(dp2426
sg83
g2210
sg76
(lp2427
g69
(g90
g71
NtRp2428
(dp2429
g74
(dp2430
g94
g95
ssg83
g2424
sg76
(lp2431
S'REMOTE_PORT'
p2432
asbag69
(g90
g71
NtRp2433
(dp2434
g74
(dp2435
g101
g102
ssg83
g2424
sg76
(lp2436
S':'
asbag69
(g90
g71
NtRp2437
(dp2438
g74
(dp2439
sg83
g2424
sg76
(lp2440
g69
(g70
g71
NtRp2441
(dp2442
g74
(dp2443
g82
I3
ssg83
g2437
sg76
(lp2444
g1090
asbasbasbag69
(g85
g71
NtRp2445
(dp2446
g74
(dp2447
sg83
g2210
sg76
(lp2448
g69
(g90
g71
NtRp2449
(dp2450
g74
(dp2451
g94
g95
ssg83
g2445
sg76
(lp2452
S'REQUEST_METHOD'
p2453
asbag69
(g90
g71
NtRp2454
(dp2455
g74
(dp2456
g101
g102
ssg83
g2445
sg76
(lp2457
S':'
asbag69
(g90
g71
NtRp2458
(dp2459
g74
(dp2460
sg83
g2445
sg76
(lp2461
g69
(g70
g71
NtRp2462
(dp2463
g74
(dp2464
g82
I3
ssg83
g2458
sg76
(lp2465
g1112
asbasbasbag69
(g85
g71
NtRp2466
(dp2467
g74
(dp2468
sg83
g2210
sg76
(lp2469
g69
(g90
g71
NtRp2470
(dp2471
g74
(dp2472
g94
g95
ssg83
g2466
sg76
(lp2473
S'SCRIPT_NAME'
p2474
asbag69
(g90
g71
NtRp2475
(dp2476
g74
(dp2477
g101
g102
ssg83
g2466
sg76
(lp2478
S':'
asbag69
(g90
g71
NtRp2479
(dp2480
g74
(dp2481
sg83
g2466
sg76
(lp2482
g69
(g70
g71
NtRp2483
(dp2484
g74
(dp2485
g82
I3
ssg83
g2479
sg76
(lp2486
S''
asbasbasbag69
(g85
g71
NtRp2487
(dp2488
g74
(dp2489
sg83
g2210
sg76
(lp2490
g69
(g90
g71
NtRp2491
(dp2492
g74
(dp2493
g94
g95
ssg83
g2487
sg76
(lp2494
S'SERVER_NAME'
p2495
asbag69
(g90
g71
NtRp2496
(dp2497
g74
(dp2498
g101
g102
ssg83
g2487
sg76
(lp2499
S':'
asbag69
(g90
g71
NtRp2500
(dp2501
g74
(dp2502
sg83
g2487
sg76
(lp2503
g69
(g70
g71
NtRp2504
(dp2505
g74
(dp2506
g82
I3
ssg83
g2500
sg76
(lp2507
g1155
asbasbasbag69
(g85
g71
NtRp2508
(dp2509
g74
(dp2510
sg83
g2210
sg76
(lp2511
g69
(g90
g71
NtRp2512
(dp2513
g74
(dp2514
g94
g95
ssg83
g2508
sg76
(lp2515
S'SERVER_PORT'
p2516
asbag69
(g90
g71
NtRp2517
(dp2518
g74
(dp2519
g101
g102
ssg83
g2508
sg76
(lp2520
S':'
asbag69
(g90
g71
NtRp2521
(dp2522
g74
(dp2523
sg83
g2508
sg76
(lp2524
g69
(g70
g71
NtRp2525
(dp2526
g74
(dp2527
g82
I3
ssg83
g2521
sg76
(lp2528
g1177
asbasbasbag69
(g85
g71
NtRp2529
(dp2530
g74
(dp2531
sg83
g2210
sg76
(lp2532
g69
(g90
g71
NtRp2533
(dp2534
g74
(dp2535
g94
g95
ssg83
g2529
sg76
(lp2536
S'SERVER_PROTOCOL'
p2537
asbag69
(g90
g71
NtRp2538
(dp2539
g74
(dp2540
g101
g102
ssg83
g2529
sg76
(lp2541
S':'
asbag69
(g90
g71
NtRp2542
(dp2543
g74
(dp2544
sg83
g2529
sg76
(lp2545
g69
(g70
g71
NtRp2546
(dp2547
g74
(dp2548
g82
I3
ssg83
g2542
sg76
(lp2549
g1199
asbasbasbag69
(g85
g71
NtRp2550
(dp2551
g74
(dp2552
sg83
g2210
sg76
(lp2553
g69
(g90
g71
NtRp2554
(dp2555
g74
(dp2556
g94
g95
ssg83
g2550
sg76
(lp2557
S'SERVER_SOFTWARE'
p2558
asbag69
(g90
g71
NtRp2559
(dp2560
g74
(dp2561
g101
g102
ssg83
g2550
sg76
(lp2562
S':'
asbag69
(g90
g71
NtRp2563
(dp2564
g74
(dp2565
sg83
g2550
sg76
(lp2566
g69
(g70
g71
NtRp2567
(dp2568
g74
(dp2569
g82
I3
ssg83
g2563
sg76
(lp2570
g1221
asbasbasbag69
(g85
g71
NtRp2571
(dp2572
g74
(dp2573
sg83
g2210
sg76
(lp2574
g69
(g90
g71
NtRp2575
(dp2576
g74
(dp2577
g94
g95
ssg83
g2571
sg76
(lp2578
S'wsgi.errors'
p2579
asbag69
(g90
g71
NtRp2580
(dp2581
g74
(dp2582
g101
g102
ssg83
g2571
sg76
(lp2583
S':'
asbag69
(g90
g71
NtRp2584
(dp2585
g74
(dp2586
sg83
g2571
sg76
(lp2587
g69
(g70
g71
NtRp2588
(dp2589
g74
(dp2590
g82
I3
ssg83
g2584
sg76
(lp2591
S"<open file '<stderr>', mode 'w' at 0xb73650d0>"
p2592
asbasbasbag69
(g85
g71
NtRp2593
(dp2594
g74
(dp2595
sg83
g2210
sg76
(lp2596
g69
(g90
g71
NtRp2597
(dp2598
g74
(dp2599
g94
g95
ssg83
g2593
sg76
(lp2600
S'wsgi.file_wrapper'
p2601
asbag69
(g90
g71
NtRp2602
(dp2603
g74
(dp2604
g101
g102
ssg83
g2593
sg76
(lp2605
S':'
asbag69
(g90
g71
NtRp2606
(dp2607
g74
(dp2608
sg83
g2593
sg76
(lp2609
g69
(g70
g71
NtRp2610
(dp2611
g74
(dp2612
g82
I3
ssg83
g2606
sg76
(lp2613
S'<class wsgiref.util.FileWrapper at 0x987423c>'
p2614
asbasbasbag69
(g85
g71
NtRp2615
(dp2616
g74
(dp2617
sg83
g2210
sg76
(lp2618
g69
(g90
g71
NtRp2619
(dp2620
g74
(dp2621
g94
g95
ssg83
g2615
sg76
(lp2622
S'wsgi.input'
p2623
asbag69
(g90
g71
NtRp2624
(dp2625
g74
(dp2626
g101
g102
ssg83
g2615
sg76
(lp2627
S':'
asbag69
(g90
g71
NtRp2628
(dp2629
g74
(dp2630
sg83
g2615
sg76
(lp2631
g69
(g70
g71
NtRp2632
(dp2633
g74
(dp2634
g82
I3
ssg83
g2628
sg76
(lp2635
S'<cStringIO.StringO object at 0xaaea0be0>'
p2636
asbasbasbag69
(g85
g71
NtRp2637
(dp2638
g74
(dp2639
sg83
g2210
sg76
(lp2640
g69
(g90
g71
NtRp2641
(dp2642
g74
(dp2643
g94
g95
ssg83
g2637
sg76
(lp2644
S'wsgi.multiprocess'
p2645
asbag69
(g90
g71
NtRp2646
(dp2647
g74
(dp2648
g101
g102
ssg83
g2637
sg76
(lp2649
S':'
asbag69
(g90
g71
NtRp2650
(dp2651
g74
(dp2652
sg83
g2637
sg76
(lp2653
g69
(g70
g71
NtRp2654
(dp2655
g74
(dp2656
g82
I3
ssg83
g2650
sg76
(lp2657
g112
asbasbasbag69
(g85
g71
NtRp2658
(dp2659
g74
(dp2660
sg83
g2210
sg76
(lp2661
g69
(g90
g71
NtRp2662
(dp2663
g74
(dp2664
g94
g95
ssg83
g2658
sg76
(lp2665
S'wsgi.multithread'
p2666
asbag69
(g90
g71
NtRp2667
(dp2668
g74
(dp2669
g101
g102
ssg83
g2658
sg76
(lp2670
S':'
asbag69
(g90
g71
NtRp2671
(dp2672
g74
(dp2673
sg83
g2658
sg76
(lp2674
g69
(g70
g71
NtRp2675
(dp2676
g74
(dp2677
g82
I3
ssg83
g2671
sg76
(lp2678
g1461
asbasbasbag69
(g85
g71
NtRp2679
(dp2680
g74
(dp2681
sg83
g2210
sg76
(lp2682
g69
(g90
g71
NtRp2683
(dp2684
g74
(dp2685
g94
g95
ssg83
g2679
sg76
(lp2686
S'wsgi.run_once'
p2687
asbag69
(g90
g71
NtRp2688
(dp2689
g74
(dp2690
g101
g102
ssg83
g2679
sg76
(lp2691
S':'
asbag69
(g90
g71
NtRp2692
(dp2693
g74
(dp2694
sg83
g2679
sg76
(lp2695
g69
(g70
g71
NtRp2696
(dp2697
g74
(dp2698
g82
I3
ssg83
g2692
sg76
(lp2699
g112
asbasbasbag69
(g85
g71
NtRp2700
(dp2701
g74
(dp2702
sg83
g2210
sg76
(lp2703
g69
(g90
g71
NtRp2704
(dp2705
g74
(dp2706
g94
g95
ssg83
g2700
sg76
(lp2707
S'wsgi.url_scheme'
p2708
asbag69
(g90
g71
NtRp2709
(dp2710
g74
(dp2711
g101
g102
ssg83
g2700
sg76
(lp2712
S':'
asbag69
(g90
g71
NtRp2713
(dp2714
g74
(dp2715
sg83
g2700
sg76
(lp2716
g69
(g70
g71
NtRp2717
(dp2718
g74
(dp2719
g82
I3
ssg83
g2713
sg76
(lp2720
g1504
asbasbasbag69
(g85
g71
NtRp2721
(dp2722
g74
(dp2723
sg83
g2210
sg76
(lp2724
g69
(g90
g71
NtRp2725
(dp2726
g74
(dp2727
g94
g95
ssg83
g2721
sg76
(lp2728
S'wsgi.version'
p2729
asbag69
(g90
g71
NtRp2730
(dp2731
g74
(dp2732
g101
g102
ssg83
g2721
sg76
(lp2733
S':'
asbag69
(g90
g71
NtRp2734
(dp2735
g74
(dp2736
sg83
g2721
sg76
(lp2737
g69
(g70
g71
NtRp2738
(dp2739
g74
(dp2740
g82
I3
ssg83
g2734
sg76
(lp2741
S'1'
asbasbasbasbasbasbasbasbasbasbasbasbasbsS'frames'
p2742
(lp2743
(dp2744
S'file'
p2745
S'/usr/lib/pymodules/python2.7/gluon/restricted.py'
p2746
sS'dump'
p2747
(dp2748
S'code'
p2749
S"'# -*- coding: utf-8 -*-\\n# this file is released ...     ) )\\n\\nresponse._vars=response._caller(index)\\n'"
p2750
sS'layer'
p2751
S"'/home/prateek/web2py/applications/phyloShiny/controllers/reconciliotastic.py'"
p2752
sS'global compile2'
p2753
S'<function compile2>'
p2754
sS'ccode'
p2755
S'undefined'
p2756
ssS'lnum'
p2757
I203
sS'lines'
p2758
(dp2759
I198
S"    environment['__file__'] = layer"
p2760
sI199
S'    try:'
p2761
sI200
S'        if type(code) == types.CodeType:'
p2762
sI201
S'            ccode = code'
p2763
sI202
S'        else:'
p2764
sI203
S'            ccode = compile2(code,layer)'
p2765
sI204
S'        exec ccode in environment'
p2766
sI205
S'    except HTTP:'
p2767
sI206
S'        raise'
p2768
sI207
S'    except RestrictedError:'
p2769
ssS'call'
p2770
S"(code='# -*- coding: utf-8 -*-\\n# this file is released ...     ) )\\n\\nresponse._vars=response._caller(index)\\n', environment={'A': <class 'gluon.html.A'>, 'Auth': <class 'gluon.tools.Auth'>, 'B': <class 'gluon.html.B'>, 'BEAUTIFY': <class 'gluon.html.BEAUTIFY'>, 'BODY': <class 'gluon.html.BODY'>, 'BR': <class 'gluon.html.BR'>, 'BUTTON': <class 'gluon.html.BUTTON'>, 'CAT': <class 'gluon.html.CAT'>, 'CENTER': <class 'gluon.html.CENTER'>, 'CLEANUP': <class 'gluon.validators.CLEANUP'>, ...}, layer='/home/prateek/web2py/applications/phyloShiny/controllers/reconciliotastic.py')"
p2771
sS'func'
p2772
S'restricted'
p2773
sa(dp2774
g2745
S'/usr/lib/pymodules/python2.7/gluon/restricted.py'
p2775
sg2747
(dp2776
S'builtincompile'
p2777
S'<built-in function compile>'
p2778
sS'code'
p2779
S"'# -*- coding: utf-8 -*-\\n# this file is released ...     ) )\\n\\nresponse._vars=response._caller(index)\\n'"
p2780
sS'code.rstrip'
p2781
S'<built-in method rstrip of str object>'
p2782
sS').replace'
p2783
g2756
sS'layer'
p2784
S"'/home/prateek/web2py/applications/phyloShiny/controllers/reconciliotastic.py'"
p2785
ssg2757
I189
sg2758
(dp2786
I192
S'    """'
p2787
sI193
S'    runs code in environment and returns the output. if an exception occurs'
p2788
sI184
S''
sI185
S'def compile2(code,layer):'
p2789
sI186
S'    """'
p2790
sI187
S"    The +'\\n' is necessary else compile fails when code ends in a comment."
p2791
sI188
S'    """'
p2792
sI189
S"    return compile(code.rstrip().replace('\\r\\n','\\n')+'\\n', layer, 'exec')"
p2793
sI190
S''
sI191
S"def restricted(code, environment=None, layer='Unknown'):"
p2794
ssg2770
S"(code='# -*- coding: utf-8 -*-\\n# this file is released ...     ) )\\n\\nresponse._vars=response._caller(index)\\n', layer='/home/prateek/web2py/applications/phyloShiny/controllers/reconciliotastic.py')"
p2795
sg2772
S'compile2'
p2796
sasS'pyver'
p2797
S'Python 2.7.3: /usr/bin/python'
p2798
sS'session'
p2799
g69
(g70
g71
NtRp2800
(dp2801
g74
(dp2802
sg76
(lp2803
g69
(g78
g71
NtRp2804
(dp2805
g74
(dp2806
g82
I5
ssg83
Nsg76
(lp2807
sbasbsS'etype'
p2808
S"<type 'exceptions.SyntaxError'>"
p2809
sS'date'
p2810
S'Fri May 17 12:11:42 2013'
p2811
sS'response'
p2812
g69
(g70
g71
NtRp2813
(dp2814
g74
(dp2815
sg76
(lp2816
g69
(g78
g71
NtRp2817
(dp2818
g74
(dp2819
g82
I5
ssg83
Nsg76
(lp2820
g69
(g85
g71
NtRp2821
(dp2822
g74
(dp2823
sg83
g2817
sg76
(lp2824
g69
(g90
g71
NtRp2825
(dp2826
g74
(dp2827
g94
g95
ssg83
g2821
sg76
(lp2828
g167
asbag69
(g90
g71
NtRp2829
(dp2830
g74
(dp2831
g101
g102
ssg83
g2821
sg76
(lp2832
S':'
asbag69
(g90
g71
NtRp2833
(dp2834
g74
(dp2835
sg83
g2821
sg76
(lp2836
g69
(g70
g71
NtRp2837
(dp2838
g74
(dp2839
g82
I5
ssg83
g2833
sg76
(lp2840
S'<cStringIO.StringO object at 0xb206fea0>'
p2841
asbasbasbag69
(g85
g71
NtRp2842
(dp2843
g74
(dp2844
sg83
g2817
sg76
(lp2845
g69
(g90
g71
NtRp2846
(dp2847
g74
(dp2848
g94
g95
ssg83
g2842
sg76
(lp2849
g233
asbag69
(g90
g71
NtRp2850
(dp2851
g74
(dp2852
g101
g102
ssg83
g2842
sg76
(lp2853
S':'
asbag69
(g90
g71
NtRp2854
(dp2855
g74
(dp2856
sg83
g2842
sg76
(lp2857
g69
(g70
g71
NtRp2858
(dp2859
g74
(dp2860
g82
I5
ssg83
g2854
sg76
(lp2861
g69
(g78
g71
NtRp2862
(dp2863
g74
(dp2864
g82
I4
ssg83
Nsg76
(lp2865
g69
(g85
g71
NtRp2866
(dp2867
g74
(dp2868
sg83
g2862
sg76
(lp2869
g69
(g90
g71
NtRp2870
(dp2871
g74
(dp2872
g94
g95
ssg83
g2866
sg76
(lp2873
S'session_id_phyloshiny'
p2874
asbag69
(g90
g71
NtRp2875
(dp2876
g74
(dp2877
g101
g102
ssg83
g2866
sg76
(lp2878
S':'
asbag69
(g90
g71
NtRp2879
(dp2880
g74
(dp2881
sg83
g2866
sg76
(lp2882
g69
(g70
g71
NtRp2883
(dp2884
g74
(dp2885
g82
I4
ssg83
g2879
sg76
(lp2886
g69
(g78
g71
NtRp2887
(dp2888
g74
(dp2889
g82
I3
ssg83
Nsg76
(lp2890
g69
(g85
g71
NtRp2891
(dp2892
g74
(dp2893
sg83
g2887
sg76
(lp2894
g69
(g90
g71
NtRp2895
(dp2896
g74
(dp2897
g94
g95
ssg83
g2891
sg76
(lp2898
g283
asbag69
(g90
g71
NtRp2899
(dp2900
g74
(dp2901
g101
g102
ssg83
g2891
sg76
(lp2902
S':'
asbag69
(g90
g71
NtRp2903
(dp2904
g74
(dp2905
sg83
g2891
sg76
(lp2906
g69
(g70
g71
NtRp2907
(dp2908
g74
(dp2909
g82
I3
ssg83
g2903
sg76
(lp2910
S''
asbasbasbag69
(g85
g71
NtRp2911
(dp2912
g74
(dp2913
sg83
g2887
sg76
(lp2914
g69
(g90
g71
NtRp2915
(dp2916
g74
(dp2917
g94
g95
ssg83
g2911
sg76
(lp2918
g304
asbag69
(g90
g71
NtRp2919
(dp2920
g74
(dp2921
g101
g102
ssg83
g2911
sg76
(lp2922
S':'
asbag69
(g90
g71
NtRp2923
(dp2924
g74
(dp2925
sg83
g2911
sg76
(lp2926
g69
(g70
g71
NtRp2927
(dp2928
g74
(dp2929
g82
I3
ssg83
g2923
sg76
(lp2930
S''
asbasbasbag69
(g85
g71
NtRp2931
(dp2932
g74
(dp2933
sg83
g2887
sg76
(lp2934
g69
(g90
g71
NtRp2935
(dp2936
g74
(dp2937
g94
g95
ssg83
g2931
sg76
(lp2938
g325
asbag69
(g90
g71
NtRp2939
(dp2940
g74
(dp2941
g101
g102
ssg83
g2931
sg76
(lp2942
S':'
asbag69
(g90
g71
NtRp2943
(dp2944
g74
(dp2945
sg83
g2931
sg76
(lp2946
g69
(g70
g71
NtRp2947
(dp2948
g74
(dp2949
g82
I3
ssg83
g2943
sg76
(lp2950
S''
asbasbasbag69
(g85
g71
NtRp2951
(dp2952
g74
(dp2953
sg83
g2887
sg76
(lp2954
g69
(g90
g71
NtRp2955
(dp2956
g74
(dp2957
g94
g95
ssg83
g2951
sg76
(lp2958
g346
asbag69
(g90
g71
NtRp2959
(dp2960
g74
(dp2961
g101
g102
ssg83
g2951
sg76
(lp2962
S':'
asbag69
(g90
g71
NtRp2963
(dp2964
g74
(dp2965
sg83
g2951
sg76
(lp2966
g69
(g70
g71
NtRp2967
(dp2968
g74
(dp2969
g82
I3
ssg83
g2963
sg76
(lp2970
S''
asbasbasbag69
(g85
g71
NtRp2971
(dp2972
g74
(dp2973
sg83
g2887
sg76
(lp2974
g69
(g90
g71
NtRp2975
(dp2976
g74
(dp2977
g94
g95
ssg83
g2971
sg76
(lp2978
g367
asbag69
(g90
g71
NtRp2979
(dp2980
g74
(dp2981
g101
g102
ssg83
g2971
sg76
(lp2982
S':'
asbag69
(g90
g71
NtRp2983
(dp2984
g74
(dp2985
sg83
g2971
sg76
(lp2986
g69
(g70
g71
NtRp2987
(dp2988
g74
(dp2989
g82
I3
ssg83
g2983
sg76
(lp2990
S''
asbasbasbag69
(g85
g71
NtRp2991
(dp2992
g74
(dp2993
sg83
g2887
sg76
(lp2994
g69
(g90
g71
NtRp2995
(dp2996
g74
(dp2997
g94
g95
ssg83
g2991
sg76
(lp2998
g388
asbag69
(g90
g71
NtRp2999
(dp3000
g74
(dp3001
g101
g102
ssg83
g2991
sg76
(lp3002
S':'
asbag69
(g90
g71
NtRp3003
(dp3004
g74
(dp3005
sg83
g2991
sg76
(lp3006
g69
(g70
g71
NtRp3007
(dp3008
g74
(dp3009
g82
I3
ssg83
g3003
sg76
(lp3010
S'/'
asbasbasbag69
(g85
g71
NtRp3011
(dp3012
g74
(dp3013
sg83
g2887
sg76
(lp3014
g69
(g90
g71
NtRp3015
(dp3016
g74
(dp3017
g94
g95
ssg83
g3011
sg76
(lp3018
g409
asbag69
(g90
g71
NtRp3019
(dp3020
g74
(dp3021
g101
g102
ssg83
g3011
sg76
(lp3022
S':'
asbag69
(g90
g71
NtRp3023
(dp3024
g74
(dp3025
sg83
g3011
sg76
(lp3026
g69
(g70
g71
NtRp3027
(dp3028
g74
(dp3029
g82
I3
ssg83
g3023
sg76
(lp3030
S''
asbasbasbag69
(g85
g71
NtRp3031
(dp3032
g74
(dp3033
sg83
g2887
sg76
(lp3034
g69
(g90
g71
NtRp3035
(dp3036
g74
(dp3037
g94
g95
ssg83
g3031
sg76
(lp3038
g430
asbag69
(g90
g71
NtRp3039
(dp3040
g74
(dp3041
g101
g102
ssg83
g3031
sg76
(lp3042
S':'
asbag69
(g90
g71
NtRp3043
(dp3044
g74
(dp3045
sg83
g3031
sg76
(lp3046
g69
(g70
g71
NtRp3047
(dp3048
g74
(dp3049
g82
I3
ssg83
g3043
sg76
(lp3050
S''
asbasbasbasbasbasbasbasbasbasbasbag69
(g85
g71
NtRp3051
(dp3052
g74
(dp3053
sg83
g2817
sg76
(lp3054
g69
(g90
g71
NtRp3055
(dp3056
g74
(dp3057
g94
g95
ssg83
g3051
sg76
(lp3058
S'files'
p3059
asbag69
(g90
g71
NtRp3060
(dp3061
g74
(dp3062
g101
g102
ssg83
g3051
sg76
(lp3063
S':'
asbag69
(g90
g71
NtRp3064
(dp3065
g74
(dp3066
sg83
g3051
sg76
(lp3067
g69
(g70
g71
NtRp3068
(dp3069
g74
(dp3070
g82
I5
ssg83
g3064
sg76
(lp3071
g69
(g78
g71
NtRp3072
(dp3073
g74
(dp3074
g82
I4
ssg83
Nsg76
(lp3075
sbasbasbasbag69
(g85
g71
NtRp3076
(dp3077
g74
(dp3078
sg83
g2817
sg76
(lp3079
g69
(g90
g71
NtRp3080
(dp3081
g74
(dp3082
g94
g95
ssg83
g3076
sg76
(lp3083
S'flash'
p3084
asbag69
(g90
g71
NtRp3085
(dp3086
g74
(dp3087
g101
g102
ssg83
g3076
sg76
(lp3088
S':'
asbag69
(g90
g71
NtRp3089
(dp3090
g74
(dp3091
sg83
g3076
sg76
(lp3092
g69
(g70
g71
NtRp3093
(dp3094
g74
(dp3095
g82
I5
ssg83
g3089
sg76
(lp3096
S''
asbasbasbag69
(g85
g71
NtRp3097
(dp3098
g74
(dp3099
sg83
g2817
sg76
(lp3100
g69
(g90
g71
NtRp3101
(dp3102
g74
(dp3103
g94
g95
ssg83
g3097
sg76
(lp3104
S'generic_patterns'
p3105
asbag69
(g90
g71
NtRp3106
(dp3107
g74
(dp3108
g101
g102
ssg83
g3097
sg76
(lp3109
S':'
asbag69
(g90
g71
NtRp3110
(dp3111
g74
(dp3112
sg83
g3097
sg76
(lp3113
g69
(g70
g71
NtRp3114
(dp3115
g74
(dp3116
g82
I5
ssg83
g3110
sg76
(lp3117
g69
(g78
g71
NtRp3118
(dp3119
g74
(dp3120
g82
I4
ssg83
Nsg76
(lp3121
g69
(g85
g71
NtRp3122
(dp3123
g74
(dp3124
sg83
g3118
sg76
(lp3125
g69
(g90
g71
NtRp3126
(dp3127
g74
(dp3128
sg83
g3122
sg76
(lp3129
g69
(g70
g71
NtRp3130
(dp3131
g74
(dp3132
g82
I4
ssg83
g3126
sg76
(lp3133
S'*'
asbasbasbasbasbasbasbag69
(g85
g71
NtRp3134
(dp3135
g74
(dp3136
sg83
g2817
sg76
(lp3137
g69
(g90
g71
NtRp3138
(dp3139
g74
(dp3140
g94
g95
ssg83
g3134
sg76
(lp3141
S'headers'
p3142
asbag69
(g90
g71
NtRp3143
(dp3144
g74
(dp3145
g101
g102
ssg83
g3134
sg76
(lp3146
S':'
asbag69
(g90
g71
NtRp3147
(dp3148
g74
(dp3149
sg83
g3134
sg76
(lp3150
g69
(g70
g71
NtRp3151
(dp3152
g74
(dp3153
g82
I5
ssg83
g3147
sg76
(lp3154
g69
(g78
g71
NtRp3155
(dp3156
g74
(dp3157
g82
I4
ssg83
Nsg76
(lp3158
g69
(g85
g71
NtRp3159
(dp3160
g74
(dp3161
sg83
g3155
sg76
(lp3162
g69
(g90
g71
NtRp3163
(dp3164
g74
(dp3165
g94
g95
ssg83
g3159
sg76
(lp3166
S'Cache-Control'
p3167
asbag69
(g90
g71
NtRp3168
(dp3169
g74
(dp3170
g101
g102
ssg83
g3159
sg76
(lp3171
S':'
asbag69
(g90
g71
NtRp3172
(dp3173
g74
(dp3174
sg83
g3159
sg76
(lp3175
g69
(g70
g71
NtRp3176
(dp3177
g74
(dp3178
g82
I4
ssg83
g3172
sg76
(lp3179
S'no-store, no-cache, must-revalidate, post-check=0, pre-check=0'
p3180
asbasbasbag69
(g85
g71
NtRp3181
(dp3182
g74
(dp3183
sg83
g3155
sg76
(lp3184
g69
(g90
g71
NtRp3185
(dp3186
g74
(dp3187
g94
g95
ssg83
g3181
sg76
(lp3188
S'Content-Type'
p3189
asbag69
(g90
g71
NtRp3190
(dp3191
g74
(dp3192
g101
g102
ssg83
g3181
sg76
(lp3193
S':'
asbag69
(g90
g71
NtRp3194
(dp3195
g74
(dp3196
sg83
g3181
sg76
(lp3197
g69
(g70
g71
NtRp3198
(dp3199
g74
(dp3200
g82
I4
ssg83
g3194
sg76
(lp3201
S'text/html; charset=utf-8'
p3202
asbasbasbag69
(g85
g71
NtRp3203
(dp3204
g74
(dp3205
sg83
g3155
sg76
(lp3206
g69
(g90
g71
NtRp3207
(dp3208
g74
(dp3209
g94
g95
ssg83
g3203
sg76
(lp3210
S'Expires'
p3211
asbag69
(g90
g71
NtRp3212
(dp3213
g74
(dp3214
g101
g102
ssg83
g3203
sg76
(lp3215
S':'
asbag69
(g90
g71
NtRp3216
(dp3217
g74
(dp3218
sg83
g3203
sg76
(lp3219
g69
(g70
g71
NtRp3220
(dp3221
g74
(dp3222
g82
I4
ssg83
g3216
sg76
(lp3223
S'Fri, 17 May 2013 06:41:42 GMT'
p3224
asbasbasbag69
(g85
g71
NtRp3225
(dp3226
g74
(dp3227
sg83
g3155
sg76
(lp3228
g69
(g90
g71
NtRp3229
(dp3230
g74
(dp3231
g94
g95
ssg83
g3225
sg76
(lp3232
S'Pragma'
p3233
asbag69
(g90
g71
NtRp3234
(dp3235
g74
(dp3236
g101
g102
ssg83
g3225
sg76
(lp3237
S':'
asbag69
(g90
g71
NtRp3238
(dp3239
g74
(dp3240
sg83
g3225
sg76
(lp3241
g69
(g70
g71
NtRp3242
(dp3243
g74
(dp3244
g82
I4
ssg83
g3238
sg76
(lp3245
S'no-cache'
p3246
asbasbasbag69
(g85
g71
NtRp3247
(dp3248
g74
(dp3249
sg83
g3155
sg76
(lp3250
g69
(g90
g71
NtRp3251
(dp3252
g74
(dp3253
g94
g95
ssg83
g3247
sg76
(lp3254
S'X-Powered-By'
p3255
asbag69
(g90
g71
NtRp3256
(dp3257
g74
(dp3258
g101
g102
ssg83
g3247
sg76
(lp3259
S':'
asbag69
(g90
g71
NtRp3260
(dp3261
g74
(dp3262
sg83
g3247
sg76
(lp3263
g69
(g70
g71
NtRp3264
(dp3265
g74
(dp3266
g82
I4
ssg83
g3260
sg76
(lp3267
S'web2py'
p3268
asbasbasbasbasbasbasbag69
(g85
g71
NtRp3269
(dp3270
g74
(dp3271
sg83
g2817
sg76
(lp3272
g69
(g90
g71
NtRp3273
(dp3274
g74
(dp3275
g94
g95
ssg83
g3269
sg76
(lp3276
S'menu'
p3277
asbag69
(g90
g71
NtRp3278
(dp3279
g74
(dp3280
g101
g102
ssg83
g3269
sg76
(lp3281
S':'
asbag69
(g90
g71
NtRp3282
(dp3283
g74
(dp3284
sg83
g3269
sg76
(lp3285
g69
(g70
g71
NtRp3286
(dp3287
g74
(dp3288
g82
I5
ssg83
g3282
sg76
(lp3289
g69
(g78
g71
NtRp3290
(dp3291
g74
(dp3292
g82
I4
ssg83
Nsg76
(lp3293
g69
(g85
g71
NtRp3294
(dp3295
g74
(dp3296
sg83
g3290
sg76
(lp3297
g69
(g90
g71
NtRp3298
(dp3299
g74
(dp3300
sg83
g3294
sg76
(lp3301
g69
(g70
g71
NtRp3302
(dp3303
g74
(dp3304
g82
I4
ssg83
g3298
sg76
(lp3305
g69
(g78
g71
NtRp3306
(dp3307
g74
(dp3308
g82
I3
ssg83
Nsg76
(lp3309
g69
(g85
g71
NtRp3310
(dp3311
g74
(dp3312
sg83
g3306
sg76
(lp3313
g69
(g90
g71
NtRp3314
(dp3315
g74
(dp3316
sg83
g3310
sg76
(lp3317
g69
(g70
g71
NtRp3318
(dp3319
g74
(dp3320
g82
I3
ssg83
g3314
sg76
(lp3321
cgluon.languages
lazyT_unpickle
p3322
(S't\x04\x00\x00\x00Home'
tRp3323
asbasbasbag69
(g85
g71
NtRp3324
(dp3325
g74
(dp3326
sg83
g3306
sg76
(lp3327
g69
(g90
g71
NtRp3328
(dp3329
g74
(dp3330
sg83
g3324
sg76
(lp3331
g69
(g70
g71
NtRp3332
(dp3333
g74
(dp3334
g82
I3
ssg83
g3328
sg76
(lp3335
g112
asbasbasbag69
(g85
g71
NtRp3336
(dp3337
g74
(dp3338
sg83
g3306
sg76
(lp3339
g69
(g90
g71
NtRp3340
(dp3341
g74
(dp3342
sg83
g3336
sg76
(lp3343
g69
(g70
g71
NtRp3344
(dp3345
g74
(dp3346
g82
I3
ssg83
g3340
sg76
(lp3347
S'/phyloShiny/default/index'
p3348
asbasbasbag69
(g85
g71
NtRp3349
(dp3350
g74
(dp3351
sg83
g3306
sg76
(lp3352
g69
(g90
g71
NtRp3353
(dp3354
g74
(dp3355
sg83
g3349
sg76
(lp3356
g69
(g70
g71
NtRp3357
(dp3358
g74
(dp3359
g82
I3
ssg83
g3353
sg76
(lp3360
g69
(g78
g71
NtRp3361
(dp3362
g74
(dp3363
g82
I2
ssg83
Nsg76
(lp3364
sbasbasbasbasbasbasbasbag69
(g85
g71
NtRp3365
(dp3366
g74
(dp3367
sg83
g3290
sg76
(lp3368
g69
(g90
g71
NtRp3369
(dp3370
g74
(dp3371
sg83
g3365
sg76
(lp3372
g69
(g70
g71
NtRp3373
(dp3374
g74
(dp3375
g82
I4
ssg83
g3369
sg76
(lp3376
g69
(g78
g71
NtRp3377
(dp3378
g74
(dp3379
g82
I3
ssg83
Nsg76
(lp3380
g69
(g85
g71
NtRp3381
(dp3382
g74
(dp3383
sg83
g3377
sg76
(lp3384
g69
(g90
g71
NtRp3385
(dp3386
g74
(dp3387
sg83
g3381
sg76
(lp3388
g69
(g70
g71
NtRp3389
(dp3390
g74
(dp3391
g82
I3
ssg83
g3385
sg76
(lp3392
g69
(cgluon.html
SPAN
p3393
g71
NtRp3394
(dp3395
g74
(dp3396
g94
S'color:yellow'
p3397
ssg83
Nsg76
(lp3398
g3268
asbasbasbasbag69
(g85
g71
NtRp3399
(dp3400
g74
(dp3401
sg83
g3377
sg76
(lp3402
g69
(g90
g71
NtRp3403
(dp3404
g74
(dp3405
sg83
g3399
sg76
(lp3406
g69
(g70
g71
NtRp3407
(dp3408
g74
(dp3409
g82
I3
ssg83
g3403
sg76
(lp3410
g112
asbasbasbag69
(g85
g71
NtRp3411
(dp3412
g74
(dp3413
sg83
g3377
sg76
(lp3414
g69
(g90
g71
NtRp3415
(dp3416
g74
(dp3417
sg83
g3411
sg76
(lp3418
g69
(g70
g71
NtRp3419
(dp3420
g74
(dp3421
g82
I3
ssg83
g3415
sg76
(lp3422
S'None'
p3423
asbasbasbag69
(g85
g71
NtRp3424
(dp3425
g74
(dp3426
sg83
g3377
sg76
(lp3427
g69
(g90
g71
NtRp3428
(dp3429
g74
(dp3430
sg83
g3424
sg76
(lp3431
g69
(g70
g71
NtRp3432
(dp3433
g74
(dp3434
g82
I3
ssg83
g3428
sg76
(lp3435
g69
(g78
g71
NtRp3436
(dp3437
g74
(dp3438
g82
I2
ssg83
Nsg76
(lp3439
g69
(g85
g71
NtRp3440
(dp3441
g74
(dp3442
sg83
g3436
sg76
(lp3443
g69
(g90
g71
NtRp3444
(dp3445
g74
(dp3446
sg83
g3440
sg76
(lp3447
g69
(g70
g71
NtRp3448
(dp3449
g74
(dp3450
g82
I2
ssg83
g3444
sg76
(lp3451
g69
(g78
g71
NtRp3452
(dp3453
g74
(dp3454
g82
I1
ssg83
Nsg76
(lp3455
g69
(g85
g71
NtRp3456
(dp3457
g74
(dp3458
sg83
g3452
sg76
(lp3459
g69
(g90
g71
NtRp3460
(dp3461
g74
(dp3462
sg83
g3456
sg76
(lp3463
g69
(g70
g71
NtRp3464
(dp3465
g74
(dp3466
g82
I1
ssg83
g3460
sg76
(lp3467
g3322
(S's\x08\x00\x00\x00My Sites'
tRp3468
asbasbasbag69
(g85
g71
NtRp3469
(dp3470
g74
(dp3471
sg83
g3452
sg76
(lp3472
g69
(g90
g71
NtRp3473
(dp3474
g74
(dp3475
sg83
g3469
sg76
(lp3476
g69
(g70
g71
NtRp3477
(dp3478
g74
(dp3479
g82
I1
ssg83
g3473
sg76
(lp3480
I00
asbasbasbag69
(g85
g71
NtRp3481
(dp3482
g74
(dp3483
sg83
g3452
sg76
(lp3484
g69
(g90
g71
NtRp3485
(dp3486
g74
(dp3487
sg83
g3481
sg76
(lp3488
g69
(g70
g71
NtRp3489
(dp3490
g74
(dp3491
g82
I1
ssg83
g3485
sg76
(lp3492
S'/admin/default/site'
p3493
asbasbasbasbasbasbasbag69
(g85
g71
NtRp3494
(dp3495
g74
(dp3496
sg83
g3436
sg76
(lp3497
g69
(g90
g71
NtRp3498
(dp3499
g74
(dp3500
sg83
g3494
sg76
(lp3501
g69
(g70
g71
NtRp3502
(dp3503
g74
(dp3504
g82
I2
ssg83
g3498
sg76
(lp3505
g69
(g78
g71
NtRp3506
(dp3507
g74
(dp3508
g82
I1
ssg83
Nsg76
(lp3509
g69
(g85
g71
NtRp3510
(dp3511
g74
(dp3512
sg83
g3506
sg76
(lp3513
g69
(g90
g71
NtRp3514
(dp3515
g74
(dp3516
sg83
g3510
sg76
(lp3517
g69
(g70
g71
NtRp3518
(dp3519
g74
(dp3520
g82
I1
ssg83
g3514
sg76
(lp3521
g3322
(S's\x08\x00\x00\x00This App'
tRp3522
asbasbasbag69
(g85
g71
NtRp3523
(dp3524
g74
(dp3525
sg83
g3506
sg76
(lp3526
g69
(g90
g71
NtRp3527
(dp3528
g74
(dp3529
sg83
g3523
sg76
(lp3530
g69
(g70
g71
NtRp3531
(dp3532
g74
(dp3533
g82
I1
ssg83
g3527
sg76
(lp3534
I00
asbasbasbag69
(g85
g71
NtRp3535
(dp3536
g74
(dp3537
sg83
g3506
sg76
(lp3538
g69
(g90
g71
NtRp3539
(dp3540
g74
(dp3541
sg83
g3535
sg76
(lp3542
g69
(g70
g71
NtRp3543
(dp3544
g74
(dp3545
g82
I1
ssg83
g3539
sg76
(lp3546
S'/admin/default/design/phyloShiny'
p3547
asbasbasbag69
(g85
g71
NtRp3548
(dp3549
g74
(dp3550
sg83
g3506
sg76
(lp3551
g69
(g90
g71
NtRp3552
(dp3553
g74
(dp3554
sg83
g3548
sg76
(lp3555
g69
(g70
g71
NtRp3556
(dp3557
g74
(dp3558
g82
I1
ssg83
g3552
sg76
(lp3559
(lp3560
(g3322
(S't\n\x00\x00\x00Controller'
tRp3561
I00
S'/admin/default/edit/phyloShiny/controllers/reconciliotastic.py'
tp3562
a(g3322
(S't\x04\x00\x00\x00View'
tRp3563
I00
S'/admin/default/edit/phyloShiny/views/reconciliotastic/index.html'
tp3564
a(g3322
(S't\x06\x00\x00\x00Layout'
tRp3565
I00
S'/admin/default/edit/phyloShiny/views/layout.html'
tp3566
a(g3322
(S't\n\x00\x00\x00Stylesheet'
tRp3567
I00
S'/admin/default/edit/phyloShiny/static/css/web2py.css'
tp3568
a(g3322
(S's\x08\x00\x00\x00DB Model'
tRp3569
I00
S'/admin/default/edit/phyloShiny/models/db.py'
tp3570
a(g3322
(S's\n\x00\x00\x00Menu Model'
tRp3571
I00
S'/admin/default/edit/phyloShiny/models/menu.py'
tp3572
a(g3322
(S't\x08\x00\x00\x00Database'
tRp3573
I00
S'/phyloShiny/appadmin/index'
tp3574
a(g3322
(S't\x06\x00\x00\x00Errors'
tRp3575
I00
S'/admin/default/errors/phyloShiny'
tp3576
a(g3322
(S't\x05\x00\x00\x00About'
tRp3577
I00
S'/admin/default/about/phyloShiny'
tp3578
aasbasbasbasbasbasbasbag69
(g85
g71
NtRp3579
(dp3580
g74
(dp3581
sg83
g3436
sg76
(lp3582
g69
(g90
g71
NtRp3583
(dp3584
g74
(dp3585
sg83
g3579
sg76
(lp3586
g69
(g70
g71
NtRp3587
(dp3588
g74
(dp3589
g82
I2
ssg83
g3583
sg76
(lp3590
g69
(g78
g71
NtRp3591
(dp3592
g74
(dp3593
g82
I1
ssg83
Nsg76
(lp3594
g69
(g85
g71
NtRp3595
(dp3596
g74
(dp3597
sg83
g3591
sg76
(lp3598
g69
(g90
g71
NtRp3599
(dp3600
g74
(dp3601
sg83
g3595
sg76
(lp3602
g69
(g70
g71
NtRp3603
(dp3604
g74
(dp3605
g82
I1
ssg83
g3599
sg76
(lp3606
S'web2py.com'
p3607
asbasbasbag69
(g85
g71
NtRp3608
(dp3609
g74
(dp3610
sg83
g3591
sg76
(lp3611
g69
(g90
g71
NtRp3612
(dp3613
g74
(dp3614
sg83
g3608
sg76
(lp3615
g69
(g70
g71
NtRp3616
(dp3617
g74
(dp3618
g82
I1
ssg83
g3612
sg76
(lp3619
I00
asbasbasbag69
(g85
g71
NtRp3620
(dp3621
g74
(dp3622
sg83
g3591
sg76
(lp3623
g69
(g90
g71
NtRp3624
(dp3625
g74
(dp3626
sg83
g3620
sg76
(lp3627
g69
(g70
g71
NtRp3628
(dp3629
g74
(dp3630
g82
I1
ssg83
g3624
sg76
(lp3631
S'http://www.web2py.com'
p3632
asbasbasbag69
(g85
g71
NtRp3633
(dp3634
g74
(dp3635
sg83
g3591
sg76
(lp3636
g69
(g90
g71
NtRp3637
(dp3638
g74
(dp3639
sg83
g3633
sg76
(lp3640
g69
(g70
g71
NtRp3641
(dp3642
g74
(dp3643
g82
I1
ssg83
g3637
sg76
(lp3644
(lp3645
(g3322
(S't\x08\x00\x00\x00Download'
tRp3646
I00
S'http://www.web2py.com/examples/default/download'
p3647
tp3648
a(g3322
(S't\x07\x00\x00\x00Support'
tRp3649
I00
S'http://www.web2py.com/examples/default/support'
p3650
tp3651
a(g3322
(S't\x04\x00\x00\x00Demo'
tRp3652
I00
S'http://web2py.com/demo_admin'
p3653
tp3654
a(g3322
(S's\x0e\x00\x00\x00Quick Examples'
tRp3655
I00
S'http://web2py.com/examples/default/examples'
p3656
tp3657
a(g3322
(S't\x03\x00\x00\x00FAQ'
tRp3658
I00
S'http://web2py.com/AlterEgo'
p3659
tp3660
a(g3322
(S't\x06\x00\x00\x00Videos'
tRp3661
I00
S'http://www.web2py.com/examples/default/videos/'
p3662
tp3663
a(g3322
(S's\x11\x00\x00\x00Free Applications'
tRp3664
I00
S'http://web2py.com/appliances'
p3665
tp3666
a(g3322
(S't\x07\x00\x00\x00Plugins'
tRp3667
I00
S'http://web2py.com/plugins'
p3668
tp3669
a(g3322
(S't\x07\x00\x00\x00Layouts'
tRp3670
I00
S'http://web2py.com/layouts'
p3671
tp3672
a(g3322
(S't\x07\x00\x00\x00Recipes'
tRp3673
I00
S'http://web2pyslices.com/'
p3674
tp3675
a(g3322
(S't\x08\x00\x00\x00Semantic'
tRp3676
I00
S'http://web2py.com/semantic'
p3677
tp3678
aasbasbasbasbasbasbasbag69
(g85
g71
NtRp3679
(dp3680
g74
(dp3681
sg83
g3436
sg76
(lp3682
g69
(g90
g71
NtRp3683
(dp3684
g74
(dp3685
sg83
g3679
sg76
(lp3686
g69
(g70
g71
NtRp3687
(dp3688
g74
(dp3689
g82
I2
ssg83
g3683
sg76
(lp3690
g69
(g78
g71
NtRp3691
(dp3692
g74
(dp3693
g82
I1
ssg83
Nsg76
(lp3694
g69
(g85
g71
NtRp3695
(dp3696
g74
(dp3697
sg83
g3691
sg76
(lp3698
g69
(g90
g71
NtRp3699
(dp3700
g74
(dp3701
sg83
g3695
sg76
(lp3702
g69
(g70
g71
NtRp3703
(dp3704
g74
(dp3705
g82
I1
ssg83
g3699
sg76
(lp3706
g3322
(S't\r\x00\x00\x00Documentation'
tRp3707
asbasbasbag69
(g85
g71
NtRp3708
(dp3709
g74
(dp3710
sg83
g3691
sg76
(lp3711
g69
(g90
g71
NtRp3712
(dp3713
g74
(dp3714
sg83
g3708
sg76
(lp3715
g69
(g70
g71
NtRp3716
(dp3717
g74
(dp3718
g82
I1
ssg83
g3712
sg76
(lp3719
I00
asbasbasbag69
(g85
g71
NtRp3720
(dp3721
g74
(dp3722
sg83
g3691
sg76
(lp3723
g69
(g90
g71
NtRp3724
(dp3725
g74
(dp3726
sg83
g3720
sg76
(lp3727
g69
(g70
g71
NtRp3728
(dp3729
g74
(dp3730
g82
I1
ssg83
g3724
sg76
(lp3731
S'http://www.web2py.com/book'
p3732
asbasbasbag69
(g85
g71
NtRp3733
(dp3734
g74
(dp3735
sg83
g3691
sg76
(lp3736
g69
(g90
g71
NtRp3737
(dp3738
g74
(dp3739
sg83
g3733
sg76
(lp3740
g69
(g70
g71
NtRp3741
(dp3742
g74
(dp3743
g82
I1
ssg83
g3737
sg76
(lp3744
(lp3745
(g3322
(S't\x07\x00\x00\x00Preface'
tRp3746
I00
S'http://www.web2py.com/book/default/chapter/00'
p3747
tp3748
a(g3322
(S't\x0c\x00\x00\x00Introduction'
tRp3749
I00
S'http://www.web2py.com/book/default/chapter/01'
p3750
tp3751
a(g3322
(S't\x06\x00\x00\x00Python'
tRp3752
I00
S'http://www.web2py.com/book/default/chapter/02'
p3753
tp3754
a(g3322
(S't\x08\x00\x00\x00Overview'
tRp3755
I00
S'http://www.web2py.com/book/default/chapter/03'
p3756
tp3757
a(g3322
(S's\x08\x00\x00\x00The Core'
tRp3758
I00
S'http://www.web2py.com/book/default/chapter/04'
p3759
tp3760
a(g3322
(S's\t\x00\x00\x00The Views'
tRp3761
I00
S'http://www.web2py.com/book/default/chapter/05'
p3762
tp3763
a(g3322
(S't\x08\x00\x00\x00Database'
tRp3764
I00
S'http://www.web2py.com/book/default/chapter/06'
p3765
tp3766
a(g3322
(S's\x14\x00\x00\x00Forms and Validators'
tRp3767
I00
S'http://www.web2py.com/book/default/chapter/07'
p3768
tp3769
a(g3322
(S's\r\x00\x00\x00Email and SMS'
tRp3770
I00
S'http://www.web2py.com/book/default/chapter/08'
p3771
tp3772
a(g3322
(S's\x0e\x00\x00\x00Access Control'
tRp3773
I00
S'http://www.web2py.com/book/default/chapter/09'
p3774
tp3775
a(g3322
(S't\x08\x00\x00\x00Services'
tRp3776
I00
S'http://www.web2py.com/book/default/chapter/10'
p3777
tp3778
a(g3322
(S's\x0c\x00\x00\x00Ajax Recipes'
tRp3779
I00
S'http://www.web2py.com/book/default/chapter/11'
p3780
tp3781
a(g3322
(S's\x16\x00\x00\x00Components and Plugins'
tRp3782
I00
S'http://www.web2py.com/book/default/chapter/12'
p3783
tp3784
a(g3322
(S's\x12\x00\x00\x00Deployment Recipes'
tRp3785
I00
S'http://www.web2py.com/book/default/chapter/13'
p3786
tp3787
a(g3322
(S's\r\x00\x00\x00Other Recipes'
tRp3788
I00
S'http://www.web2py.com/book/default/chapter/14'
p3789
tp3790
a(g3322
(S's\r\x00\x00\x00Buy this book'
tRp3791
I00
S'http://stores.lulu.com/web2py'
p3792
tp3793
aasbasbasbasbasbasbasbag69
(g85
g71
NtRp3794
(dp3795
g74
(dp3796
sg83
g3436
sg76
(lp3797
g69
(g90
g71
NtRp3798
(dp3799
g74
(dp3800
sg83
g3794
sg76
(lp3801
g69
(g70
g71
NtRp3802
(dp3803
g74
(dp3804
g82
I2
ssg83
g3798
sg76
(lp3805
g69
(g78
g71
NtRp3806
(dp3807
g74
(dp3808
g82
I1
ssg83
Nsg76
(lp3809
g69
(g85
g71
NtRp3810
(dp3811
g74
(dp3812
sg83
g3806
sg76
(lp3813
g69
(g90
g71
NtRp3814
(dp3815
g74
(dp3816
sg83
g3810
sg76
(lp3817
g69
(g70
g71
NtRp3818
(dp3819
g74
(dp3820
g82
I1
ssg83
g3814
sg76
(lp3821
g3322
(S't\t\x00\x00\x00Community'
tRp3822
asbasbasbag69
(g85
g71
NtRp3823
(dp3824
g74
(dp3825
sg83
g3806
sg76
(lp3826
g69
(g90
g71
NtRp3827
(dp3828
g74
(dp3829
sg83
g3823
sg76
(lp3830
g69
(g70
g71
NtRp3831
(dp3832
g74
(dp3833
g82
I1
ssg83
g3827
sg76
(lp3834
I00
asbasbasbag69
(g85
g71
NtRp3835
(dp3836
g74
(dp3837
sg83
g3806
sg76
(lp3838
g69
(g90
g71
NtRp3839
(dp3840
g74
(dp3841
sg83
g3835
sg76
(lp3842
g69
(g70
g71
NtRp3843
(dp3844
g74
(dp3845
g82
I1
ssg83
g3839
sg76
(lp3846
Nasbasbasbag69
(g85
g71
NtRp3847
(dp3848
g74
(dp3849
sg83
g3806
sg76
(lp3850
g69
(g90
g71
NtRp3851
(dp3852
g74
(dp3853
sg83
g3847
sg76
(lp3854
g69
(g70
g71
NtRp3855
(dp3856
g74
(dp3857
g82
I1
ssg83
g3851
sg76
(lp3858
(lp3859
(g3322
(S't\x06\x00\x00\x00Groups'
tRp3860
I00
S'http://www.web2py.com/examples/default/usergroups'
p3861
tp3862
a(g3322
(S't\x07\x00\x00\x00Twitter'
tRp3863
I00
S'http://twitter.com/web2py'
p3864
tp3865
a(g3322
(S's\t\x00\x00\x00Live Chat'
tRp3866
I00
S'http://webchat.freenode.net/?channels=web2py'
p3867
tp3868
aasbasbasbasbasbasbasbag69
(g85
g71
NtRp3869
(dp3870
g74
(dp3871
sg83
g3436
sg76
(lp3872
g69
(g90
g71
NtRp3873
(dp3874
g74
(dp3875
sg83
g3869
sg76
(lp3876
g69
(g70
g71
NtRp3877
(dp3878
g74
(dp3879
g82
I2
ssg83
g3873
sg76
(lp3880
g69
(g78
g71
NtRp3881
(dp3882
g74
(dp3883
g82
I1
ssg83
Nsg76
(lp3884
g69
(g85
g71
NtRp3885
(dp3886
g74
(dp3887
sg83
g3881
sg76
(lp3888
g69
(g90
g71
NtRp3889
(dp3890
g74
(dp3891
sg83
g3885
sg76
(lp3892
g69
(g70
g71
NtRp3893
(dp3894
g74
(dp3895
g82
I1
ssg83
g3889
sg76
(lp3896
g3322
(S't\x07\x00\x00\x00Plugins'
tRp3897
asbasbasbag69
(g85
g71
NtRp3898
(dp3899
g74
(dp3900
sg83
g3881
sg76
(lp3901
g69
(g90
g71
NtRp3902
(dp3903
g74
(dp3904
sg83
g3898
sg76
(lp3905
g69
(g70
g71
NtRp3906
(dp3907
g74
(dp3908
g82
I1
ssg83
g3902
sg76
(lp3909
I00
asbasbasbag69
(g85
g71
NtRp3910
(dp3911
g74
(dp3912
sg83
g3881
sg76
(lp3913
g69
(g90
g71
NtRp3914
(dp3915
g74
(dp3916
sg83
g3910
sg76
(lp3917
g69
(g70
g71
NtRp3918
(dp3919
g74
(dp3920
g82
I1
ssg83
g3914
sg76
(lp3921
Nasbasbasbag69
(g85
g71
NtRp3922
(dp3923
g74
(dp3924
sg83
g3881
sg76
(lp3925
g69
(g90
g71
NtRp3926
(dp3927
g74
(dp3928
sg83
g3922
sg76
(lp3929
g69
(g70
g71
NtRp3930
(dp3931
g74
(dp3932
g82
I1
ssg83
g3926
sg76
(lp3933
(lp3934
(S'plugin_wiki'
p3935
I00
S'http://web2py.com/examples/default/download'
p3936
tp3937
a(g3322
(S's\r\x00\x00\x00Other Plugins'
tRp3938
I00
g3668
tp3939
a(g3322
(S's\x0e\x00\x00\x00Layout Plugins'
tRp3940
I00
g3671
tp3941
aasbasbasbasbasbasbasbasbasbasbasbasbasbasbasbasbasbasbasbag69
(g85
g71
NtRp3942
(dp3943
g74
(dp3944
sg83
g2817
sg76
(lp3945
g69
(g90
g71
NtRp3946
(dp3947
g74
(dp3948
g94
g95
ssg83
g3942
sg76
(lp3949
S'meta'
p3950
asbag69
(g90
g71
NtRp3951
(dp3952
g74
(dp3953
g101
g102
ssg83
g3942
sg76
(lp3954
S':'
asbag69
(g90
g71
NtRp3955
(dp3956
g74
(dp3957
sg83
g3942
sg76
(lp3958
g69
(g70
g71
NtRp3959
(dp3960
g74
(dp3961
g82
I5
ssg83
g3955
sg76
(lp3962
g69
(g78
g71
NtRp3963
(dp3964
g74
(dp3965
g82
I4
ssg83
Nsg76
(lp3966
g69
(g85
g71
NtRp3967
(dp3968
g74
(dp3969
sg83
g3963
sg76
(lp3970
g69
(g90
g71
NtRp3971
(dp3972
g74
(dp3973
g94
g95
ssg83
g3967
sg76
(lp3974
S'author'
p3975
asbag69
(g90
g71
NtRp3976
(dp3977
g74
(dp3978
g101
g102
ssg83
g3967
sg76
(lp3979
S':'
asbag69
(g90
g71
NtRp3980
(dp3981
g74
(dp3982
sg83
g3967
sg76
(lp3983
g69
(g70
g71
NtRp3984
(dp3985
g74
(dp3986
g82
I4
ssg83
g3980
sg76
(lp3987
S'Your Name <you@example.com>'
p3988
asbasbasbag69
(g85
g71
NtRp3989
(dp3990
g74
(dp3991
sg83
g3963
sg76
(lp3992
g69
(g90
g71
NtRp3993
(dp3994
g74
(dp3995
g94
g95
ssg83
g3989
sg76
(lp3996
S'copyright'
p3997
asbag69
(g90
g71
NtRp3998
(dp3999
g74
(dp4000
g101
g102
ssg83
g3989
sg76
(lp4001
S':'
asbag69
(g90
g71
NtRp4002
(dp4003
g74
(dp4004
sg83
g3989
sg76
(lp4005
g69
(g70
g71
NtRp4006
(dp4007
g74
(dp4008
g82
I4
ssg83
g4002
sg76
(lp4009
S'Copyright 2011'
p4010
asbasbasbag69
(g85
g71
NtRp4011
(dp4012
g74
(dp4013
sg83
g3963
sg76
(lp4014
g69
(g90
g71
NtRp4015
(dp4016
g74
(dp4017
g94
g95
ssg83
g4011
sg76
(lp4018
S'description'
p4019
asbag69
(g90
g71
NtRp4020
(dp4021
g74
(dp4022
g101
g102
ssg83
g4011
sg76
(lp4023
S':'
asbag69
(g90
g71
NtRp4024
(dp4025
g74
(dp4026
sg83
g4011
sg76
(lp4027
g69
(g70
g71
NtRp4028
(dp4029
g74
(dp4030
g82
I4
ssg83
g4024
sg76
(lp4031
S'a cool new app'
p4032
asbasbasbag69
(g85
g71
NtRp4033
(dp4034
g74
(dp4035
sg83
g3963
sg76
(lp4036
g69
(g90
g71
NtRp4037
(dp4038
g74
(dp4039
g94
g95
ssg83
g4033
sg76
(lp4040
S'generator'
p4041
asbag69
(g90
g71
NtRp4042
(dp4043
g74
(dp4044
g101
g102
ssg83
g4033
sg76
(lp4045
S':'
asbag69
(g90
g71
NtRp4046
(dp4047
g74
(dp4048
sg83
g4033
sg76
(lp4049
g69
(g70
g71
NtRp4050
(dp4051
g74
(dp4052
g82
I4
ssg83
g4046
sg76
(lp4053
S'Web2py Web Framework'
p4054
asbasbasbag69
(g85
g71
NtRp4055
(dp4056
g74
(dp4057
sg83
g3963
sg76
(lp4058
g69
(g90
g71
NtRp4059
(dp4060
g74
(dp4061
g94
g95
ssg83
g4055
sg76
(lp4062
S'keywords'
p4063
asbag69
(g90
g71
NtRp4064
(dp4065
g74
(dp4066
g101
g102
ssg83
g4055
sg76
(lp4067
S':'
asbag69
(g90
g71
NtRp4068
(dp4069
g74
(dp4070
sg83
g4055
sg76
(lp4071
g69
(g70
g71
NtRp4072
(dp4073
g74
(dp4074
g82
I4
ssg83
g4068
sg76
(lp4075
S'web2py, python, framework'
p4076
asbasbasbasbasbasbasbag69
(g85
g71
NtRp4077
(dp4078
g74
(dp4079
sg83
g2817
sg76
(lp4080
g69
(g90
g71
NtRp4081
(dp4082
g74
(dp4083
g94
g95
ssg83
g4077
sg76
(lp4084
S'postprocessing'
p4085
asbag69
(g90
g71
NtRp4086
(dp4087
g74
(dp4088
g101
g102
ssg83
g4077
sg76
(lp4089
S':'
asbag69
(g90
g71
NtRp4090
(dp4091
g74
(dp4092
sg83
g4077
sg76
(lp4093
g69
(g70
g71
NtRp4094
(dp4095
g74
(dp4096
g82
I5
ssg83
g4090
sg76
(lp4097
g69
(g78
g71
NtRp4098
(dp4099
g74
(dp4100
g82
I4
ssg83
Nsg76
(lp4101
sbasbasbasbag69
(g85
g71
NtRp4102
(dp4103
g74
(dp4104
sg83
g2817
sg76
(lp4105
g69
(g90
g71
NtRp4106
(dp4107
g74
(dp4108
g94
g95
ssg83
g4102
sg76
(lp4109
S'session_filename'
p4110
asbag69
(g90
g71
NtRp4111
(dp4112
g74
(dp4113
g101
g102
ssg83
g4102
sg76
(lp4114
S':'
asbag69
(g90
g71
NtRp4115
(dp4116
g74
(dp4117
sg83
g4102
sg76
(lp4118
g69
(g70
g71
NtRp4119
(dp4120
g74
(dp4121
g82
I5
ssg83
g4115
sg76
(lp4122
S'/home/prateek/web2py/applications/phyloShiny/sessions/127.0.0.1-ed0608ef-3b42-4e7e-b682-b7586bf4cabe'
p4123
asbasbasbag69
(g85
g71
NtRp4124
(dp4125
g74
(dp4126
sg83
g2817
sg76
(lp4127
g69
(g90
g71
NtRp4128
(dp4129
g74
(dp4130
g94
g95
ssg83
g4124
sg76
(lp4131
S'session_id'
p4132
asbag69
(g90
g71
NtRp4133
(dp4134
g74
(dp4135
g101
g102
ssg83
g4124
sg76
(lp4136
S':'
asbag69
(g90
g71
NtRp4137
(dp4138
g74
(dp4139
sg83
g4124
sg76
(lp4140
g69
(g70
g71
NtRp4141
(dp4142
g74
(dp4143
g82
I5
ssg83
g4137
sg76
(lp4144
S'127.0.0.1-ed0608ef-3b42-4e7e-b682-b7586bf4cabe'
p4145
asbasbasbag69
(g85
g71
NtRp4146
(dp4147
g74
(dp4148
sg83
g2817
sg76
(lp4149
g69
(g90
g71
NtRp4150
(dp4151
g74
(dp4152
g94
g95
ssg83
g4146
sg76
(lp4153
S'session_id_name'
p4154
asbag69
(g90
g71
NtRp4155
(dp4156
g74
(dp4157
g101
g102
ssg83
g4146
sg76
(lp4158
S':'
asbag69
(g90
g71
NtRp4159
(dp4160
g74
(dp4161
sg83
g4146
sg76
(lp4162
g69
(g70
g71
NtRp4163
(dp4164
g74
(dp4165
g82
I5
ssg83
g4159
sg76
(lp4166
g2874
asbasbasbag69
(g85
g71
NtRp4167
(dp4168
g74
(dp4169
sg83
g2817
sg76
(lp4170
g69
(g90
g71
NtRp4171
(dp4172
g74
(dp4173
g94
g95
ssg83
g4167
sg76
(lp4174
S'session_new'
p4175
asbag69
(g90
g71
NtRp4176
(dp4177
g74
(dp4178
g101
g102
ssg83
g4167
sg76
(lp4179
S':'
asbag69
(g90
g71
NtRp4180
(dp4181
g74
(dp4182
sg83
g4167
sg76
(lp4183
g69
(g70
g71
NtRp4184
(dp4185
g74
(dp4186
g82
I5
ssg83
g4180
sg76
(lp4187
g1461
asbasbasbag69
(g85
g71
NtRp4188
(dp4189
g74
(dp4190
sg83
g2817
sg76
(lp4191
g69
(g90
g71
NtRp4192
(dp4193
g74
(dp4194
g94
g95
ssg83
g4188
sg76
(lp4195
S'status'
p4196
asbag69
(g90
g71
NtRp4197
(dp4198
g74
(dp4199
g101
g102
ssg83
g4188
sg76
(lp4200
S':'
asbag69
(g90
g71
NtRp4201
(dp4202
g74
(dp4203
sg83
g4188
sg76
(lp4204
g69
(g70
g71
NtRp4205
(dp4206
g74
(dp4207
g82
I5
ssg83
g4201
sg76
(lp4208
S'200'
p4209
asbasbasbag69
(g85
g71
NtRp4210
(dp4211
g74
(dp4212
sg83
g2817
sg76
(lp4213
g69
(g90
g71
NtRp4214
(dp4215
g74
(dp4216
g94
g95
ssg83
g4210
sg76
(lp4217
S'subtitle'
p4218
asbag69
(g90
g71
NtRp4219
(dp4220
g74
(dp4221
g101
g102
ssg83
g4210
sg76
(lp4222
S':'
asbag69
(g90
g71
NtRp4223
(dp4224
g74
(dp4225
sg83
g4210
sg76
(lp4226
g69
(g70
g71
NtRp4227
(dp4228
g74
(dp4229
g82
I5
ssg83
g4223
sg76
(lp4230
g3322
(S's\r\x00\x00\x00customize me!'
tRp4231
asbasbasbag69
(g85
g71
NtRp4232
(dp4233
g74
(dp4234
sg83
g2817
sg76
(lp4235
g69
(g90
g71
NtRp4236
(dp4237
g74
(dp4238
g94
g95
ssg83
g4232
sg76
(lp4239
S'title'
p4240
asbag69
(g90
g71
NtRp4241
(dp4242
g74
(dp4243
g101
g102
ssg83
g4232
sg76
(lp4244
S':'
asbag69
(g90
g71
NtRp4245
(dp4246
g74
(dp4247
sg83
g4232
sg76
(lp4248
g69
(g70
g71
NtRp4249
(dp4250
g74
(dp4251
g82
I5
ssg83
g4245
sg76
(lp4252
S'Phyloshiny'
p4253
asbasbasbag69
(g85
g71
NtRp4254
(dp4255
g74
(dp4256
sg83
g2817
sg76
(lp4257
g69
(g90
g71
NtRp4258
(dp4259
g74
(dp4260
g94
g95
ssg83
g4254
sg76
(lp4261
g2125
asbag69
(g90
g71
NtRp4262
(dp4263
g74
(dp4264
g101
g102
ssg83
g4254
sg76
(lp4265
S':'
asbag69
(g90
g71
NtRp4266
(dp4267
g74
(dp4268
sg83
g4254
sg76
(lp4269
g69
(g70
g71
NtRp4270
(dp4271
g74
(dp4272
g82
I5
ssg83
g4266
sg76
(lp4273
g2138
asbasbasbag69
(g85
g71
NtRp4274
(dp4275
g74
(dp4276
sg83
g2817
sg76
(lp4277
g69
(g90
g71
NtRp4278
(dp4279
g74
(dp4280
g94
g95
ssg83
g4274
sg76
(lp4281
S'view'
p4282
asbag69
(g90
g71
NtRp4283
(dp4284
g74
(dp4285
g101
g102
ssg83
g4274
sg76
(lp4286
S':'
asbag69
(g90
g71
NtRp4287
(dp4288
g74
(dp4289
sg83
g4274
sg76
(lp4290
g69
(g70
g71
NtRp4291
(dp4292
g74
(dp4293
g82
I5
ssg83
g4287
sg76
(lp4294
S'reconciliotastic/index.html'
p4295
asbasbasbasbasbsS'locals'
p4296
(dp4297
g4
S"'/home/prateek/web2py/applications/phyloShiny/controllers/reconciliotastic.py'"
p4298
sg6
S"'# -*- coding: utf-8 -*-\\n# this file is released ...     ) )\\n\\nresponse._vars=response._caller(index)\\n'"
p4299
sssS'traceback'
p4300
S'Traceback (most recent call last):\n  File "/usr/lib/pymodules/python2.7/gluon/restricted.py", line 203, in restricted\n    ccode = compile2(code,layer)\n  File "/usr/lib/pymodules/python2.7/gluon/restricted.py", line 189, in compile2\n    return compile(code.rstrip().replace(\'\\r\\n\',\'\\n\')+\'\\n\', layer, \'exec\')\n  File "/home/prateek/web2py/applications/phyloShiny/controllers/reconciliotastic.py", line 15\n    import Bio import Phylo\n                    ^\nSyntaxError: invalid syntax\n'
p4301
s.