(dp1
S'output'
p2
S'<class \'Bio.Phylo.NewickIO.NewickError\'> Text after semicolon in Newick tree: charset=utf-8">'
p3
sS'layer'
p4
S'/home/prateek/web2py/applications/phyloShiny/controllers/reconciliotastic.py'
p5
sS'code'
p6
S'# -*- coding: utf-8 -*-\n# this file is released under public domain and you can use without limitations\n\n#########################################################################\n## This is a sample controller\n## - index is the default action of any application\n## - user is required for authentication and authorization\n## - download is for downloading files uploaded in the db (does streaming)\n## - call exposes all registered services (none by default)\n#########################################################################\nimport os\nimport socket\nimport urllib2\nfrom gluon import *\nimport sys\nbiopython_lib = request.folder + "modules/"\nsys.path.append(biopython_lib)\nfrom Bio import Phylo\nfrom Bio.Phylo import *\t\t\t\t\t\t\t#import biopython modules as per requirement \n\n\ndef index():\n    rootFolder = current.request.folder\n    folders = os.listdir(rootFolder+\'static/sample_data/\')\n\n    # Go through the subfolders within sample_data, only keep folders\n    # that match \'demo\'\n    folders = [x.split(\'_\',1)[1] for x in folders if x.split(\'_\')[0] == \'demo\']\n    folderLabels = [x.replace(\'_\', \' \') for x in folders]\n\n    # Return a list of tuples, like [ [\'Mammal_Hemoglobin\', \'Mammal Hemoglobin\'] , ... ]\n    # This lets us have nice display names in the <select> element in the view.\n    foldersAndLabels = zip(folders, folderLabels)\n    return dict(foldersAndLabels=foldersAndLabels)\n\ndef getFileName():\n    # Returns the absolute filename for the "input" gene tree\n    # file. Uses the treeFileName request parameter, as that\'s our\n    # main state-tracking value passed between the view and controller\n    # between each step.\n    rootFolder = current.request.folder\n    absoluteFileName = rootFolder+current.request.vars.treeFileName\n    return absoluteFileName\n\ndef getRelativeWebPath(suffix):\n    # Currently a no-op.\n    return suffix\n\ndef visualize():\n    # Visualize controller. Does some preprocessing before generating\n    # the HTML for viewing a given tree.\n\n    # Takes in the \'treeName\' and \'file\' params, and creates the URL\n    # which can be used to access / download the given tree file. This\n    # is only really necessary because the <applet> tag requires a\n    # parameter, which is then sent to Archaeopteryx, that requires\n    # the *entire* URL of the tree to load. With a non-applet based\n    # visualization this wouldn\'t be an issue.\n    treeFile = current.request.vars.treeName\n    suffix = current.request.vars.file\n\n    # Use the request http_host.\n    hostname = current.request.env.http_host\n\n    # Toggle to phylotastic URL if we detect a NESCENT socket host.\n    socket_hostname = socket.gethostname()\n    if \'phylotastic\' in socket_hostname.lower():\n        hostname = \'phylotastic.nescent.org\'\n\n    treeUrl = URL(\'static\', \'sample_data/demo_\'+treeFile+\'/input_genetree.nwk\'+suffix,\n                 scheme=\'http\', host=hostname)\n\n    return dict(treeUrl=treeUrl,\n                header=current.request.vars.header)\n\ndef getSpeciesList():\n    # Absolute file name of the input tree file.\n    absoluteFileName = getFileName()\n    # "Prefix", i.e. the input tree file without the ending\n    # \'.txt\'. This is used as the prefix for all generated output\n    # files\n    filePrefix = absoluteFileName[:-4]\n\n    shellCall = \'java -Xmx1024m -cp \'\n    shellCall += current.request.folder+\'static/lib/forester.jar \'\n    shellCall += \'org.forester.application.gene_tree_preprocess \'\n    shellCall += absoluteFileName\n    os.system(shellCall)\n\n    removedNodes = [l.strip() for l in open(filePrefix+\'_removed_nodes.txt\').readlines()]\n    keptNodes = [l.strip() for l in open(filePrefix+\'_species_present.txt\').readlines()]\n    \n    geneTreeFile = getRelativeWebPath(\'_preprocessed_gene_tree.phylo.xml\')\n\n    # Note: we always return the \'vizFile\' and \'vizLabel\' data values\n    # from each Ajax call, as they\'re used consistently by the\n    # front-end to generate visualization links.\n    return response.json( dict(vizFile = geneTreeFile,\n                               vizLabel = "Input Gene Tree",\n                               removedNodes = removedNodes, \n                               keptNodes = keptNodes))\n\ndef getPhylotasticTree():\n    absoluteFileName = getFileName()\n    filePrefix = absoluteFileName[:-4]\n\n    # Load the kept nodes and create the comma-delimited species\n    # string for sending to PTastic\n    speciesList = [l.strip() for l in open(filePrefix+\'_species_present.txt\').readlines()]\n    # Need underscores instead of spaces\n    speciesList = [x.replace(\' \', \'_\') for x in speciesList]\n    speciesString = \',\'.join(speciesList)\n\n    phylotasticUrlBase = \'http://phylotastic-wg.nescent.org/script/phylotastic.cgi?species=\'\n    speciesTreeUrl = phylotasticUrlBase+speciesString+\'&tree=mammals&format=newick\'\n    conn = urllib2.urlopen(speciesTreeUrl)\n    speciesTreeString = conn.read()\n    speciesTreeString = speciesTreeString.strip()\n\n    speciesTreeFilename = filePrefix+\'_species_tree.txt\'\n    open(speciesTreeFilename,\'w\').write(speciesTreeString)\n    \n    got_nodes=0\t\t\t\t\t\t\t\t\t#global counter to keep the count of the nodes\n    tree = Phylo.read(speciesTreeFilename, \'newick\')\t\t\t\t#tree reads the species labels in newick format\n    got_nodes=BaseTree.TreeMixin.count_terminals(tree);\n##  got_nodes=count\n    #no. of non-terminal nodes received in got_nodes.Now can be printed or checked with user input value to test if all species received.\n    #then further we can maintain a textview in the frontend indicating the number of nodes(i.e. the number of species)\n\n    speciesTreeWebFile = getRelativeWebPath(\'_species_tree.txt\')\n\n    return response.json( dict(vizFile = speciesTreeWebFile,\n                               vizLabel = "Phylotastic Species Tree",\n\t\t\t       got_nodes=got_nodes\n                               ) )\n\n##def countnodes():\n\n    #setting a counter for counting nodes i.e.number of species in the species newick tree.\n    #I have referenced the link http://biopython.org/DIST/docs/tutorial/Tutorial.html#htoc182 to know the get_terminals() function\n\n##    count=0\t\t\t\t\t\t\t\t\t#global counter to keep the count of the nodes\n##    tree = Phylo.read(speciesTreeFilename, \'newick\')\t\t\t\t#tree reads the species labels in newick format\n##    for node in tree.get_terminals(): \t\t\t\t\t#loop to traverse through these nodes\n##\t    count+=1\t\t\t\t\t\t\t\t\t#updating counter value\n##    count=tree.count_terminals;\n##    return count\t\t\t\t\t\t\t\t#counter value return\n\n\ndef reconcileTrees():\n    absoluteFileName = getFileName()\n    filePrefix = absoluteFileName[:-4]\n\n    geneTreeFile = filePrefix+\'_preprocessed_gene_tree.phylo.xml\'\n    speciesTreeFile = filePrefix+\'_species_tree.txt\'\n\n    shellCall = \'java -Xmx1024m -cp \'\n    shellCall += current.request.folder+\'static/lib/forester.jar \'\n    shellCall += \'org.forester.application.gsdi \'\n    shellCall += \'-m -q \'\n    shellCall += geneTreeFile\n    shellCall += \' \'+speciesTreeFile\n\n    os.system(shellCall)\n    \n    reconciledTreeWebFile = getRelativeWebPath(\'_preprocessed_gene_tree.phylo_gsdi_out.phylo.xml\')\n    \n    return response.json( dict(vizFile = reconciledTreeWebFile,\n                               vizLabel = "Reconciled Tree (red=duplication, green=speciation)"\n                               ) )\n\nresponse._vars=response._caller(getPhylotasticTree)\n'
p7
sS'snapshot'
p8
(dp9
S'exception'
p10
(dp11
S'__module__'
p12
S"'Bio.Phylo.NewickIO'"
p13
sS'__getslice__'
p14
S"<method-wrapper '__getslice__' of NewickError object>"
p15
sS'__str__'
p16
S"<method-wrapper '__str__' of NewickError object>"
p17
sS'__reduce__'
p18
S'<built-in method __reduce__ of NewickError object>'
p19
sS'__dict__'
p20
S'{}'
p21
sS'__sizeof__'
p22
S'<built-in method __sizeof__ of NewickError object>'
p23
sS'__weakref__'
p24
S'None'
p25
sS'__init__'
p26
S"<method-wrapper '__init__' of NewickError object>"
p27
sS'__setattr__'
p28
S"<method-wrapper '__setattr__' of NewickError object>"
p29
sS'__reduce_ex__'
p30
S'<built-in method __reduce_ex__ of NewickError object>'
p31
sS'__new__'
p32
S'<built-in method __new__ of type object>'
p33
sS'__format__'
p34
S'<built-in method __format__ of NewickError object>'
p35
sS'__class__'
p36
S"<class 'Bio.Phylo.NewickIO.NewickError'>"
p37
sS'__doc__'
p38
S"'Exception raised when Newick object construction cannot continue.'"
p39
sS'__getitem__'
p40
S"<method-wrapper '__getitem__' of NewickError object>"
p41
sS'__setstate__'
p42
S'<built-in method __setstate__ of NewickError object>'
p43
sS'__getattribute__'
p44
S"<method-wrapper '__getattribute__' of NewickError object>"
p45
sS'args'
p46
S'(\'Text after semicolon in Newick tree: charset=utf-8">\',)'
p47
sS'__subclasshook__'
p48
S'<built-in method __subclasshook__ of type object>'
p49
sS'__unicode__'
p50
S'<built-in method __unicode__ of NewickError object>'
p51
sS'__delattr__'
p52
S"<method-wrapper '__delattr__' of NewickError object>"
p53
sS'__repr__'
p54
S"<method-wrapper '__repr__' of NewickError object>"
p55
sS'__hash__'
p56
S"<method-wrapper '__hash__' of NewickError object>"
p57
ssS'evalue'
p58
S'Text after semicolon in Newick tree: charset=utf-8">'
p59
sS'request'
p60
ccopy_reg
_reconstructor
p61
(cgluon.html
BEAUTIFY
p62
c__builtin__
object
p63
NtRp64
(dp65
S'attributes'
p66
(dp67
sS'components'
p68
(lp69
g61
(cgluon.html
TABLE
p70
g63
NtRp71
(dp72
g66
(dp73
S'level'
p74
I5
ssS'parent'
p75
Nsg68
(lp76
g61
(cgluon.html
TR
p77
g63
NtRp78
(dp79
g66
(dp80
sg75
g71
sg68
(lp81
g61
(cgluon.html
TD
p82
g63
NtRp83
(dp84
g66
(dp85
S'_style'
p86
S'font-weight:bold;vertical-align:top'
p87
ssg75
g78
sg68
(lp88
S'ajax'
p89
asbag61
(g82
g63
NtRp90
(dp91
g66
(dp92
S'_valign'
p93
S'top'
p94
ssg75
g78
sg68
(lp95
S':'
asbag61
(g82
g63
NtRp96
(dp97
g66
(dp98
sg75
g78
sg68
(lp99
g61
(g62
g63
NtRp100
(dp101
g66
(dp102
g74
I5
ssg75
g96
sg68
(lp103
S'True'
p104
asbasbasbag61
(g77
g63
NtRp105
(dp106
g66
(dp107
sg75
g71
sg68
(lp108
g61
(g82
g63
NtRp109
(dp110
g66
(dp111
g86
g87
ssg75
g105
sg68
(lp112
S'application'
p113
asbag61
(g82
g63
NtRp114
(dp115
g66
(dp116
g93
g94
ssg75
g105
sg68
(lp117
S':'
asbag61
(g82
g63
NtRp118
(dp119
g66
(dp120
sg75
g105
sg68
(lp121
g61
(g62
g63
NtRp122
(dp123
g66
(dp124
g74
I5
ssg75
g118
sg68
(lp125
S'phyloShiny'
p126
asbasbasbag61
(g77
g63
NtRp127
(dp128
g66
(dp129
sg75
g71
sg68
(lp130
g61
(g82
g63
NtRp131
(dp132
g66
(dp133
g86
g87
ssg75
g127
sg68
(lp134
g46
asbag61
(g82
g63
NtRp135
(dp136
g66
(dp137
g93
g94
ssg75
g127
sg68
(lp138
S':'
asbag61
(g82
g63
NtRp139
(dp140
g66
(dp141
sg75
g127
sg68
(lp142
g61
(g62
g63
NtRp143
(dp144
g66
(dp145
g74
I5
ssg75
g139
sg68
(lp146
g61
(g70
g63
NtRp147
(dp148
g66
(dp149
g74
I4
ssg75
Nsg68
(lp150
sbasbasbasbag61
(g77
g63
NtRp151
(dp152
g66
(dp153
sg75
g71
sg68
(lp154
g61
(g82
g63
NtRp155
(dp156
g66
(dp157
g86
g87
ssg75
g151
sg68
(lp158
S'body'
p159
asbag61
(g82
g63
NtRp160
(dp161
g66
(dp162
g93
g94
ssg75
g151
sg68
(lp163
S':'
asbag61
(g82
g63
NtRp164
(dp165
g66
(dp166
sg75
g151
sg68
(lp167
g61
(g62
g63
NtRp168
(dp169
g66
(dp170
g74
I5
ssg75
g164
sg68
(lp171
S'<cStringIO.StringO object at 0xa1d7da0>'
p172
asbasbasbag61
(g77
g63
NtRp173
(dp174
g66
(dp175
sg75
g71
sg68
(lp176
g61
(g82
g63
NtRp177
(dp178
g66
(dp179
g86
g87
ssg75
g173
sg68
(lp180
S'client'
p181
asbag61
(g82
g63
NtRp182
(dp183
g66
(dp184
g93
g94
ssg75
g173
sg68
(lp185
S':'
asbag61
(g82
g63
NtRp186
(dp187
g66
(dp188
sg75
g173
sg68
(lp189
g61
(g62
g63
NtRp190
(dp191
g66
(dp192
g74
I5
ssg75
g186
sg68
(lp193
S'127.0.0.1'
p194
asbasbasbag61
(g77
g63
NtRp195
(dp196
g66
(dp197
sg75
g71
sg68
(lp198
g61
(g82
g63
NtRp199
(dp200
g66
(dp201
g86
g87
ssg75
g195
sg68
(lp202
S'controller'
p203
asbag61
(g82
g63
NtRp204
(dp205
g66
(dp206
g93
g94
ssg75
g195
sg68
(lp207
S':'
asbag61
(g82
g63
NtRp208
(dp209
g66
(dp210
sg75
g195
sg68
(lp211
g61
(g62
g63
NtRp212
(dp213
g66
(dp214
g74
I5
ssg75
g208
sg68
(lp215
S'reconciliotastic'
p216
asbasbasbag61
(g77
g63
NtRp217
(dp218
g66
(dp219
sg75
g71
sg68
(lp220
g61
(g82
g63
NtRp221
(dp222
g66
(dp223
g86
g87
ssg75
g217
sg68
(lp224
S'cookies'
p225
asbag61
(g82
g63
NtRp226
(dp227
g66
(dp228
g93
g94
ssg75
g217
sg68
(lp229
S':'
asbag61
(g82
g63
NtRp230
(dp231
g66
(dp232
sg75
g217
sg68
(lp233
g61
(g62
g63
NtRp234
(dp235
g66
(dp236
g74
I5
ssg75
g230
sg68
(lp237
g61
(g70
g63
NtRp238
(dp239
g66
(dp240
g74
I4
ssg75
Nsg68
(lp241
g61
(g77
g63
NtRp242
(dp243
g66
(dp244
sg75
g238
sg68
(lp245
g61
(g82
g63
NtRp246
(dp247
g66
(dp248
g86
g87
ssg75
g242
sg68
(lp249
S'session_id_admin'
p250
asbag61
(g82
g63
NtRp251
(dp252
g66
(dp253
g93
g94
ssg75
g242
sg68
(lp254
S':'
asbag61
(g82
g63
NtRp255
(dp256
g66
(dp257
sg75
g242
sg68
(lp258
g61
(g62
g63
NtRp259
(dp260
g66
(dp261
g74
I4
ssg75
g255
sg68
(lp262
g61
(g70
g63
NtRp263
(dp264
g66
(dp265
g74
I3
ssg75
Nsg68
(lp266
g61
(g77
g63
NtRp267
(dp268
g66
(dp269
sg75
g263
sg68
(lp270
g61
(g82
g63
NtRp271
(dp272
g66
(dp273
g86
g87
ssg75
g267
sg68
(lp274
S'comment'
p275
asbag61
(g82
g63
NtRp276
(dp277
g66
(dp278
g93
g94
ssg75
g267
sg68
(lp279
S':'
asbag61
(g82
g63
NtRp280
(dp281
g66
(dp282
sg75
g267
sg68
(lp283
g61
(g62
g63
NtRp284
(dp285
g66
(dp286
g74
I3
ssg75
g280
sg68
(lp287
S''
asbasbasbag61
(g77
g63
NtRp288
(dp289
g66
(dp290
sg75
g263
sg68
(lp291
g61
(g82
g63
NtRp292
(dp293
g66
(dp294
g86
g87
ssg75
g288
sg68
(lp295
S'domain'
p296
asbag61
(g82
g63
NtRp297
(dp298
g66
(dp299
g93
g94
ssg75
g288
sg68
(lp300
S':'
asbag61
(g82
g63
NtRp301
(dp302
g66
(dp303
sg75
g288
sg68
(lp304
g61
(g62
g63
NtRp305
(dp306
g66
(dp307
g74
I3
ssg75
g301
sg68
(lp308
S''
asbasbasbag61
(g77
g63
NtRp309
(dp310
g66
(dp311
sg75
g263
sg68
(lp312
g61
(g82
g63
NtRp313
(dp314
g66
(dp315
g86
g87
ssg75
g309
sg68
(lp316
S'expires'
p317
asbag61
(g82
g63
NtRp318
(dp319
g66
(dp320
g93
g94
ssg75
g309
sg68
(lp321
S':'
asbag61
(g82
g63
NtRp322
(dp323
g66
(dp324
sg75
g309
sg68
(lp325
g61
(g62
g63
NtRp326
(dp327
g66
(dp328
g74
I3
ssg75
g322
sg68
(lp329
S''
asbasbasbag61
(g77
g63
NtRp330
(dp331
g66
(dp332
sg75
g263
sg68
(lp333
g61
(g82
g63
NtRp334
(dp335
g66
(dp336
g86
g87
ssg75
g330
sg68
(lp337
S'httponly'
p338
asbag61
(g82
g63
NtRp339
(dp340
g66
(dp341
g93
g94
ssg75
g330
sg68
(lp342
S':'
asbag61
(g82
g63
NtRp343
(dp344
g66
(dp345
sg75
g330
sg68
(lp346
g61
(g62
g63
NtRp347
(dp348
g66
(dp349
g74
I3
ssg75
g343
sg68
(lp350
S''
asbasbasbag61
(g77
g63
NtRp351
(dp352
g66
(dp353
sg75
g263
sg68
(lp354
g61
(g82
g63
NtRp355
(dp356
g66
(dp357
g86
g87
ssg75
g351
sg68
(lp358
S'max-age'
p359
asbag61
(g82
g63
NtRp360
(dp361
g66
(dp362
g93
g94
ssg75
g351
sg68
(lp363
S':'
asbag61
(g82
g63
NtRp364
(dp365
g66
(dp366
sg75
g351
sg68
(lp367
g61
(g62
g63
NtRp368
(dp369
g66
(dp370
g74
I3
ssg75
g364
sg68
(lp371
S''
asbasbasbag61
(g77
g63
NtRp372
(dp373
g66
(dp374
sg75
g263
sg68
(lp375
g61
(g82
g63
NtRp376
(dp377
g66
(dp378
g86
g87
ssg75
g372
sg68
(lp379
S'path'
p380
asbag61
(g82
g63
NtRp381
(dp382
g66
(dp383
g93
g94
ssg75
g372
sg68
(lp384
S':'
asbag61
(g82
g63
NtRp385
(dp386
g66
(dp387
sg75
g372
sg68
(lp388
g61
(g62
g63
NtRp389
(dp390
g66
(dp391
g74
I3
ssg75
g385
sg68
(lp392
S''
asbasbasbag61
(g77
g63
NtRp393
(dp394
g66
(dp395
sg75
g263
sg68
(lp396
g61
(g82
g63
NtRp397
(dp398
g66
(dp399
g86
g87
ssg75
g393
sg68
(lp400
S'secure'
p401
asbag61
(g82
g63
NtRp402
(dp403
g66
(dp404
g93
g94
ssg75
g393
sg68
(lp405
S':'
asbag61
(g82
g63
NtRp406
(dp407
g66
(dp408
sg75
g393
sg68
(lp409
g61
(g62
g63
NtRp410
(dp411
g66
(dp412
g74
I3
ssg75
g406
sg68
(lp413
S''
asbasbasbag61
(g77
g63
NtRp414
(dp415
g66
(dp416
sg75
g263
sg68
(lp417
g61
(g82
g63
NtRp418
(dp419
g66
(dp420
g86
g87
ssg75
g414
sg68
(lp421
S'version'
p422
asbag61
(g82
g63
NtRp423
(dp424
g66
(dp425
g93
g94
ssg75
g414
sg68
(lp426
S':'
asbag61
(g82
g63
NtRp427
(dp428
g66
(dp429
sg75
g414
sg68
(lp430
g61
(g62
g63
NtRp431
(dp432
g66
(dp433
g74
I3
ssg75
g427
sg68
(lp434
S''
asbasbasbasbasbasbasbag61
(g77
g63
NtRp435
(dp436
g66
(dp437
sg75
g238
sg68
(lp438
g61
(g82
g63
NtRp439
(dp440
g66
(dp441
g86
g87
ssg75
g435
sg68
(lp442
S'session_id_phyloshiny'
p443
asbag61
(g82
g63
NtRp444
(dp445
g66
(dp446
g93
g94
ssg75
g435
sg68
(lp447
S':'
asbag61
(g82
g63
NtRp448
(dp449
g66
(dp450
sg75
g435
sg68
(lp451
g61
(g62
g63
NtRp452
(dp453
g66
(dp454
g74
I4
ssg75
g448
sg68
(lp455
g61
(g70
g63
NtRp456
(dp457
g66
(dp458
g74
I3
ssg75
Nsg68
(lp459
g61
(g77
g63
NtRp460
(dp461
g66
(dp462
sg75
g456
sg68
(lp463
g61
(g82
g63
NtRp464
(dp465
g66
(dp466
g86
g87
ssg75
g460
sg68
(lp467
g275
asbag61
(g82
g63
NtRp468
(dp469
g66
(dp470
g93
g94
ssg75
g460
sg68
(lp471
S':'
asbag61
(g82
g63
NtRp472
(dp473
g66
(dp474
sg75
g460
sg68
(lp475
g61
(g62
g63
NtRp476
(dp477
g66
(dp478
g74
I3
ssg75
g472
sg68
(lp479
S''
asbasbasbag61
(g77
g63
NtRp480
(dp481
g66
(dp482
sg75
g456
sg68
(lp483
g61
(g82
g63
NtRp484
(dp485
g66
(dp486
g86
g87
ssg75
g480
sg68
(lp487
g296
asbag61
(g82
g63
NtRp488
(dp489
g66
(dp490
g93
g94
ssg75
g480
sg68
(lp491
S':'
asbag61
(g82
g63
NtRp492
(dp493
g66
(dp494
sg75
g480
sg68
(lp495
g61
(g62
g63
NtRp496
(dp497
g66
(dp498
g74
I3
ssg75
g492
sg68
(lp499
S''
asbasbasbag61
(g77
g63
NtRp500
(dp501
g66
(dp502
sg75
g456
sg68
(lp503
g61
(g82
g63
NtRp504
(dp505
g66
(dp506
g86
g87
ssg75
g500
sg68
(lp507
g317
asbag61
(g82
g63
NtRp508
(dp509
g66
(dp510
g93
g94
ssg75
g500
sg68
(lp511
S':'
asbag61
(g82
g63
NtRp512
(dp513
g66
(dp514
sg75
g500
sg68
(lp515
g61
(g62
g63
NtRp516
(dp517
g66
(dp518
g74
I3
ssg75
g512
sg68
(lp519
S''
asbasbasbag61
(g77
g63
NtRp520
(dp521
g66
(dp522
sg75
g456
sg68
(lp523
g61
(g82
g63
NtRp524
(dp525
g66
(dp526
g86
g87
ssg75
g520
sg68
(lp527
g338
asbag61
(g82
g63
NtRp528
(dp529
g66
(dp530
g93
g94
ssg75
g520
sg68
(lp531
S':'
asbag61
(g82
g63
NtRp532
(dp533
g66
(dp534
sg75
g520
sg68
(lp535
g61
(g62
g63
NtRp536
(dp537
g66
(dp538
g74
I3
ssg75
g532
sg68
(lp539
S''
asbasbasbag61
(g77
g63
NtRp540
(dp541
g66
(dp542
sg75
g456
sg68
(lp543
g61
(g82
g63
NtRp544
(dp545
g66
(dp546
g86
g87
ssg75
g540
sg68
(lp547
g359
asbag61
(g82
g63
NtRp548
(dp549
g66
(dp550
g93
g94
ssg75
g540
sg68
(lp551
S':'
asbag61
(g82
g63
NtRp552
(dp553
g66
(dp554
sg75
g540
sg68
(lp555
g61
(g62
g63
NtRp556
(dp557
g66
(dp558
g74
I3
ssg75
g552
sg68
(lp559
S''
asbasbasbag61
(g77
g63
NtRp560
(dp561
g66
(dp562
sg75
g456
sg68
(lp563
g61
(g82
g63
NtRp564
(dp565
g66
(dp566
g86
g87
ssg75
g560
sg68
(lp567
g380
asbag61
(g82
g63
NtRp568
(dp569
g66
(dp570
g93
g94
ssg75
g560
sg68
(lp571
S':'
asbag61
(g82
g63
NtRp572
(dp573
g66
(dp574
sg75
g560
sg68
(lp575
g61
(g62
g63
NtRp576
(dp577
g66
(dp578
g74
I3
ssg75
g572
sg68
(lp579
S''
asbasbasbag61
(g77
g63
NtRp580
(dp581
g66
(dp582
sg75
g456
sg68
(lp583
g61
(g82
g63
NtRp584
(dp585
g66
(dp586
g86
g87
ssg75
g580
sg68
(lp587
g401
asbag61
(g82
g63
NtRp588
(dp589
g66
(dp590
g93
g94
ssg75
g580
sg68
(lp591
S':'
asbag61
(g82
g63
NtRp592
(dp593
g66
(dp594
sg75
g580
sg68
(lp595
g61
(g62
g63
NtRp596
(dp597
g66
(dp598
g74
I3
ssg75
g592
sg68
(lp599
S''
asbasbasbag61
(g77
g63
NtRp600
(dp601
g66
(dp602
sg75
g456
sg68
(lp603
g61
(g82
g63
NtRp604
(dp605
g66
(dp606
g86
g87
ssg75
g600
sg68
(lp607
g422
asbag61
(g82
g63
NtRp608
(dp609
g66
(dp610
g93
g94
ssg75
g600
sg68
(lp611
S':'
asbag61
(g82
g63
NtRp612
(dp613
g66
(dp614
sg75
g600
sg68
(lp615
g61
(g62
g63
NtRp616
(dp617
g66
(dp618
g74
I3
ssg75
g612
sg68
(lp619
S''
asbasbasbasbasbasbasbasbasbasbasbag61
(g77
g63
NtRp620
(dp621
g66
(dp622
sg75
g71
sg68
(lp623
g61
(g82
g63
NtRp624
(dp625
g66
(dp626
g86
g87
ssg75
g620
sg68
(lp627
S'env'
p628
asbag61
(g82
g63
NtRp629
(dp630
g66
(dp631
g93
g94
ssg75
g620
sg68
(lp632
S':'
asbag61
(g82
g63
NtRp633
(dp634
g66
(dp635
sg75
g620
sg68
(lp636
g61
(g62
g63
NtRp637
(dp638
g66
(dp639
g74
I5
ssg75
g633
sg68
(lp640
g61
(g70
g63
NtRp641
(dp642
g66
(dp643
g74
I4
ssg75
Nsg68
(lp644
g61
(g77
g63
NtRp645
(dp646
g66
(dp647
sg75
g641
sg68
(lp648
g61
(g82
g63
NtRp649
(dp650
g66
(dp651
g86
g87
ssg75
g645
sg68
(lp652
S'app_folders'
p653
asbag61
(g82
g63
NtRp654
(dp655
g66
(dp656
g93
g94
ssg75
g645
sg68
(lp657
S':'
asbag61
(g82
g63
NtRp658
(dp659
g66
(dp660
sg75
g645
sg68
(lp661
g61
(g62
g63
NtRp662
(dp663
g66
(dp664
g74
I4
ssg75
g658
sg68
(lp665
S"set(['/home/prateek/web2py/applications/phyloShiny/', '/home/prateek/web2py/applications/welcome/'])"
p666
asbasbasbag61
(g77
g63
NtRp667
(dp668
g66
(dp669
sg75
g641
sg68
(lp670
g61
(g82
g63
NtRp671
(dp672
g66
(dp673
g86
g87
ssg75
g667
sg68
(lp674
S'applications_parent'
p675
asbag61
(g82
g63
NtRp676
(dp677
g66
(dp678
g93
g94
ssg75
g667
sg68
(lp679
S':'
asbag61
(g82
g63
NtRp680
(dp681
g66
(dp682
sg75
g667
sg68
(lp683
g61
(g62
g63
NtRp684
(dp685
g66
(dp686
g74
I4
ssg75
g680
sg68
(lp687
S'/home/prateek/web2py'
p688
asbasbasbag61
(g77
g63
NtRp689
(dp690
g66
(dp691
sg75
g641
sg68
(lp692
g61
(g82
g63
NtRp693
(dp694
g66
(dp695
g86
g87
ssg75
g689
sg68
(lp696
S'cmd_args'
p697
asbag61
(g82
g63
NtRp698
(dp699
g66
(dp700
g93
g94
ssg75
g689
sg68
(lp701
S':'
asbag61
(g82
g63
NtRp702
(dp703
g66
(dp704
sg75
g689
sg68
(lp705
g61
(g62
g63
NtRp706
(dp707
g66
(dp708
g74
I4
ssg75
g702
sg68
(lp709
g61
(g70
g63
NtRp710
(dp711
g66
(dp712
g74
I3
ssg75
Nsg68
(lp713
sbasbasbasbag61
(g77
g63
NtRp714
(dp715
g66
(dp716
sg75
g641
sg68
(lp717
g61
(g82
g63
NtRp718
(dp719
g66
(dp720
g86
g87
ssg75
g714
sg68
(lp721
S'cmd_options'
p722
asbag61
(g82
g63
NtRp723
(dp724
g66
(dp725
g93
g94
ssg75
g714
sg68
(lp726
S':'
asbag61
(g82
g63
NtRp727
(dp728
g66
(dp729
sg75
g714
sg68
(lp730
g61
(g62
g63
NtRp731
(dp732
g66
(dp733
g74
I4
ssg75
g727
sg68
(lp734
S"<Values at 0x9d115cc: {'verbose': False, 'ip': '127.0.0.1', 'shutdown_timeout': 5, 'taskbar': False, 'port': 8000, 'maxthreads': None, 'softcron': False, 'server_name': 'prateek-Inspiron-N5110', 'bpython': False, 'nogui': False, 'nocron': False, 'extcron': False, 'debuglevel': 30, 'test': None, 'folder': '/home/prateek/web2py', 'config': '', 'import_models': False, 'winservice': '', 'shell': None, 'run': '', 'log_filename': 'httpserver.log', 'args': [''], 'socket_timeout': 1, 'profiler_filename': None, 'ssl_private_key': '', 'password': '<ask>', 'request_queue_size': 5, 'ssl_certificate': '', 'cronjob': False, 'plain': False, 'quiet': False, 'interfaces': None, 'minthreads': None, 'timeout': 10, 'numthreads': None, 'nobanner': False, 'pid_filename': 'httpserver.pid'}>"
p735
asbasbasbag61
(g77
g63
NtRp736
(dp737
g66
(dp738
sg75
g641
sg68
(lp739
g61
(g82
g63
NtRp740
(dp741
g66
(dp742
g86
g87
ssg75
g736
sg68
(lp743
S'db_sessions'
p744
asbag61
(g82
g63
NtRp745
(dp746
g66
(dp747
g93
g94
ssg75
g736
sg68
(lp748
S':'
asbag61
(g82
g63
NtRp749
(dp750
g66
(dp751
sg75
g736
sg68
(lp752
g61
(g62
g63
NtRp753
(dp754
g66
(dp755
g74
I4
ssg75
g749
sg68
(lp756
S'set([])'
p757
asbasbasbag61
(g77
g63
NtRp758
(dp759
g66
(dp760
sg75
g641
sg68
(lp761
g61
(g82
g63
NtRp762
(dp763
g66
(dp764
g86
g87
ssg75
g758
sg68
(lp765
S'debugging'
p766
asbag61
(g82
g63
NtRp767
(dp768
g66
(dp769
g93
g94
ssg75
g758
sg68
(lp770
S':'
asbag61
(g82
g63
NtRp771
(dp772
g66
(dp773
sg75
g758
sg68
(lp774
g61
(g62
g63
NtRp775
(dp776
g66
(dp777
g74
I4
ssg75
g771
sg68
(lp778
S'False'
p779
asbasbasbag61
(g77
g63
NtRp780
(dp781
g66
(dp782
sg75
g641
sg68
(lp783
g61
(g82
g63
NtRp784
(dp785
g66
(dp786
g86
g87
ssg75
g780
sg68
(lp787
S'gluon_parent'
p788
asbag61
(g82
g63
NtRp789
(dp790
g66
(dp791
g93
g94
ssg75
g780
sg68
(lp792
S':'
asbag61
(g82
g63
NtRp793
(dp794
g66
(dp795
sg75
g780
sg68
(lp796
g61
(g62
g63
NtRp797
(dp798
g66
(dp799
g74
I4
ssg75
g793
sg68
(lp800
S'/usr/share/web2py'
p801
asbasbasbag61
(g77
g63
NtRp802
(dp803
g66
(dp804
sg75
g641
sg68
(lp805
g61
(g82
g63
NtRp806
(dp807
g66
(dp808
g86
g87
ssg75
g802
sg68
(lp809
S'http_accept'
p810
asbag61
(g82
g63
NtRp811
(dp812
g66
(dp813
g93
g94
ssg75
g802
sg68
(lp814
S':'
asbag61
(g82
g63
NtRp815
(dp816
g66
(dp817
sg75
g802
sg68
(lp818
g61
(g62
g63
NtRp819
(dp820
g66
(dp821
g74
I4
ssg75
g815
sg68
(lp822
S'*/*'
p823
asbasbasbag61
(g77
g63
NtRp824
(dp825
g66
(dp826
sg75
g641
sg68
(lp827
g61
(g82
g63
NtRp828
(dp829
g66
(dp830
g86
g87
ssg75
g824
sg68
(lp831
S'http_accept_encoding'
p832
asbag61
(g82
g63
NtRp833
(dp834
g66
(dp835
g93
g94
ssg75
g824
sg68
(lp836
S':'
asbag61
(g82
g63
NtRp837
(dp838
g66
(dp839
sg75
g824
sg68
(lp840
g61
(g62
g63
NtRp841
(dp842
g66
(dp843
g74
I4
ssg75
g837
sg68
(lp844
S'gzip, deflate'
p845
asbasbasbag61
(g77
g63
NtRp846
(dp847
g66
(dp848
sg75
g641
sg68
(lp849
g61
(g82
g63
NtRp850
(dp851
g66
(dp852
g86
g87
ssg75
g846
sg68
(lp853
S'http_accept_language'
p854
asbag61
(g82
g63
NtRp855
(dp856
g66
(dp857
g93
g94
ssg75
g846
sg68
(lp858
S':'
asbag61
(g82
g63
NtRp859
(dp860
g66
(dp861
sg75
g846
sg68
(lp862
g61
(g62
g63
NtRp863
(dp864
g66
(dp865
g74
I4
ssg75
g859
sg68
(lp866
S'en-US,en;q=0.5'
p867
asbasbasbag61
(g77
g63
NtRp868
(dp869
g66
(dp870
sg75
g641
sg68
(lp871
g61
(g82
g63
NtRp872
(dp873
g66
(dp874
g86
g87
ssg75
g868
sg68
(lp875
S'http_connection'
p876
asbag61
(g82
g63
NtRp877
(dp878
g66
(dp879
g93
g94
ssg75
g868
sg68
(lp880
S':'
asbag61
(g82
g63
NtRp881
(dp882
g66
(dp883
sg75
g868
sg68
(lp884
g61
(g62
g63
NtRp885
(dp886
g66
(dp887
g74
I4
ssg75
g881
sg68
(lp888
S'keep-alive'
p889
asbasbasbag61
(g77
g63
NtRp890
(dp891
g66
(dp892
sg75
g641
sg68
(lp893
g61
(g82
g63
NtRp894
(dp895
g66
(dp896
g86
g87
ssg75
g890
sg68
(lp897
S'http_cookie'
p898
asbag61
(g82
g63
NtRp899
(dp900
g66
(dp901
g93
g94
ssg75
g890
sg68
(lp902
S':'
asbag61
(g82
g63
NtRp903
(dp904
g66
(dp905
sg75
g890
sg68
(lp906
g61
(g62
g63
NtRp907
(dp908
g66
(dp909
g74
I4
ssg75
g903
sg68
(lp910
S'session_id_admin=127.0.0.1-b0e8da09-bfd6-4bed-a837-50f16fcf7eef; session_id_phyloshiny=127.0.0.1-2ca7d262-030d-4af3-b00d-39636e150e98'
p911
asbasbasbag61
(g77
g63
NtRp912
(dp913
g66
(dp914
sg75
g641
sg68
(lp915
g61
(g82
g63
NtRp916
(dp917
g66
(dp918
g86
g87
ssg75
g912
sg68
(lp919
S'http_host'
p920
asbag61
(g82
g63
NtRp921
(dp922
g66
(dp923
g93
g94
ssg75
g912
sg68
(lp924
S':'
asbag61
(g82
g63
NtRp925
(dp926
g66
(dp927
sg75
g912
sg68
(lp928
g61
(g62
g63
NtRp929
(dp930
g66
(dp931
g74
I4
ssg75
g925
sg68
(lp932
S'127.0.0.1:8000'
p933
asbasbasbag61
(g77
g63
NtRp934
(dp935
g66
(dp936
sg75
g641
sg68
(lp937
g61
(g82
g63
NtRp938
(dp939
g66
(dp940
g86
g87
ssg75
g934
sg68
(lp941
S'http_referer'
p942
asbag61
(g82
g63
NtRp943
(dp944
g66
(dp945
g93
g94
ssg75
g934
sg68
(lp946
S':'
asbag61
(g82
g63
NtRp947
(dp948
g66
(dp949
sg75
g934
sg68
(lp950
g61
(g62
g63
NtRp951
(dp952
g66
(dp953
g74
I4
ssg75
g947
sg68
(lp954
S'http://127.0.0.1:8000/phyloShiny/reconciliotastic/index'
p955
asbasbasbag61
(g77
g63
NtRp956
(dp957
g66
(dp958
sg75
g641
sg68
(lp959
g61
(g82
g63
NtRp960
(dp961
g66
(dp962
g86
g87
ssg75
g956
sg68
(lp963
S'http_user_agent'
p964
asbag61
(g82
g63
NtRp965
(dp966
g66
(dp967
g93
g94
ssg75
g956
sg68
(lp968
S':'
asbag61
(g82
g63
NtRp969
(dp970
g66
(dp971
sg75
g956
sg68
(lp972
g61
(g62
g63
NtRp973
(dp974
g66
(dp975
g74
I4
ssg75
g969
sg68
(lp976
S'Mozilla/5.0 (X11; Ubuntu; Linux i686; rv:20.0) Gecko/20100101 Firefox/20.0'
p977
asbasbasbag61
(g77
g63
NtRp978
(dp979
g66
(dp980
sg75
g641
sg68
(lp981
g61
(g82
g63
NtRp982
(dp983
g66
(dp984
g86
g87
ssg75
g978
sg68
(lp985
S'http_x_requested_with'
p986
asbag61
(g82
g63
NtRp987
(dp988
g66
(dp989
g93
g94
ssg75
g978
sg68
(lp990
S':'
asbag61
(g82
g63
NtRp991
(dp992
g66
(dp993
sg75
g978
sg68
(lp994
g61
(g62
g63
NtRp995
(dp996
g66
(dp997
g74
I4
ssg75
g991
sg68
(lp998
S'XMLHttpRequest'
p999
asbasbasbag61
(g77
g63
NtRp1000
(dp1001
g66
(dp1002
sg75
g641
sg68
(lp1003
g61
(g82
g63
NtRp1004
(dp1005
g66
(dp1006
g86
g87
ssg75
g1000
sg68
(lp1007
S'is_jython'
p1008
asbag61
(g82
g63
NtRp1009
(dp1010
g66
(dp1011
g93
g94
ssg75
g1000
sg68
(lp1012
S':'
asbag61
(g82
g63
NtRp1013
(dp1014
g66
(dp1015
sg75
g1000
sg68
(lp1016
g61
(g62
g63
NtRp1017
(dp1018
g66
(dp1019
g74
I4
ssg75
g1013
sg68
(lp1020
g779
asbasbasbag61
(g77
g63
NtRp1021
(dp1022
g66
(dp1023
sg75
g641
sg68
(lp1024
g61
(g82
g63
NtRp1025
(dp1026
g66
(dp1027
g86
g87
ssg75
g1021
sg68
(lp1028
S'is_pypy'
p1029
asbag61
(g82
g63
NtRp1030
(dp1031
g66
(dp1032
g93
g94
ssg75
g1021
sg68
(lp1033
S':'
asbag61
(g82
g63
NtRp1034
(dp1035
g66
(dp1036
sg75
g1021
sg68
(lp1037
g61
(g62
g63
NtRp1038
(dp1039
g66
(dp1040
g74
I4
ssg75
g1034
sg68
(lp1041
g779
asbasbasbag61
(g77
g63
NtRp1042
(dp1043
g66
(dp1044
sg75
g641
sg68
(lp1045
g61
(g82
g63
NtRp1046
(dp1047
g66
(dp1048
g86
g87
ssg75
g1042
sg68
(lp1049
S'path_info'
p1050
asbag61
(g82
g63
NtRp1051
(dp1052
g66
(dp1053
g93
g94
ssg75
g1042
sg68
(lp1054
S':'
asbag61
(g82
g63
NtRp1055
(dp1056
g66
(dp1057
sg75
g1042
sg68
(lp1058
g61
(g62
g63
NtRp1059
(dp1060
g66
(dp1061
g74
I4
ssg75
g1055
sg68
(lp1062
S'/phyloShiny/reconciliotastic/getPhylotasticTree'
p1063
asbasbasbag61
(g77
g63
NtRp1064
(dp1065
g66
(dp1066
sg75
g641
sg68
(lp1067
g61
(g82
g63
NtRp1068
(dp1069
g66
(dp1070
g86
g87
ssg75
g1064
sg68
(lp1071
S'query_string'
p1072
asbag61
(g82
g63
NtRp1073
(dp1074
g66
(dp1075
g93
g94
ssg75
g1064
sg68
(lp1076
S':'
asbag61
(g82
g63
NtRp1077
(dp1078
g66
(dp1079
sg75
g1064
sg68
(lp1080
g61
(g62
g63
NtRp1081
(dp1082
g66
(dp1083
g74
I4
ssg75
g1077
sg68
(lp1084
S'treeFileName=static%2Fsample_data%2Fdemo_Mammal_Hemoglobin_Pruned%2Finput_genetree.nwk.txt'
p1085
asbasbasbag61
(g77
g63
NtRp1086
(dp1087
g66
(dp1088
sg75
g641
sg68
(lp1089
g61
(g82
g63
NtRp1090
(dp1091
g66
(dp1092
g86
g87
ssg75
g1086
sg68
(lp1093
S'remote_addr'
p1094
asbag61
(g82
g63
NtRp1095
(dp1096
g66
(dp1097
g93
g94
ssg75
g1086
sg68
(lp1098
S':'
asbag61
(g82
g63
NtRp1099
(dp1100
g66
(dp1101
sg75
g1086
sg68
(lp1102
g61
(g62
g63
NtRp1103
(dp1104
g66
(dp1105
g74
I4
ssg75
g1099
sg68
(lp1106
g194
asbasbasbag61
(g77
g63
NtRp1107
(dp1108
g66
(dp1109
sg75
g641
sg68
(lp1110
g61
(g82
g63
NtRp1111
(dp1112
g66
(dp1113
g86
g87
ssg75
g1107
sg68
(lp1114
S'remote_port'
p1115
asbag61
(g82
g63
NtRp1116
(dp1117
g66
(dp1118
g93
g94
ssg75
g1107
sg68
(lp1119
S':'
asbag61
(g82
g63
NtRp1120
(dp1121
g66
(dp1122
sg75
g1107
sg68
(lp1123
g61
(g62
g63
NtRp1124
(dp1125
g66
(dp1126
g74
I4
ssg75
g1120
sg68
(lp1127
S'56612'
p1128
asbasbasbag61
(g77
g63
NtRp1129
(dp1130
g66
(dp1131
sg75
g641
sg68
(lp1132
g61
(g82
g63
NtRp1133
(dp1134
g66
(dp1135
g86
g87
ssg75
g1129
sg68
(lp1136
S'request_method'
p1137
asbag61
(g82
g63
NtRp1138
(dp1139
g66
(dp1140
g93
g94
ssg75
g1129
sg68
(lp1141
S':'
asbag61
(g82
g63
NtRp1142
(dp1143
g66
(dp1144
sg75
g1129
sg68
(lp1145
g61
(g62
g63
NtRp1146
(dp1147
g66
(dp1148
g74
I4
ssg75
g1142
sg68
(lp1149
S'GET'
p1150
asbasbasbag61
(g77
g63
NtRp1151
(dp1152
g66
(dp1153
sg75
g641
sg68
(lp1154
g61
(g82
g63
NtRp1155
(dp1156
g66
(dp1157
g86
g87
ssg75
g1151
sg68
(lp1158
S'script_name'
p1159
asbag61
(g82
g63
NtRp1160
(dp1161
g66
(dp1162
g93
g94
ssg75
g1151
sg68
(lp1163
S':'
asbag61
(g82
g63
NtRp1164
(dp1165
g66
(dp1166
sg75
g1151
sg68
(lp1167
g61
(g62
g63
NtRp1168
(dp1169
g66
(dp1170
g74
I4
ssg75
g1164
sg68
(lp1171
S''
asbasbasbag61
(g77
g63
NtRp1172
(dp1173
g66
(dp1174
sg75
g641
sg68
(lp1175
g61
(g82
g63
NtRp1176
(dp1177
g66
(dp1178
g86
g87
ssg75
g1172
sg68
(lp1179
S'server_name'
p1180
asbag61
(g82
g63
NtRp1181
(dp1182
g66
(dp1183
g93
g94
ssg75
g1172
sg68
(lp1184
S':'
asbag61
(g82
g63
NtRp1185
(dp1186
g66
(dp1187
sg75
g1172
sg68
(lp1188
g61
(g62
g63
NtRp1189
(dp1190
g66
(dp1191
g74
I4
ssg75
g1185
sg68
(lp1192
S'prateek-Inspiron-N5110'
p1193
asbasbasbag61
(g77
g63
NtRp1194
(dp1195
g66
(dp1196
sg75
g641
sg68
(lp1197
g61
(g82
g63
NtRp1198
(dp1199
g66
(dp1200
g86
g87
ssg75
g1194
sg68
(lp1201
S'server_port'
p1202
asbag61
(g82
g63
NtRp1203
(dp1204
g66
(dp1205
g93
g94
ssg75
g1194
sg68
(lp1206
S':'
asbag61
(g82
g63
NtRp1207
(dp1208
g66
(dp1209
sg75
g1194
sg68
(lp1210
g61
(g62
g63
NtRp1211
(dp1212
g66
(dp1213
g74
I4
ssg75
g1207
sg68
(lp1214
S'8000'
p1215
asbasbasbag61
(g77
g63
NtRp1216
(dp1217
g66
(dp1218
sg75
g641
sg68
(lp1219
g61
(g82
g63
NtRp1220
(dp1221
g66
(dp1222
g86
g87
ssg75
g1216
sg68
(lp1223
S'server_protocol'
p1224
asbag61
(g82
g63
NtRp1225
(dp1226
g66
(dp1227
g93
g94
ssg75
g1216
sg68
(lp1228
S':'
asbag61
(g82
g63
NtRp1229
(dp1230
g66
(dp1231
sg75
g1216
sg68
(lp1232
g61
(g62
g63
NtRp1233
(dp1234
g66
(dp1235
g74
I4
ssg75
g1229
sg68
(lp1236
S'HTTP/1.1'
p1237
asbasbasbag61
(g77
g63
NtRp1238
(dp1239
g66
(dp1240
sg75
g641
sg68
(lp1241
g61
(g82
g63
NtRp1242
(dp1243
g66
(dp1244
g86
g87
ssg75
g1238
sg68
(lp1245
S'server_software'
p1246
asbag61
(g82
g63
NtRp1247
(dp1248
g66
(dp1249
g93
g94
ssg75
g1238
sg68
(lp1250
S':'
asbag61
(g82
g63
NtRp1251
(dp1252
g66
(dp1253
sg75
g1238
sg68
(lp1254
g61
(g62
g63
NtRp1255
(dp1256
g66
(dp1257
g74
I4
ssg75
g1251
sg68
(lp1258
S'Rocket 1.2.4'
p1259
asbasbasbag61
(g77
g63
NtRp1260
(dp1261
g66
(dp1262
sg75
g641
sg68
(lp1263
g61
(g82
g63
NtRp1264
(dp1265
g66
(dp1266
g86
g87
ssg75
g1260
sg68
(lp1267
S'web2py_crontype'
p1268
asbag61
(g82
g63
NtRp1269
(dp1270
g66
(dp1271
g93
g94
ssg75
g1260
sg68
(lp1272
S':'
asbag61
(g82
g63
NtRp1273
(dp1274
g66
(dp1275
sg75
g1260
sg68
(lp1276
g61
(g62
g63
NtRp1277
(dp1278
g66
(dp1279
g74
I4
ssg75
g1273
sg68
(lp1280
S'hard'
p1281
asbasbasbag61
(g77
g63
NtRp1282
(dp1283
g66
(dp1284
sg75
g641
sg68
(lp1285
g61
(g82
g63
NtRp1286
(dp1287
g66
(dp1288
g86
g87
ssg75
g1282
sg68
(lp1289
S'web2py_path'
p1290
asbag61
(g82
g63
NtRp1291
(dp1292
g66
(dp1293
g93
g94
ssg75
g1282
sg68
(lp1294
S':'
asbag61
(g82
g63
NtRp1295
(dp1296
g66
(dp1297
sg75
g1282
sg68
(lp1298
g61
(g62
g63
NtRp1299
(dp1300
g66
(dp1301
g74
I4
ssg75
g1295
sg68
(lp1302
g688
asbasbasbag61
(g77
g63
NtRp1303
(dp1304
g66
(dp1305
sg75
g641
sg68
(lp1306
g61
(g82
g63
NtRp1307
(dp1308
g66
(dp1309
g86
g87
ssg75
g1303
sg68
(lp1310
S'web2py_version'
p1311
asbag61
(g82
g63
NtRp1312
(dp1313
g66
(dp1314
g93
g94
ssg75
g1303
sg68
(lp1315
S':'
asbag61
(g82
g63
NtRp1316
(dp1317
g66
(dp1318
sg75
g1303
sg68
(lp1319
g61
(g62
g63
NtRp1320
(dp1321
g66
(dp1322
g74
I4
ssg75
g1316
sg68
(lp1323
g61
(g70
g63
NtRp1324
(dp1325
g66
(dp1326
g74
I3
ssg75
Nsg68
(lp1327
g61
(g77
g63
NtRp1328
(dp1329
g66
(dp1330
sg75
g1324
sg68
(lp1331
g61
(g82
g63
NtRp1332
(dp1333
g66
(dp1334
sg75
g1328
sg68
(lp1335
g61
(g62
g63
NtRp1336
(dp1337
g66
(dp1338
g74
I3
ssg75
g1332
sg68
(lp1339
S'1'
asbasbasbag61
(g77
g63
NtRp1340
(dp1341
g66
(dp1342
sg75
g1324
sg68
(lp1343
g61
(g82
g63
NtRp1344
(dp1345
g66
(dp1346
sg75
g1340
sg68
(lp1347
g61
(g62
g63
NtRp1348
(dp1349
g66
(dp1350
g74
I3
ssg75
g1344
sg68
(lp1351
S'99'
p1352
asbasbasbag61
(g77
g63
NtRp1353
(dp1354
g66
(dp1355
sg75
g1324
sg68
(lp1356
g61
(g82
g63
NtRp1357
(dp1358
g66
(dp1359
sg75
g1353
sg68
(lp1360
g61
(g62
g63
NtRp1361
(dp1362
g66
(dp1363
g74
I3
ssg75
g1357
sg68
(lp1364
S'4'
asbasbasbag61
(g77
g63
NtRp1365
(dp1366
g66
(dp1367
sg75
g1324
sg68
(lp1368
g61
(g82
g63
NtRp1369
(dp1370
g66
(dp1371
sg75
g1365
sg68
(lp1372
g61
(g62
g63
NtRp1373
(dp1374
g66
(dp1375
g74
I3
ssg75
g1369
sg68
(lp1376
S'datetime.datetime(2011, 12, 14, 14, 46, 14)'
p1377
asbasbasbag61
(g77
g63
NtRp1378
(dp1379
g66
(dp1380
sg75
g1324
sg68
(lp1381
g61
(g82
g63
NtRp1382
(dp1383
g66
(dp1384
sg75
g1378
sg68
(lp1385
g61
(g62
g63
NtRp1386
(dp1387
g66
(dp1388
g74
I3
ssg75
g1382
sg68
(lp1389
S'stable'
p1390
asbasbasbasbasbasbasbag61
(g77
g63
NtRp1391
(dp1392
g66
(dp1393
sg75
g641
sg68
(lp1394
g61
(g82
g63
NtRp1395
(dp1396
g66
(dp1397
g86
g87
ssg75
g1391
sg68
(lp1398
S'wsgi_errors'
p1399
asbag61
(g82
g63
NtRp1400
(dp1401
g66
(dp1402
g93
g94
ssg75
g1391
sg68
(lp1403
S':'
asbag61
(g82
g63
NtRp1404
(dp1405
g66
(dp1406
sg75
g1391
sg68
(lp1407
g61
(g62
g63
NtRp1408
(dp1409
g66
(dp1410
g74
I4
ssg75
g1404
sg68
(lp1411
S"<open file '<stderr>', mode 'w' at 0xb729d0d0>"
p1412
asbasbasbag61
(g77
g63
NtRp1413
(dp1414
g66
(dp1415
sg75
g641
sg68
(lp1416
g61
(g82
g63
NtRp1417
(dp1418
g66
(dp1419
g86
g87
ssg75
g1413
sg68
(lp1420
S'wsgi_file_wrapper'
p1421
asbag61
(g82
g63
NtRp1422
(dp1423
g66
(dp1424
g93
g94
ssg75
g1413
sg68
(lp1425
S':'
asbag61
(g82
g63
NtRp1426
(dp1427
g66
(dp1428
sg75
g1413
sg68
(lp1429
g61
(g62
g63
NtRp1430
(dp1431
g66
(dp1432
g74
I4
ssg75
g1426
sg68
(lp1433
S'<class wsgiref.util.FileWrapper at 0x9ad923c>'
p1434
asbasbasbag61
(g77
g63
NtRp1435
(dp1436
g66
(dp1437
sg75
g641
sg68
(lp1438
g61
(g82
g63
NtRp1439
(dp1440
g66
(dp1441
g86
g87
ssg75
g1435
sg68
(lp1442
S'wsgi_input'
p1443
asbag61
(g82
g63
NtRp1444
(dp1445
g66
(dp1446
g93
g94
ssg75
g1435
sg68
(lp1447
S':'
asbag61
(g82
g63
NtRp1448
(dp1449
g66
(dp1450
sg75
g1435
sg68
(lp1451
g61
(g62
g63
NtRp1452
(dp1453
g66
(dp1454
g74
I4
ssg75
g1448
sg68
(lp1455
S'<socket._fileobject object at 0xab05d5ac>'
p1456
asbasbasbag61
(g77
g63
NtRp1457
(dp1458
g66
(dp1459
sg75
g641
sg68
(lp1460
g61
(g82
g63
NtRp1461
(dp1462
g66
(dp1463
g86
g87
ssg75
g1457
sg68
(lp1464
S'wsgi_multiprocess'
p1465
asbag61
(g82
g63
NtRp1466
(dp1467
g66
(dp1468
g93
g94
ssg75
g1457
sg68
(lp1469
S':'
asbag61
(g82
g63
NtRp1470
(dp1471
g66
(dp1472
sg75
g1457
sg68
(lp1473
g61
(g62
g63
NtRp1474
(dp1475
g66
(dp1476
g74
I4
ssg75
g1470
sg68
(lp1477
g779
asbasbasbag61
(g77
g63
NtRp1478
(dp1479
g66
(dp1480
sg75
g641
sg68
(lp1481
g61
(g82
g63
NtRp1482
(dp1483
g66
(dp1484
g86
g87
ssg75
g1478
sg68
(lp1485
S'wsgi_multithread'
p1486
asbag61
(g82
g63
NtRp1487
(dp1488
g66
(dp1489
g93
g94
ssg75
g1478
sg68
(lp1490
S':'
asbag61
(g82
g63
NtRp1491
(dp1492
g66
(dp1493
sg75
g1478
sg68
(lp1494
g61
(g62
g63
NtRp1495
(dp1496
g66
(dp1497
g74
I4
ssg75
g1491
sg68
(lp1498
g104
asbasbasbag61
(g77
g63
NtRp1499
(dp1500
g66
(dp1501
sg75
g641
sg68
(lp1502
g61
(g82
g63
NtRp1503
(dp1504
g66
(dp1505
g86
g87
ssg75
g1499
sg68
(lp1506
S'wsgi_run_once'
p1507
asbag61
(g82
g63
NtRp1508
(dp1509
g66
(dp1510
g93
g94
ssg75
g1499
sg68
(lp1511
S':'
asbag61
(g82
g63
NtRp1512
(dp1513
g66
(dp1514
sg75
g1499
sg68
(lp1515
g61
(g62
g63
NtRp1516
(dp1517
g66
(dp1518
g74
I4
ssg75
g1512
sg68
(lp1519
g779
asbasbasbag61
(g77
g63
NtRp1520
(dp1521
g66
(dp1522
sg75
g641
sg68
(lp1523
g61
(g82
g63
NtRp1524
(dp1525
g66
(dp1526
g86
g87
ssg75
g1520
sg68
(lp1527
S'wsgi_url_scheme'
p1528
asbag61
(g82
g63
NtRp1529
(dp1530
g66
(dp1531
g93
g94
ssg75
g1520
sg68
(lp1532
S':'
asbag61
(g82
g63
NtRp1533
(dp1534
g66
(dp1535
sg75
g1520
sg68
(lp1536
g61
(g62
g63
NtRp1537
(dp1538
g66
(dp1539
g74
I4
ssg75
g1533
sg68
(lp1540
S'http'
p1541
asbasbasbag61
(g77
g63
NtRp1542
(dp1543
g66
(dp1544
sg75
g641
sg68
(lp1545
g61
(g82
g63
NtRp1546
(dp1547
g66
(dp1548
g86
g87
ssg75
g1542
sg68
(lp1549
S'wsgi_version'
p1550
asbag61
(g82
g63
NtRp1551
(dp1552
g66
(dp1553
g93
g94
ssg75
g1542
sg68
(lp1554
S':'
asbag61
(g82
g63
NtRp1555
(dp1556
g66
(dp1557
sg75
g1542
sg68
(lp1558
g61
(g62
g63
NtRp1559
(dp1560
g66
(dp1561
g74
I4
ssg75
g1555
sg68
(lp1562
g61
(g70
g63
NtRp1563
(dp1564
g66
(dp1565
g74
I3
ssg75
Nsg68
(lp1566
g61
(g77
g63
NtRp1567
(dp1568
g66
(dp1569
sg75
g1563
sg68
(lp1570
g61
(g82
g63
NtRp1571
(dp1572
g66
(dp1573
sg75
g1567
sg68
(lp1574
g61
(g62
g63
NtRp1575
(dp1576
g66
(dp1577
g74
I3
ssg75
g1571
sg68
(lp1578
S'1'
asbasbasbag61
(g77
g63
NtRp1579
(dp1580
g66
(dp1581
sg75
g1563
sg68
(lp1582
g61
(g82
g63
NtRp1583
(dp1584
g66
(dp1585
sg75
g1579
sg68
(lp1586
g61
(g62
g63
NtRp1587
(dp1588
g66
(dp1589
g74
I3
ssg75
g1583
sg68
(lp1590
S'0'
asbasbasbasbasbasbasbasbasbasbasbag61
(g77
g63
NtRp1591
(dp1592
g66
(dp1593
sg75
g71
sg68
(lp1594
g61
(g82
g63
NtRp1595
(dp1596
g66
(dp1597
g86
g87
ssg75
g1591
sg68
(lp1598
S'extension'
p1599
asbag61
(g82
g63
NtRp1600
(dp1601
g66
(dp1602
g93
g94
ssg75
g1591
sg68
(lp1603
S':'
asbag61
(g82
g63
NtRp1604
(dp1605
g66
(dp1606
sg75
g1591
sg68
(lp1607
g61
(g62
g63
NtRp1608
(dp1609
g66
(dp1610
g74
I5
ssg75
g1604
sg68
(lp1611
S'html'
p1612
asbasbasbag61
(g77
g63
NtRp1613
(dp1614
g66
(dp1615
sg75
g71
sg68
(lp1616
g61
(g82
g63
NtRp1617
(dp1618
g66
(dp1619
g86
g87
ssg75
g1613
sg68
(lp1620
S'folder'
p1621
asbag61
(g82
g63
NtRp1622
(dp1623
g66
(dp1624
g93
g94
ssg75
g1613
sg68
(lp1625
S':'
asbag61
(g82
g63
NtRp1626
(dp1627
g66
(dp1628
sg75
g1613
sg68
(lp1629
g61
(g62
g63
NtRp1630
(dp1631
g66
(dp1632
g74
I5
ssg75
g1626
sg68
(lp1633
S'/home/prateek/web2py/applications/phyloShiny/'
p1634
asbasbasbag61
(g77
g63
NtRp1635
(dp1636
g66
(dp1637
sg75
g71
sg68
(lp1638
g61
(g82
g63
NtRp1639
(dp1640
g66
(dp1641
g86
g87
ssg75
g1635
sg68
(lp1642
S'function'
p1643
asbag61
(g82
g63
NtRp1644
(dp1645
g66
(dp1646
g93
g94
ssg75
g1635
sg68
(lp1647
S':'
asbag61
(g82
g63
NtRp1648
(dp1649
g66
(dp1650
sg75
g1635
sg68
(lp1651
g61
(g62
g63
NtRp1652
(dp1653
g66
(dp1654
g74
I5
ssg75
g1648
sg68
(lp1655
S'getPhylotasticTree'
p1656
asbasbasbag61
(g77
g63
NtRp1657
(dp1658
g66
(dp1659
sg75
g71
sg68
(lp1660
g61
(g82
g63
NtRp1661
(dp1662
g66
(dp1663
g86
g87
ssg75
g1657
sg68
(lp1664
S'get_vars'
p1665
asbag61
(g82
g63
NtRp1666
(dp1667
g66
(dp1668
g93
g94
ssg75
g1657
sg68
(lp1669
S':'
asbag61
(g82
g63
NtRp1670
(dp1671
g66
(dp1672
sg75
g1657
sg68
(lp1673
g61
(g62
g63
NtRp1674
(dp1675
g66
(dp1676
g74
I5
ssg75
g1670
sg68
(lp1677
g61
(g70
g63
NtRp1678
(dp1679
g66
(dp1680
g74
I4
ssg75
Nsg68
(lp1681
g61
(g77
g63
NtRp1682
(dp1683
g66
(dp1684
sg75
g1678
sg68
(lp1685
g61
(g82
g63
NtRp1686
(dp1687
g66
(dp1688
g86
g87
ssg75
g1682
sg68
(lp1689
S'treeFileName'
p1690
asbag61
(g82
g63
NtRp1691
(dp1692
g66
(dp1693
g93
g94
ssg75
g1682
sg68
(lp1694
S':'
asbag61
(g82
g63
NtRp1695
(dp1696
g66
(dp1697
sg75
g1682
sg68
(lp1698
g61
(g62
g63
NtRp1699
(dp1700
g66
(dp1701
g74
I4
ssg75
g1695
sg68
(lp1702
S'static/sample_data/demo_Mammal_Hemoglobin_Pruned/input_genetree.nwk.txt'
p1703
asbasbasbasbasbasbasbag61
(g77
g63
NtRp1704
(dp1705
g66
(dp1706
sg75
g71
sg68
(lp1707
g61
(g82
g63
NtRp1708
(dp1709
g66
(dp1710
g86
g87
ssg75
g1704
sg68
(lp1711
S'global_settings'
p1712
asbag61
(g82
g63
NtRp1713
(dp1714
g66
(dp1715
g93
g94
ssg75
g1704
sg68
(lp1716
S':'
asbag61
(g82
g63
NtRp1717
(dp1718
g66
(dp1719
sg75
g1704
sg68
(lp1720
g61
(g62
g63
NtRp1721
(dp1722
g66
(dp1723
g74
I5
ssg75
g1717
sg68
(lp1724
g61
(g70
g63
NtRp1725
(dp1726
g66
(dp1727
g74
I4
ssg75
Nsg68
(lp1728
g61
(g77
g63
NtRp1729
(dp1730
g66
(dp1731
sg75
g1725
sg68
(lp1732
g61
(g82
g63
NtRp1733
(dp1734
g66
(dp1735
g86
g87
ssg75
g1729
sg68
(lp1736
g653
asbag61
(g82
g63
NtRp1737
(dp1738
g66
(dp1739
g93
g94
ssg75
g1729
sg68
(lp1740
S':'
asbag61
(g82
g63
NtRp1741
(dp1742
g66
(dp1743
sg75
g1729
sg68
(lp1744
g61
(g62
g63
NtRp1745
(dp1746
g66
(dp1747
g74
I4
ssg75
g1741
sg68
(lp1748
S"set(['/home/prateek/web2py/applications/phyloShiny/', '/home/prateek/web2py/applications/welcome/'])"
p1749
asbasbasbag61
(g77
g63
NtRp1750
(dp1751
g66
(dp1752
sg75
g1725
sg68
(lp1753
g61
(g82
g63
NtRp1754
(dp1755
g66
(dp1756
g86
g87
ssg75
g1750
sg68
(lp1757
g675
asbag61
(g82
g63
NtRp1758
(dp1759
g66
(dp1760
g93
g94
ssg75
g1750
sg68
(lp1761
S':'
asbag61
(g82
g63
NtRp1762
(dp1763
g66
(dp1764
sg75
g1750
sg68
(lp1765
g61
(g62
g63
NtRp1766
(dp1767
g66
(dp1768
g74
I4
ssg75
g1762
sg68
(lp1769
g688
asbasbasbag61
(g77
g63
NtRp1770
(dp1771
g66
(dp1772
sg75
g1725
sg68
(lp1773
g61
(g82
g63
NtRp1774
(dp1775
g66
(dp1776
g86
g87
ssg75
g1770
sg68
(lp1777
g697
asbag61
(g82
g63
NtRp1778
(dp1779
g66
(dp1780
g93
g94
ssg75
g1770
sg68
(lp1781
S':'
asbag61
(g82
g63
NtRp1782
(dp1783
g66
(dp1784
sg75
g1770
sg68
(lp1785
g61
(g62
g63
NtRp1786
(dp1787
g66
(dp1788
g74
I4
ssg75
g1782
sg68
(lp1789
g61
(g70
g63
NtRp1790
(dp1791
g66
(dp1792
g74
I3
ssg75
Nsg68
(lp1793
sbasbasbasbag61
(g77
g63
NtRp1794
(dp1795
g66
(dp1796
sg75
g1725
sg68
(lp1797
g61
(g82
g63
NtRp1798
(dp1799
g66
(dp1800
g86
g87
ssg75
g1794
sg68
(lp1801
g722
asbag61
(g82
g63
NtRp1802
(dp1803
g66
(dp1804
g93
g94
ssg75
g1794
sg68
(lp1805
S':'
asbag61
(g82
g63
NtRp1806
(dp1807
g66
(dp1808
sg75
g1794
sg68
(lp1809
g61
(g62
g63
NtRp1810
(dp1811
g66
(dp1812
g74
I4
ssg75
g1806
sg68
(lp1813
S"<Values at 0x9d115cc: {'verbose': False, 'ip': '127.0.0.1', 'shutdown_timeout': 5, 'taskbar': False, 'port': 8000, 'maxthreads': None, 'softcron': False, 'server_name': 'prateek-Inspiron-N5110', 'bpython': False, 'nogui': False, 'nocron': False, 'extcron': False, 'debuglevel': 30, 'test': None, 'folder': '/home/prateek/web2py', 'config': '', 'import_models': False, 'winservice': '', 'shell': None, 'run': '', 'log_filename': 'httpserver.log', 'args': [''], 'socket_timeout': 1, 'profiler_filename': None, 'ssl_private_key': '', 'password': '<ask>', 'request_queue_size': 5, 'ssl_certificate': '', 'cronjob': False, 'plain': False, 'quiet': False, 'interfaces': None, 'minthreads': None, 'timeout': 10, 'numthreads': None, 'nobanner': False, 'pid_filename': 'httpserver.pid'}>"
p1814
asbasbasbag61
(g77
g63
NtRp1815
(dp1816
g66
(dp1817
sg75
g1725
sg68
(lp1818
g61
(g82
g63
NtRp1819
(dp1820
g66
(dp1821
g86
g87
ssg75
g1815
sg68
(lp1822
g744
asbag61
(g82
g63
NtRp1823
(dp1824
g66
(dp1825
g93
g94
ssg75
g1815
sg68
(lp1826
S':'
asbag61
(g82
g63
NtRp1827
(dp1828
g66
(dp1829
sg75
g1815
sg68
(lp1830
g61
(g62
g63
NtRp1831
(dp1832
g66
(dp1833
g74
I4
ssg75
g1827
sg68
(lp1834
S'set([])'
p1835
asbasbasbag61
(g77
g63
NtRp1836
(dp1837
g66
(dp1838
sg75
g1725
sg68
(lp1839
g61
(g82
g63
NtRp1840
(dp1841
g66
(dp1842
g86
g87
ssg75
g1836
sg68
(lp1843
g766
asbag61
(g82
g63
NtRp1844
(dp1845
g66
(dp1846
g93
g94
ssg75
g1836
sg68
(lp1847
S':'
asbag61
(g82
g63
NtRp1848
(dp1849
g66
(dp1850
sg75
g1836
sg68
(lp1851
g61
(g62
g63
NtRp1852
(dp1853
g66
(dp1854
g74
I4
ssg75
g1848
sg68
(lp1855
g779
asbasbasbag61
(g77
g63
NtRp1856
(dp1857
g66
(dp1858
sg75
g1725
sg68
(lp1859
g61
(g82
g63
NtRp1860
(dp1861
g66
(dp1862
g86
g87
ssg75
g1856
sg68
(lp1863
g788
asbag61
(g82
g63
NtRp1864
(dp1865
g66
(dp1866
g93
g94
ssg75
g1856
sg68
(lp1867
S':'
asbag61
(g82
g63
NtRp1868
(dp1869
g66
(dp1870
sg75
g1856
sg68
(lp1871
g61
(g62
g63
NtRp1872
(dp1873
g66
(dp1874
g74
I4
ssg75
g1868
sg68
(lp1875
g801
asbasbasbag61
(g77
g63
NtRp1876
(dp1877
g66
(dp1878
sg75
g1725
sg68
(lp1879
g61
(g82
g63
NtRp1880
(dp1881
g66
(dp1882
g86
g87
ssg75
g1876
sg68
(lp1883
g1008
asbag61
(g82
g63
NtRp1884
(dp1885
g66
(dp1886
g93
g94
ssg75
g1876
sg68
(lp1887
S':'
asbag61
(g82
g63
NtRp1888
(dp1889
g66
(dp1890
sg75
g1876
sg68
(lp1891
g61
(g62
g63
NtRp1892
(dp1893
g66
(dp1894
g74
I4
ssg75
g1888
sg68
(lp1895
g779
asbasbasbag61
(g77
g63
NtRp1896
(dp1897
g66
(dp1898
sg75
g1725
sg68
(lp1899
g61
(g82
g63
NtRp1900
(dp1901
g66
(dp1902
g86
g87
ssg75
g1896
sg68
(lp1903
g1029
asbag61
(g82
g63
NtRp1904
(dp1905
g66
(dp1906
g93
g94
ssg75
g1896
sg68
(lp1907
S':'
asbag61
(g82
g63
NtRp1908
(dp1909
g66
(dp1910
sg75
g1896
sg68
(lp1911
g61
(g62
g63
NtRp1912
(dp1913
g66
(dp1914
g74
I4
ssg75
g1908
sg68
(lp1915
g779
asbasbasbag61
(g77
g63
NtRp1916
(dp1917
g66
(dp1918
sg75
g1725
sg68
(lp1919
g61
(g82
g63
NtRp1920
(dp1921
g66
(dp1922
g86
g87
ssg75
g1916
sg68
(lp1923
g1268
asbag61
(g82
g63
NtRp1924
(dp1925
g66
(dp1926
g93
g94
ssg75
g1916
sg68
(lp1927
S':'
asbag61
(g82
g63
NtRp1928
(dp1929
g66
(dp1930
sg75
g1916
sg68
(lp1931
g61
(g62
g63
NtRp1932
(dp1933
g66
(dp1934
g74
I4
ssg75
g1928
sg68
(lp1935
g1281
asbasbasbag61
(g77
g63
NtRp1936
(dp1937
g66
(dp1938
sg75
g1725
sg68
(lp1939
g61
(g82
g63
NtRp1940
(dp1941
g66
(dp1942
g86
g87
ssg75
g1936
sg68
(lp1943
g1311
asbag61
(g82
g63
NtRp1944
(dp1945
g66
(dp1946
g93
g94
ssg75
g1936
sg68
(lp1947
S':'
asbag61
(g82
g63
NtRp1948
(dp1949
g66
(dp1950
sg75
g1936
sg68
(lp1951
g61
(g62
g63
NtRp1952
(dp1953
g66
(dp1954
g74
I4
ssg75
g1948
sg68
(lp1955
g61
(g70
g63
NtRp1956
(dp1957
g66
(dp1958
g74
I3
ssg75
Nsg68
(lp1959
g61
(g77
g63
NtRp1960
(dp1961
g66
(dp1962
sg75
g1956
sg68
(lp1963
g61
(g82
g63
NtRp1964
(dp1965
g66
(dp1966
sg75
g1960
sg68
(lp1967
g61
(g62
g63
NtRp1968
(dp1969
g66
(dp1970
g74
I3
ssg75
g1964
sg68
(lp1971
S'1'
asbasbasbag61
(g77
g63
NtRp1972
(dp1973
g66
(dp1974
sg75
g1956
sg68
(lp1975
g61
(g82
g63
NtRp1976
(dp1977
g66
(dp1978
sg75
g1972
sg68
(lp1979
g61
(g62
g63
NtRp1980
(dp1981
g66
(dp1982
g74
I3
ssg75
g1976
sg68
(lp1983
S'99'
p1984
asbasbasbag61
(g77
g63
NtRp1985
(dp1986
g66
(dp1987
sg75
g1956
sg68
(lp1988
g61
(g82
g63
NtRp1989
(dp1990
g66
(dp1991
sg75
g1985
sg68
(lp1992
g61
(g62
g63
NtRp1993
(dp1994
g66
(dp1995
g74
I3
ssg75
g1989
sg68
(lp1996
S'4'
asbasbasbag61
(g77
g63
NtRp1997
(dp1998
g66
(dp1999
sg75
g1956
sg68
(lp2000
g61
(g82
g63
NtRp2001
(dp2002
g66
(dp2003
sg75
g1997
sg68
(lp2004
g61
(g62
g63
NtRp2005
(dp2006
g66
(dp2007
g74
I3
ssg75
g2001
sg68
(lp2008
S'datetime.datetime(2011, 12, 14, 14, 46, 14)'
p2009
asbasbasbag61
(g77
g63
NtRp2010
(dp2011
g66
(dp2012
sg75
g1956
sg68
(lp2013
g61
(g82
g63
NtRp2014
(dp2015
g66
(dp2016
sg75
g2010
sg68
(lp2017
g61
(g62
g63
NtRp2018
(dp2019
g66
(dp2020
g74
I3
ssg75
g2014
sg68
(lp2021
g1390
asbasbasbasbasbasbasbasbasbasbasbag61
(g77
g63
NtRp2022
(dp2023
g66
(dp2024
sg75
g71
sg68
(lp2025
g61
(g82
g63
NtRp2026
(dp2027
g66
(dp2028
g86
g87
ssg75
g2022
sg68
(lp2029
S'is_https'
p2030
asbag61
(g82
g63
NtRp2031
(dp2032
g66
(dp2033
g93
g94
ssg75
g2022
sg68
(lp2034
S':'
asbag61
(g82
g63
NtRp2035
(dp2036
g66
(dp2037
sg75
g2022
sg68
(lp2038
g61
(g62
g63
NtRp2039
(dp2040
g66
(dp2041
g74
I5
ssg75
g2035
sg68
(lp2042
g779
asbasbasbag61
(g77
g63
NtRp2043
(dp2044
g66
(dp2045
sg75
g71
sg68
(lp2046
g61
(g82
g63
NtRp2047
(dp2048
g66
(dp2049
g86
g87
ssg75
g2043
sg68
(lp2050
S'is_local'
p2051
asbag61
(g82
g63
NtRp2052
(dp2053
g66
(dp2054
g93
g94
ssg75
g2043
sg68
(lp2055
S':'
asbag61
(g82
g63
NtRp2056
(dp2057
g66
(dp2058
sg75
g2043
sg68
(lp2059
g61
(g62
g63
NtRp2060
(dp2061
g66
(dp2062
g74
I5
ssg75
g2056
sg68
(lp2063
g104
asbasbasbag61
(g77
g63
NtRp2064
(dp2065
g66
(dp2066
sg75
g71
sg68
(lp2067
g61
(g82
g63
NtRp2068
(dp2069
g66
(dp2070
g86
g87
ssg75
g2064
sg68
(lp2071
S'is_restful'
p2072
asbag61
(g82
g63
NtRp2073
(dp2074
g66
(dp2075
g93
g94
ssg75
g2064
sg68
(lp2076
S':'
asbag61
(g82
g63
NtRp2077
(dp2078
g66
(dp2079
sg75
g2064
sg68
(lp2080
g61
(g62
g63
NtRp2081
(dp2082
g66
(dp2083
g74
I5
ssg75
g2077
sg68
(lp2084
g779
asbasbasbag61
(g77
g63
NtRp2085
(dp2086
g66
(dp2087
sg75
g71
sg68
(lp2088
g61
(g82
g63
NtRp2089
(dp2090
g66
(dp2091
g86
g87
ssg75
g2085
sg68
(lp2092
S'now'
p2093
asbag61
(g82
g63
NtRp2094
(dp2095
g66
(dp2096
g93
g94
ssg75
g2085
sg68
(lp2097
S':'
asbag61
(g82
g63
NtRp2098
(dp2099
g66
(dp2100
sg75
g2085
sg68
(lp2101
g61
(g62
g63
NtRp2102
(dp2103
g66
(dp2104
g74
I5
ssg75
g2098
sg68
(lp2105
S'datetime.datetime(2013, 5, 18, 13, 30, 54, 366335)'
p2106
asbasbasbag61
(g77
g63
NtRp2107
(dp2108
g66
(dp2109
sg75
g71
sg68
(lp2110
g61
(g82
g63
NtRp2111
(dp2112
g66
(dp2113
g86
g87
ssg75
g2107
sg68
(lp2114
S'post_vars'
p2115
asbag61
(g82
g63
NtRp2116
(dp2117
g66
(dp2118
g93
g94
ssg75
g2107
sg68
(lp2119
S':'
asbag61
(g82
g63
NtRp2120
(dp2121
g66
(dp2122
sg75
g2107
sg68
(lp2123
g61
(g62
g63
NtRp2124
(dp2125
g66
(dp2126
g74
I5
ssg75
g2120
sg68
(lp2127
g61
(g70
g63
NtRp2128
(dp2129
g66
(dp2130
g74
I4
ssg75
Nsg68
(lp2131
sbasbasbasbag61
(g77
g63
NtRp2132
(dp2133
g66
(dp2134
sg75
g71
sg68
(lp2135
g61
(g82
g63
NtRp2136
(dp2137
g66
(dp2138
g86
g87
ssg75
g2132
sg68
(lp2139
S'url'
p2140
asbag61
(g82
g63
NtRp2141
(dp2142
g66
(dp2143
g93
g94
ssg75
g2132
sg68
(lp2144
S':'
asbag61
(g82
g63
NtRp2145
(dp2146
g66
(dp2147
sg75
g2132
sg68
(lp2148
g61
(g62
g63
NtRp2149
(dp2150
g66
(dp2151
g74
I5
ssg75
g2145
sg68
(lp2152
S'/phyloShiny/reconciliotastic/getPhylotasticTree'
p2153
asbasbasbag61
(g77
g63
NtRp2154
(dp2155
g66
(dp2156
sg75
g71
sg68
(lp2157
g61
(g82
g63
NtRp2158
(dp2159
g66
(dp2160
g86
g87
ssg75
g2154
sg68
(lp2161
S'utcnow'
p2162
asbag61
(g82
g63
NtRp2163
(dp2164
g66
(dp2165
g93
g94
ssg75
g2154
sg68
(lp2166
S':'
asbag61
(g82
g63
NtRp2167
(dp2168
g66
(dp2169
sg75
g2154
sg68
(lp2170
g61
(g62
g63
NtRp2171
(dp2172
g66
(dp2173
g74
I5
ssg75
g2167
sg68
(lp2174
S'datetime.datetime(2013, 5, 18, 8, 0, 54, 366358)'
p2175
asbasbasbag61
(g77
g63
NtRp2176
(dp2177
g66
(dp2178
sg75
g71
sg68
(lp2179
g61
(g82
g63
NtRp2180
(dp2181
g66
(dp2182
g86
g87
ssg75
g2176
sg68
(lp2183
S'uuid'
p2184
asbag61
(g82
g63
NtRp2185
(dp2186
g66
(dp2187
g93
g94
ssg75
g2176
sg68
(lp2188
S':'
asbag61
(g82
g63
NtRp2189
(dp2190
g66
(dp2191
sg75
g2176
sg68
(lp2192
g61
(g62
g63
NtRp2193
(dp2194
g66
(dp2195
g74
I5
ssg75
g2189
sg68
(lp2196
S'phyloShiny/127.0.0.1.2013-05-18.13-30-54.d4daf5de-8534-4bf8-870b-45f6fe5bf4f6'
p2197
asbasbasbag61
(g77
g63
NtRp2198
(dp2199
g66
(dp2200
sg75
g71
sg68
(lp2201
g61
(g82
g63
NtRp2202
(dp2203
g66
(dp2204
g86
g87
ssg75
g2198
sg68
(lp2205
S'vars'
p2206
asbag61
(g82
g63
NtRp2207
(dp2208
g66
(dp2209
g93
g94
ssg75
g2198
sg68
(lp2210
S':'
asbag61
(g82
g63
NtRp2211
(dp2212
g66
(dp2213
sg75
g2198
sg68
(lp2214
g61
(g62
g63
NtRp2215
(dp2216
g66
(dp2217
g74
I5
ssg75
g2211
sg68
(lp2218
g61
(g70
g63
NtRp2219
(dp2220
g66
(dp2221
g74
I4
ssg75
Nsg68
(lp2222
g61
(g77
g63
NtRp2223
(dp2224
g66
(dp2225
sg75
g2219
sg68
(lp2226
g61
(g82
g63
NtRp2227
(dp2228
g66
(dp2229
g86
g87
ssg75
g2223
sg68
(lp2230
g1690
asbag61
(g82
g63
NtRp2231
(dp2232
g66
(dp2233
g93
g94
ssg75
g2223
sg68
(lp2234
S':'
asbag61
(g82
g63
NtRp2235
(dp2236
g66
(dp2237
sg75
g2223
sg68
(lp2238
g61
(g62
g63
NtRp2239
(dp2240
g66
(dp2241
g74
I4
ssg75
g2235
sg68
(lp2242
g1703
asbasbasbasbasbasbasbag61
(g77
g63
NtRp2243
(dp2244
g66
(dp2245
sg75
g71
sg68
(lp2246
g61
(g82
g63
NtRp2247
(dp2248
g66
(dp2249
g86
g87
ssg75
g2243
sg68
(lp2250
S'wsgi'
p2251
asbag61
(g82
g63
NtRp2252
(dp2253
g66
(dp2254
g93
g94
ssg75
g2243
sg68
(lp2255
S':'
asbag61
(g82
g63
NtRp2256
(dp2257
g66
(dp2258
sg75
g2243
sg68
(lp2259
g61
(g62
g63
NtRp2260
(dp2261
g66
(dp2262
g74
I5
ssg75
g2256
sg68
(lp2263
g61
(g70
g63
NtRp2264
(dp2265
g66
(dp2266
g74
I4
ssg75
Nsg68
(lp2267
g61
(g77
g63
NtRp2268
(dp2269
g66
(dp2270
sg75
g2264
sg68
(lp2271
g61
(g82
g63
NtRp2272
(dp2273
g66
(dp2274
g86
g87
ssg75
g2268
sg68
(lp2275
S'environ'
p2276
asbag61
(g82
g63
NtRp2277
(dp2278
g66
(dp2279
g93
g94
ssg75
g2268
sg68
(lp2280
S':'
asbag61
(g82
g63
NtRp2281
(dp2282
g66
(dp2283
sg75
g2268
sg68
(lp2284
g61
(g62
g63
NtRp2285
(dp2286
g66
(dp2287
g74
I4
ssg75
g2281
sg68
(lp2288
g61
(g70
g63
NtRp2289
(dp2290
g66
(dp2291
g74
I3
ssg75
Nsg68
(lp2292
g61
(g77
g63
NtRp2293
(dp2294
g66
(dp2295
sg75
g2289
sg68
(lp2296
g61
(g82
g63
NtRp2297
(dp2298
g66
(dp2299
g86
g87
ssg75
g2293
sg68
(lp2300
S'HTTP_ACCEPT'
p2301
asbag61
(g82
g63
NtRp2302
(dp2303
g66
(dp2304
g93
g94
ssg75
g2293
sg68
(lp2305
S':'
asbag61
(g82
g63
NtRp2306
(dp2307
g66
(dp2308
sg75
g2293
sg68
(lp2309
g61
(g62
g63
NtRp2310
(dp2311
g66
(dp2312
g74
I3
ssg75
g2306
sg68
(lp2313
g823
asbasbasbag61
(g77
g63
NtRp2314
(dp2315
g66
(dp2316
sg75
g2289
sg68
(lp2317
g61
(g82
g63
NtRp2318
(dp2319
g66
(dp2320
g86
g87
ssg75
g2314
sg68
(lp2321
S'HTTP_ACCEPT_ENCODING'
p2322
asbag61
(g82
g63
NtRp2323
(dp2324
g66
(dp2325
g93
g94
ssg75
g2314
sg68
(lp2326
S':'
asbag61
(g82
g63
NtRp2327
(dp2328
g66
(dp2329
sg75
g2314
sg68
(lp2330
g61
(g62
g63
NtRp2331
(dp2332
g66
(dp2333
g74
I3
ssg75
g2327
sg68
(lp2334
g845
asbasbasbag61
(g77
g63
NtRp2335
(dp2336
g66
(dp2337
sg75
g2289
sg68
(lp2338
g61
(g82
g63
NtRp2339
(dp2340
g66
(dp2341
g86
g87
ssg75
g2335
sg68
(lp2342
S'HTTP_ACCEPT_LANGUAGE'
p2343
asbag61
(g82
g63
NtRp2344
(dp2345
g66
(dp2346
g93
g94
ssg75
g2335
sg68
(lp2347
S':'
asbag61
(g82
g63
NtRp2348
(dp2349
g66
(dp2350
sg75
g2335
sg68
(lp2351
g61
(g62
g63
NtRp2352
(dp2353
g66
(dp2354
g74
I3
ssg75
g2348
sg68
(lp2355
g867
asbasbasbag61
(g77
g63
NtRp2356
(dp2357
g66
(dp2358
sg75
g2289
sg68
(lp2359
g61
(g82
g63
NtRp2360
(dp2361
g66
(dp2362
g86
g87
ssg75
g2356
sg68
(lp2363
S'HTTP_CONNECTION'
p2364
asbag61
(g82
g63
NtRp2365
(dp2366
g66
(dp2367
g93
g94
ssg75
g2356
sg68
(lp2368
S':'
asbag61
(g82
g63
NtRp2369
(dp2370
g66
(dp2371
sg75
g2356
sg68
(lp2372
g61
(g62
g63
NtRp2373
(dp2374
g66
(dp2375
g74
I3
ssg75
g2369
sg68
(lp2376
g889
asbasbasbag61
(g77
g63
NtRp2377
(dp2378
g66
(dp2379
sg75
g2289
sg68
(lp2380
g61
(g82
g63
NtRp2381
(dp2382
g66
(dp2383
g86
g87
ssg75
g2377
sg68
(lp2384
S'HTTP_COOKIE'
p2385
asbag61
(g82
g63
NtRp2386
(dp2387
g66
(dp2388
g93
g94
ssg75
g2377
sg68
(lp2389
S':'
asbag61
(g82
g63
NtRp2390
(dp2391
g66
(dp2392
sg75
g2377
sg68
(lp2393
g61
(g62
g63
NtRp2394
(dp2395
g66
(dp2396
g74
I3
ssg75
g2390
sg68
(lp2397
g911
asbasbasbag61
(g77
g63
NtRp2398
(dp2399
g66
(dp2400
sg75
g2289
sg68
(lp2401
g61
(g82
g63
NtRp2402
(dp2403
g66
(dp2404
g86
g87
ssg75
g2398
sg68
(lp2405
S'HTTP_HOST'
p2406
asbag61
(g82
g63
NtRp2407
(dp2408
g66
(dp2409
g93
g94
ssg75
g2398
sg68
(lp2410
S':'
asbag61
(g82
g63
NtRp2411
(dp2412
g66
(dp2413
sg75
g2398
sg68
(lp2414
g61
(g62
g63
NtRp2415
(dp2416
g66
(dp2417
g74
I3
ssg75
g2411
sg68
(lp2418
g933
asbasbasbag61
(g77
g63
NtRp2419
(dp2420
g66
(dp2421
sg75
g2289
sg68
(lp2422
g61
(g82
g63
NtRp2423
(dp2424
g66
(dp2425
g86
g87
ssg75
g2419
sg68
(lp2426
S'HTTP_REFERER'
p2427
asbag61
(g82
g63
NtRp2428
(dp2429
g66
(dp2430
g93
g94
ssg75
g2419
sg68
(lp2431
S':'
asbag61
(g82
g63
NtRp2432
(dp2433
g66
(dp2434
sg75
g2419
sg68
(lp2435
g61
(g62
g63
NtRp2436
(dp2437
g66
(dp2438
g74
I3
ssg75
g2432
sg68
(lp2439
g955
asbasbasbag61
(g77
g63
NtRp2440
(dp2441
g66
(dp2442
sg75
g2289
sg68
(lp2443
g61
(g82
g63
NtRp2444
(dp2445
g66
(dp2446
g86
g87
ssg75
g2440
sg68
(lp2447
S'HTTP_USER_AGENT'
p2448
asbag61
(g82
g63
NtRp2449
(dp2450
g66
(dp2451
g93
g94
ssg75
g2440
sg68
(lp2452
S':'
asbag61
(g82
g63
NtRp2453
(dp2454
g66
(dp2455
sg75
g2440
sg68
(lp2456
g61
(g62
g63
NtRp2457
(dp2458
g66
(dp2459
g74
I3
ssg75
g2453
sg68
(lp2460
g977
asbasbasbag61
(g77
g63
NtRp2461
(dp2462
g66
(dp2463
sg75
g2289
sg68
(lp2464
g61
(g82
g63
NtRp2465
(dp2466
g66
(dp2467
g86
g87
ssg75
g2461
sg68
(lp2468
S'HTTP_X_REQUESTED_WITH'
p2469
asbag61
(g82
g63
NtRp2470
(dp2471
g66
(dp2472
g93
g94
ssg75
g2461
sg68
(lp2473
S':'
asbag61
(g82
g63
NtRp2474
(dp2475
g66
(dp2476
sg75
g2461
sg68
(lp2477
g61
(g62
g63
NtRp2478
(dp2479
g66
(dp2480
g74
I3
ssg75
g2474
sg68
(lp2481
g999
asbasbasbag61
(g77
g63
NtRp2482
(dp2483
g66
(dp2484
sg75
g2289
sg68
(lp2485
g61
(g82
g63
NtRp2486
(dp2487
g66
(dp2488
g86
g87
ssg75
g2482
sg68
(lp2489
S'PATH_INFO'
p2490
asbag61
(g82
g63
NtRp2491
(dp2492
g66
(dp2493
g93
g94
ssg75
g2482
sg68
(lp2494
S':'
asbag61
(g82
g63
NtRp2495
(dp2496
g66
(dp2497
sg75
g2482
sg68
(lp2498
g61
(g62
g63
NtRp2499
(dp2500
g66
(dp2501
g74
I3
ssg75
g2495
sg68
(lp2502
g1063
asbasbasbag61
(g77
g63
NtRp2503
(dp2504
g66
(dp2505
sg75
g2289
sg68
(lp2506
g61
(g82
g63
NtRp2507
(dp2508
g66
(dp2509
g86
g87
ssg75
g2503
sg68
(lp2510
S'QUERY_STRING'
p2511
asbag61
(g82
g63
NtRp2512
(dp2513
g66
(dp2514
g93
g94
ssg75
g2503
sg68
(lp2515
S':'
asbag61
(g82
g63
NtRp2516
(dp2517
g66
(dp2518
sg75
g2503
sg68
(lp2519
g61
(g62
g63
NtRp2520
(dp2521
g66
(dp2522
g74
I3
ssg75
g2516
sg68
(lp2523
g1085
asbasbasbag61
(g77
g63
NtRp2524
(dp2525
g66
(dp2526
sg75
g2289
sg68
(lp2527
g61
(g82
g63
NtRp2528
(dp2529
g66
(dp2530
g86
g87
ssg75
g2524
sg68
(lp2531
S'REMOTE_ADDR'
p2532
asbag61
(g82
g63
NtRp2533
(dp2534
g66
(dp2535
g93
g94
ssg75
g2524
sg68
(lp2536
S':'
asbag61
(g82
g63
NtRp2537
(dp2538
g66
(dp2539
sg75
g2524
sg68
(lp2540
g61
(g62
g63
NtRp2541
(dp2542
g66
(dp2543
g74
I3
ssg75
g2537
sg68
(lp2544
g194
asbasbasbag61
(g77
g63
NtRp2545
(dp2546
g66
(dp2547
sg75
g2289
sg68
(lp2548
g61
(g82
g63
NtRp2549
(dp2550
g66
(dp2551
g86
g87
ssg75
g2545
sg68
(lp2552
S'REMOTE_PORT'
p2553
asbag61
(g82
g63
NtRp2554
(dp2555
g66
(dp2556
g93
g94
ssg75
g2545
sg68
(lp2557
S':'
asbag61
(g82
g63
NtRp2558
(dp2559
g66
(dp2560
sg75
g2545
sg68
(lp2561
g61
(g62
g63
NtRp2562
(dp2563
g66
(dp2564
g74
I3
ssg75
g2558
sg68
(lp2565
g1128
asbasbasbag61
(g77
g63
NtRp2566
(dp2567
g66
(dp2568
sg75
g2289
sg68
(lp2569
g61
(g82
g63
NtRp2570
(dp2571
g66
(dp2572
g86
g87
ssg75
g2566
sg68
(lp2573
S'REQUEST_METHOD'
p2574
asbag61
(g82
g63
NtRp2575
(dp2576
g66
(dp2577
g93
g94
ssg75
g2566
sg68
(lp2578
S':'
asbag61
(g82
g63
NtRp2579
(dp2580
g66
(dp2581
sg75
g2566
sg68
(lp2582
g61
(g62
g63
NtRp2583
(dp2584
g66
(dp2585
g74
I3
ssg75
g2579
sg68
(lp2586
g1150
asbasbasbag61
(g77
g63
NtRp2587
(dp2588
g66
(dp2589
sg75
g2289
sg68
(lp2590
g61
(g82
g63
NtRp2591
(dp2592
g66
(dp2593
g86
g87
ssg75
g2587
sg68
(lp2594
S'SCRIPT_NAME'
p2595
asbag61
(g82
g63
NtRp2596
(dp2597
g66
(dp2598
g93
g94
ssg75
g2587
sg68
(lp2599
S':'
asbag61
(g82
g63
NtRp2600
(dp2601
g66
(dp2602
sg75
g2587
sg68
(lp2603
g61
(g62
g63
NtRp2604
(dp2605
g66
(dp2606
g74
I3
ssg75
g2600
sg68
(lp2607
S''
asbasbasbag61
(g77
g63
NtRp2608
(dp2609
g66
(dp2610
sg75
g2289
sg68
(lp2611
g61
(g82
g63
NtRp2612
(dp2613
g66
(dp2614
g86
g87
ssg75
g2608
sg68
(lp2615
S'SERVER_NAME'
p2616
asbag61
(g82
g63
NtRp2617
(dp2618
g66
(dp2619
g93
g94
ssg75
g2608
sg68
(lp2620
S':'
asbag61
(g82
g63
NtRp2621
(dp2622
g66
(dp2623
sg75
g2608
sg68
(lp2624
g61
(g62
g63
NtRp2625
(dp2626
g66
(dp2627
g74
I3
ssg75
g2621
sg68
(lp2628
g1193
asbasbasbag61
(g77
g63
NtRp2629
(dp2630
g66
(dp2631
sg75
g2289
sg68
(lp2632
g61
(g82
g63
NtRp2633
(dp2634
g66
(dp2635
g86
g87
ssg75
g2629
sg68
(lp2636
S'SERVER_PORT'
p2637
asbag61
(g82
g63
NtRp2638
(dp2639
g66
(dp2640
g93
g94
ssg75
g2629
sg68
(lp2641
S':'
asbag61
(g82
g63
NtRp2642
(dp2643
g66
(dp2644
sg75
g2629
sg68
(lp2645
g61
(g62
g63
NtRp2646
(dp2647
g66
(dp2648
g74
I3
ssg75
g2642
sg68
(lp2649
g1215
asbasbasbag61
(g77
g63
NtRp2650
(dp2651
g66
(dp2652
sg75
g2289
sg68
(lp2653
g61
(g82
g63
NtRp2654
(dp2655
g66
(dp2656
g86
g87
ssg75
g2650
sg68
(lp2657
S'SERVER_PROTOCOL'
p2658
asbag61
(g82
g63
NtRp2659
(dp2660
g66
(dp2661
g93
g94
ssg75
g2650
sg68
(lp2662
S':'
asbag61
(g82
g63
NtRp2663
(dp2664
g66
(dp2665
sg75
g2650
sg68
(lp2666
g61
(g62
g63
NtRp2667
(dp2668
g66
(dp2669
g74
I3
ssg75
g2663
sg68
(lp2670
g1237
asbasbasbag61
(g77
g63
NtRp2671
(dp2672
g66
(dp2673
sg75
g2289
sg68
(lp2674
g61
(g82
g63
NtRp2675
(dp2676
g66
(dp2677
g86
g87
ssg75
g2671
sg68
(lp2678
S'SERVER_SOFTWARE'
p2679
asbag61
(g82
g63
NtRp2680
(dp2681
g66
(dp2682
g93
g94
ssg75
g2671
sg68
(lp2683
S':'
asbag61
(g82
g63
NtRp2684
(dp2685
g66
(dp2686
sg75
g2671
sg68
(lp2687
g61
(g62
g63
NtRp2688
(dp2689
g66
(dp2690
g74
I3
ssg75
g2684
sg68
(lp2691
g1259
asbasbasbag61
(g77
g63
NtRp2692
(dp2693
g66
(dp2694
sg75
g2289
sg68
(lp2695
g61
(g82
g63
NtRp2696
(dp2697
g66
(dp2698
g86
g87
ssg75
g2692
sg68
(lp2699
S'wsgi.errors'
p2700
asbag61
(g82
g63
NtRp2701
(dp2702
g66
(dp2703
g93
g94
ssg75
g2692
sg68
(lp2704
S':'
asbag61
(g82
g63
NtRp2705
(dp2706
g66
(dp2707
sg75
g2692
sg68
(lp2708
g61
(g62
g63
NtRp2709
(dp2710
g66
(dp2711
g74
I3
ssg75
g2705
sg68
(lp2712
S"<open file '<stderr>', mode 'w' at 0xb729d0d0>"
p2713
asbasbasbag61
(g77
g63
NtRp2714
(dp2715
g66
(dp2716
sg75
g2289
sg68
(lp2717
g61
(g82
g63
NtRp2718
(dp2719
g66
(dp2720
g86
g87
ssg75
g2714
sg68
(lp2721
S'wsgi.file_wrapper'
p2722
asbag61
(g82
g63
NtRp2723
(dp2724
g66
(dp2725
g93
g94
ssg75
g2714
sg68
(lp2726
S':'
asbag61
(g82
g63
NtRp2727
(dp2728
g66
(dp2729
sg75
g2714
sg68
(lp2730
g61
(g62
g63
NtRp2731
(dp2732
g66
(dp2733
g74
I3
ssg75
g2727
sg68
(lp2734
S'<class wsgiref.util.FileWrapper at 0x9ad923c>'
p2735
asbasbasbag61
(g77
g63
NtRp2736
(dp2737
g66
(dp2738
sg75
g2289
sg68
(lp2739
g61
(g82
g63
NtRp2740
(dp2741
g66
(dp2742
g86
g87
ssg75
g2736
sg68
(lp2743
S'wsgi.input'
p2744
asbag61
(g82
g63
NtRp2745
(dp2746
g66
(dp2747
g93
g94
ssg75
g2736
sg68
(lp2748
S':'
asbag61
(g82
g63
NtRp2749
(dp2750
g66
(dp2751
sg75
g2736
sg68
(lp2752
g61
(g62
g63
NtRp2753
(dp2754
g66
(dp2755
g74
I3
ssg75
g2749
sg68
(lp2756
S'<cStringIO.StringO object at 0xa1d7da0>'
p2757
asbasbasbag61
(g77
g63
NtRp2758
(dp2759
g66
(dp2760
sg75
g2289
sg68
(lp2761
g61
(g82
g63
NtRp2762
(dp2763
g66
(dp2764
g86
g87
ssg75
g2758
sg68
(lp2765
S'wsgi.multiprocess'
p2766
asbag61
(g82
g63
NtRp2767
(dp2768
g66
(dp2769
g93
g94
ssg75
g2758
sg68
(lp2770
S':'
asbag61
(g82
g63
NtRp2771
(dp2772
g66
(dp2773
sg75
g2758
sg68
(lp2774
g61
(g62
g63
NtRp2775
(dp2776
g66
(dp2777
g74
I3
ssg75
g2771
sg68
(lp2778
g779
asbasbasbag61
(g77
g63
NtRp2779
(dp2780
g66
(dp2781
sg75
g2289
sg68
(lp2782
g61
(g82
g63
NtRp2783
(dp2784
g66
(dp2785
g86
g87
ssg75
g2779
sg68
(lp2786
S'wsgi.multithread'
p2787
asbag61
(g82
g63
NtRp2788
(dp2789
g66
(dp2790
g93
g94
ssg75
g2779
sg68
(lp2791
S':'
asbag61
(g82
g63
NtRp2792
(dp2793
g66
(dp2794
sg75
g2779
sg68
(lp2795
g61
(g62
g63
NtRp2796
(dp2797
g66
(dp2798
g74
I3
ssg75
g2792
sg68
(lp2799
g104
asbasbasbag61
(g77
g63
NtRp2800
(dp2801
g66
(dp2802
sg75
g2289
sg68
(lp2803
g61
(g82
g63
NtRp2804
(dp2805
g66
(dp2806
g86
g87
ssg75
g2800
sg68
(lp2807
S'wsgi.run_once'
p2808
asbag61
(g82
g63
NtRp2809
(dp2810
g66
(dp2811
g93
g94
ssg75
g2800
sg68
(lp2812
S':'
asbag61
(g82
g63
NtRp2813
(dp2814
g66
(dp2815
sg75
g2800
sg68
(lp2816
g61
(g62
g63
NtRp2817
(dp2818
g66
(dp2819
g74
I3
ssg75
g2813
sg68
(lp2820
g779
asbasbasbag61
(g77
g63
NtRp2821
(dp2822
g66
(dp2823
sg75
g2289
sg68
(lp2824
g61
(g82
g63
NtRp2825
(dp2826
g66
(dp2827
g86
g87
ssg75
g2821
sg68
(lp2828
S'wsgi.url_scheme'
p2829
asbag61
(g82
g63
NtRp2830
(dp2831
g66
(dp2832
g93
g94
ssg75
g2821
sg68
(lp2833
S':'
asbag61
(g82
g63
NtRp2834
(dp2835
g66
(dp2836
sg75
g2821
sg68
(lp2837
g61
(g62
g63
NtRp2838
(dp2839
g66
(dp2840
g74
I3
ssg75
g2834
sg68
(lp2841
g1541
asbasbasbag61
(g77
g63
NtRp2842
(dp2843
g66
(dp2844
sg75
g2289
sg68
(lp2845
g61
(g82
g63
NtRp2846
(dp2847
g66
(dp2848
g86
g87
ssg75
g2842
sg68
(lp2849
S'wsgi.version'
p2850
asbag61
(g82
g63
NtRp2851
(dp2852
g66
(dp2853
g93
g94
ssg75
g2842
sg68
(lp2854
S':'
asbag61
(g82
g63
NtRp2855
(dp2856
g66
(dp2857
sg75
g2842
sg68
(lp2858
g61
(g62
g63
NtRp2859
(dp2860
g66
(dp2861
g74
I3
ssg75
g2855
sg68
(lp2862
S'1'
asbasbasbasbasbasbasbasbasbasbasbasbasbsS'frames'
p2863
(lp2864
(dp2865
S'file'
p2866
S'/usr/lib/pymodules/python2.7/gluon/restricted.py'
p2867
sS'dump'
p2868
(dp2869
S'environment'
p2870
S"{'A': <class 'gluon.html.A'>, 'Auth': <class 'gluon.tools.Auth'>, 'B': <class 'gluon.html.B'>, 'BEAUTIFY': <class 'gluon.html.BEAUTIFY'>, 'BODY': <class 'gluon.html.BODY'>, 'BR': <class 'gluon.html.BR'>, 'BUTTON': <class 'gluon.html.BUTTON'>, 'BaseTree': <module 'Bio.Phylo.BaseTree' from '/usr/local/lib/python2.7/dist-packages/Bio/Phylo/BaseTree.py'>, 'CAT': <class 'gluon.html.CAT'>, 'CDAO': <module 'Bio.Phylo.CDAO' from '/usr/local/lib/python2.7/dist-packages/Bio/Phylo/CDAO.pyc'>, ...}"
p2871
sS'ccode'
p2872
S'<code object <module> at 0xb15be9f8, file "/home...oShiny/controllers/reconciliotastic.py", line 11>'
p2873
ssS'lnum'
p2874
I204
sS'lines'
p2875
(dp2876
I199
S'    try:'
p2877
sI200
S'        if type(code) == types.CodeType:'
p2878
sI201
S'            ccode = code'
p2879
sI202
S'        else:'
p2880
sI203
S'            ccode = compile2(code,layer)'
p2881
sI204
S'        exec ccode in environment'
p2882
sI205
S'    except HTTP:'
p2883
sI206
S'        raise'
p2884
sI207
S'    except RestrictedError:'
p2885
sI208
S'        # do not encapsulate (obfuscate) the original RestrictedError'
p2886
ssS'call'
p2887
S"(code='# -*- coding: utf-8 -*-\\n# this file is released ...ponse._vars=response._caller(getPhylotasticTree)\\n', environment={'A': <class 'gluon.html.A'>, 'Auth': <class 'gluon.tools.Auth'>, 'B': <class 'gluon.html.B'>, 'BEAUTIFY': <class 'gluon.html.BEAUTIFY'>, 'BODY': <class 'gluon.html.BODY'>, 'BR': <class 'gluon.html.BR'>, 'BUTTON': <class 'gluon.html.BUTTON'>, 'BaseTree': <module 'Bio.Phylo.BaseTree' from '/usr/local/lib/python2.7/dist-packages/Bio/Phylo/BaseTree.py'>, 'CAT': <class 'gluon.html.CAT'>, 'CDAO': <module 'Bio.Phylo.CDAO' from '/usr/local/lib/python2.7/dist-packages/Bio/Phylo/CDAO.pyc'>, ...}, layer='/home/prateek/web2py/applications/phyloShiny/controllers/reconciliotastic.py')"
p2888
sS'func'
p2889
S'restricted'
p2890
sa(dp2891
g2866
S'/home/prateek/web2py/applications/phyloShiny/controllers/reconciliotastic.py'
p2892
sg2868
(dp2893
sg2874
I172
sg2875
(dp2894
I161
S'    shellCall += geneTreeFile'
p2895
sI162
S"    shellCall += ' '+speciesTreeFile"
p2896
sI163
S''
sI164
S'    os.system(shellCall)'
p2897
sI165
S''
sI166
S"    reconciledTreeWebFile = getRelativeWebPath('_preprocessed_gene_tree.phylo_gsdi_out.phylo.xml')"
p2898
sI167
S''
sI168
S'    return response.json( dict(vizFile = reconciledTreeWebFile,'
p2899
sI169
S'                               vizLabel = "Reconciled Tree (red=duplication, green=speciation)"'
p2900
sI170
S'                               ) )'
p2901
ssg2887
S'()'
p2902
sg2889
S'<module>'
p2903
sa(dp2904
g2866
S'/usr/lib/pymodules/python2.7/gluon/globals.py'
p2905
sg2868
(dp2906
S'self'
p2907
S'undefined'
p2908
sS'f'
S'<function getPhylotasticTree>'
p2909
ssg2874
I172
sg2875
(dp2910
I167
S'        self.meta = Storage()      # used by web2py_ajax.html'
p2911
sI168
S'        self.menu = []             # used by the default view layout'
p2912
sI169
S'        self.files = []            # used by web2py_ajax.html'
p2913
sI170
S'        self.generic_patterns = [] # patterns to allow generic views'
p2914
sI171
S'        self._vars = None'
p2915
sI172
S'        self._caller = lambda f: f()'
p2916
sI173
S'        self._view_environment = None'
p2917
sI174
S'        self._custom_commit = None'
p2918
sI175
S'        self._custom_rollback = None'
p2919
sI176
S''
ssg2887
S'(f=<function getPhylotasticTree>)'
p2920
sg2889
S'<lambda>'
p2921
sa(dp2922
g2866
S'/home/prateek/web2py/applications/phyloShiny/controllers/reconciliotastic.py'
p2923
sg2868
(dp2924
S'global Phylo'
p2925
S"<module 'Bio.Phylo' from '/usr/local/lib/python2.7/dist-packages/Bio/Phylo/__init__.py'>"
p2926
sS'tree'
p2927
g2908
sS'speciesTreeFilename'
p2928
S"'/home/prateek/web2py/applications/phyloShiny/sta...globin_Pruned/input_genetree.nwk_species_tree.txt'"
p2929
sS'Phylo.read'
p2930
S'<function read>'
p2931
ssg2874
I124
sg2875
(dp2932
I128
S'    #then further we can maintain a textview in the frontend indicating the number of nodes(i.e. the number of species)'
p2933
sI119
S''
sI120
S"    speciesTreeFilename = filePrefix+'_species_tree.txt'"
p2934
sI121
S"    open(speciesTreeFilename,'w').write(speciesTreeString)"
p2935
sI122
S''
sI123
S'    got_nodes=0\t\t\t\t\t\t\t\t\t#global counter to keep the count of the nodes'
p2936
sI124
S"    tree = Phylo.read(speciesTreeFilename, 'newick')\t\t\t\t#tree reads the species labels in newick format"
p2937
sI125
S'    got_nodes=BaseTree.TreeMixin.count_terminals(tree);'
p2938
sI126
S'##  got_nodes=count'
p2939
sI127
S'    #no. of non-terminal nodes received in got_nodes.Now can be printed or checked with user input value to test if all species received.'
p2940
ssg2887
S'()'
p2941
sg2889
S'getPhylotasticTree'
p2942
sa(dp2943
g2866
S'/usr/local/lib/python2.7/dist-packages/Bio/Phylo/_io.py'
p2944
sg2868
(dp2945
S'tree_gen.next'
p2946
S"<method-wrapper 'next' of generator object>"
p2947
sS'tree'
p2948
g2908
sS'tree_gen'
p2949
S'<generator object parse>'
p2950
ssg2874
I64
sg2875
(dp2951
I64
S'        tree = tree_gen.next()'
p2952
sI65
S'    except StopIteration:'
p2953
sI66
S'        raise ValueError("There are no trees in this file.")'
p2954
sI67
S'    try:'
p2955
sI68
S'        tree_gen.next()'
p2956
sI59
S'    Raises a `ValueError` if there are zero or multiple trees -- if this occurs,'
p2957
sI60
S'    use `parse` instead to get the complete sequence of trees.'
p2958
sI61
S'    """'
p2959
sI62
S'    try:'
p2960
sI63
S'        tree_gen = parse(file, format, **kwargs)'
p2961
ssg2887
S"(file='/home/prateek/web2py/applications/phyloShiny/sta...globin_Pruned/input_genetree.nwk_species_tree.txt', format='newick', **kwargs={})"
p2962
sg2889
S'read'
p2963
sa(dp2964
g2866
S'/usr/local/lib/python2.7/dist-packages/Bio/Phylo/_io.py'
p2965
sg2868
(dp2966
S'fp'
p2967
S"<closed file '/home/prateek/web2py/applications/...d/input_genetree.nwk_species_tree.txt', mode 'r'>"
p2968
sS'format'
p2969
S"'newick'"
p2970
sS'global supported_formats'
p2971
S"{'newick': <module 'Bio.Phylo.NewickIO' from '/usr/local/lib/python2.7/dist-packages/Bio/Phylo/NewickIO.py'>, 'nexml': <module 'Bio.Phylo.NeXMLIO' from '/usr/local/lib/python2.7/dist-packages/Bio/Phylo/NeXMLIO.pyc'>, 'nexus': <module 'Bio.Phylo.NexusIO' from '/usr/local/lib/python2.7/dist-packages/Bio/Phylo/NexusIO.py'>, 'phyloxml': <module 'Bio.Phylo.PhyloXMLIO' from '/usr/local/...python2.7/dist-packages/Bio/Phylo/PhyloXMLIO.py'>}"
p2972
sS'tree'
p2973
g2908
sS'kwargs'
p2974
g21
sS'builtingetattr'
p2975
S'<built-in function getattr>'
p2976
ssg2874
I52
sg2875
(dp2977
I47
S'    >>> for tree in trees:'
p2978
sI48
S'    ...     print tree.rooted'
p2979
sI49
S'    True'
p2980
sI50
S'    """'
p2981
sI51
S"    with File.as_handle(file, 'r') as fp:"
p2982
sI52
S"        for tree in getattr(supported_formats[format], 'parse')(fp, **kwargs):"
p2983
sI53
S'            yield tree'
p2984
sI54
S''
sI55
S''
sI56
S'def read(file, format, **kwargs):'
p2985
ssg2887
S"(file='/home/prateek/web2py/applications/phyloShiny/sta...globin_Pruned/input_genetree.nwk_species_tree.txt', format='newick', **kwargs={})"
p2986
sg2889
S'parse'
p2987
sa(dp2988
g2866
S'/usr/local/lib/python2.7/dist-packages/Bio/Phylo/NewickIO.py'
p2989
sg2868
(dp2990
S'self'
p2991
S'<Bio.Phylo.NewickIO.Parser object>'
p2992
sS'buf'
p2993
S'\'<!DOCTYPE html PUBLIC "-//W3C//DTD HTML 4.01 Tra...le:/tmp/_WZs_rYax0Streaming Command Failed!>>.-->\''
p2994
sS'self._parse_tree'
p2995
S'<bound method Parser._parse_tree of <Bio.Phylo.NewickIO.Parser object>>'
p2996
ssg2874
I111
sg2875
(dp2997
I106
S"            if buf.endswith(';'):"
p2998
sI107
S'                yield self._parse_tree(buf)'
p2999
sI108
S"                buf = ''"
p3000
sI109
S'        if buf:'
p3001
sI110
S"            # Last tree is missing a terminal ';' character -- that's OK"
p3002
sI111
S'            yield self._parse_tree(buf)'
p3003
sI112
S''
sI113
S'    def _parse_tree(self, text):'
p3004
sI114
S'        """Parses the text representation into an Tree object."""'
p3005
sI115
S'        tokens = re.finditer(tokenizer, text.strip())'
p3006
ssg2887
S'(self=<Bio.Phylo.NewickIO.Parser object>, values_are_confidence=False, comments_are_confidence=False, rooted=False)'
p3007
sg2889
g2987
sa(dp3008
g2866
S'/usr/local/lib/python2.7/dist-packages/Bio/Phylo/NewickIO.py'
p3009
sg2868
(dp3010
S'next_token.group'
p3011
S'<built-in method group of _sre.SRE_Match object>'
p3012
sS'next_token'
p3013
S'<_sre.SRE_Match object>'
p3014
ssg2874
I190
sg2875
(dp3015
I192
S'            pass'
p3016
sI193
S''
sI194
S'        self.process_clade(current_clade)'
p3017
sI185
S''
sI186
S'        # if ; token broke out of for loop, there should be no remaining tokens'
p3018
sI187
S'        try:'
p3019
sI188
S'            next_token = tokens.next()'
p3020
sI189
S"            raise NewickError('Text after semicolon in Newick tree: %s'"
p3021
sI190
S'                              % next_token.group())'
p3022
sI191
S'        except StopIteration:'
p3023
ssg2887
S'(self=<Bio.Phylo.NewickIO.Parser object>, text=\'<!DOCTYPE html PUBLIC "-//W3C//DTD HTML 4.01 Tra...le:/tmp/_WZs_rYax0Streaming Command Failed!>>.-->\')'
p3024
sg2889
S'_parse_tree'
p3025
sasS'pyver'
p3026
S'Python 2.7.3: /usr/bin/python'
p3027
sS'session'
p3028
g61
(g62
g63
NtRp3029
(dp3030
g66
(dp3031
sg68
(lp3032
g61
(g70
g63
NtRp3033
(dp3034
g66
(dp3035
g74
I5
ssg75
Nsg68
(lp3036
sbasbsS'etype'
p3037
S"<class 'Bio.Phylo.NewickIO.NewickError'>"
p3038
sS'date'
p3039
S'Sat May 18 13:30:55 2013'
p3040
sS'response'
p3041
g61
(g62
g63
NtRp3042
(dp3043
g66
(dp3044
sg68
(lp3045
g61
(g70
g63
NtRp3046
(dp3047
g66
(dp3048
g74
I5
ssg75
Nsg68
(lp3049
g61
(g77
g63
NtRp3050
(dp3051
g66
(dp3052
sg75
g3046
sg68
(lp3053
g61
(g82
g63
NtRp3054
(dp3055
g66
(dp3056
g86
g87
ssg75
g3050
sg68
(lp3057
g159
asbag61
(g82
g63
NtRp3058
(dp3059
g66
(dp3060
g93
g94
ssg75
g3050
sg68
(lp3061
S':'
asbag61
(g82
g63
NtRp3062
(dp3063
g66
(dp3064
sg75
g3050
sg68
(lp3065
g61
(g62
g63
NtRp3066
(dp3067
g66
(dp3068
g74
I5
ssg75
g3062
sg68
(lp3069
S'<cStringIO.StringO object at 0xa1b2a60>'
p3070
asbasbasbag61
(g77
g63
NtRp3071
(dp3072
g66
(dp3073
sg75
g3046
sg68
(lp3074
g61
(g82
g63
NtRp3075
(dp3076
g66
(dp3077
g86
g87
ssg75
g3071
sg68
(lp3078
g225
asbag61
(g82
g63
NtRp3079
(dp3080
g66
(dp3081
g93
g94
ssg75
g3071
sg68
(lp3082
S':'
asbag61
(g82
g63
NtRp3083
(dp3084
g66
(dp3085
sg75
g3071
sg68
(lp3086
g61
(g62
g63
NtRp3087
(dp3088
g66
(dp3089
g74
I5
ssg75
g3083
sg68
(lp3090
g61
(g70
g63
NtRp3091
(dp3092
g66
(dp3093
g74
I4
ssg75
Nsg68
(lp3094
g61
(g77
g63
NtRp3095
(dp3096
g66
(dp3097
sg75
g3091
sg68
(lp3098
g61
(g82
g63
NtRp3099
(dp3100
g66
(dp3101
g86
g87
ssg75
g3095
sg68
(lp3102
S'session_id_phyloshiny'
p3103
asbag61
(g82
g63
NtRp3104
(dp3105
g66
(dp3106
g93
g94
ssg75
g3095
sg68
(lp3107
S':'
asbag61
(g82
g63
NtRp3108
(dp3109
g66
(dp3110
sg75
g3095
sg68
(lp3111
g61
(g62
g63
NtRp3112
(dp3113
g66
(dp3114
g74
I4
ssg75
g3108
sg68
(lp3115
g61
(g70
g63
NtRp3116
(dp3117
g66
(dp3118
g74
I3
ssg75
Nsg68
(lp3119
g61
(g77
g63
NtRp3120
(dp3121
g66
(dp3122
sg75
g3116
sg68
(lp3123
g61
(g82
g63
NtRp3124
(dp3125
g66
(dp3126
g86
g87
ssg75
g3120
sg68
(lp3127
g275
asbag61
(g82
g63
NtRp3128
(dp3129
g66
(dp3130
g93
g94
ssg75
g3120
sg68
(lp3131
S':'
asbag61
(g82
g63
NtRp3132
(dp3133
g66
(dp3134
sg75
g3120
sg68
(lp3135
g61
(g62
g63
NtRp3136
(dp3137
g66
(dp3138
g74
I3
ssg75
g3132
sg68
(lp3139
S''
asbasbasbag61
(g77
g63
NtRp3140
(dp3141
g66
(dp3142
sg75
g3116
sg68
(lp3143
g61
(g82
g63
NtRp3144
(dp3145
g66
(dp3146
g86
g87
ssg75
g3140
sg68
(lp3147
g296
asbag61
(g82
g63
NtRp3148
(dp3149
g66
(dp3150
g93
g94
ssg75
g3140
sg68
(lp3151
S':'
asbag61
(g82
g63
NtRp3152
(dp3153
g66
(dp3154
sg75
g3140
sg68
(lp3155
g61
(g62
g63
NtRp3156
(dp3157
g66
(dp3158
g74
I3
ssg75
g3152
sg68
(lp3159
S''
asbasbasbag61
(g77
g63
NtRp3160
(dp3161
g66
(dp3162
sg75
g3116
sg68
(lp3163
g61
(g82
g63
NtRp3164
(dp3165
g66
(dp3166
g86
g87
ssg75
g3160
sg68
(lp3167
g317
asbag61
(g82
g63
NtRp3168
(dp3169
g66
(dp3170
g93
g94
ssg75
g3160
sg68
(lp3171
S':'
asbag61
(g82
g63
NtRp3172
(dp3173
g66
(dp3174
sg75
g3160
sg68
(lp3175
g61
(g62
g63
NtRp3176
(dp3177
g66
(dp3178
g74
I3
ssg75
g3172
sg68
(lp3179
S''
asbasbasbag61
(g77
g63
NtRp3180
(dp3181
g66
(dp3182
sg75
g3116
sg68
(lp3183
g61
(g82
g63
NtRp3184
(dp3185
g66
(dp3186
g86
g87
ssg75
g3180
sg68
(lp3187
g338
asbag61
(g82
g63
NtRp3188
(dp3189
g66
(dp3190
g93
g94
ssg75
g3180
sg68
(lp3191
S':'
asbag61
(g82
g63
NtRp3192
(dp3193
g66
(dp3194
sg75
g3180
sg68
(lp3195
g61
(g62
g63
NtRp3196
(dp3197
g66
(dp3198
g74
I3
ssg75
g3192
sg68
(lp3199
S''
asbasbasbag61
(g77
g63
NtRp3200
(dp3201
g66
(dp3202
sg75
g3116
sg68
(lp3203
g61
(g82
g63
NtRp3204
(dp3205
g66
(dp3206
g86
g87
ssg75
g3200
sg68
(lp3207
g359
asbag61
(g82
g63
NtRp3208
(dp3209
g66
(dp3210
g93
g94
ssg75
g3200
sg68
(lp3211
S':'
asbag61
(g82
g63
NtRp3212
(dp3213
g66
(dp3214
sg75
g3200
sg68
(lp3215
g61
(g62
g63
NtRp3216
(dp3217
g66
(dp3218
g74
I3
ssg75
g3212
sg68
(lp3219
S''
asbasbasbag61
(g77
g63
NtRp3220
(dp3221
g66
(dp3222
sg75
g3116
sg68
(lp3223
g61
(g82
g63
NtRp3224
(dp3225
g66
(dp3226
g86
g87
ssg75
g3220
sg68
(lp3227
g380
asbag61
(g82
g63
NtRp3228
(dp3229
g66
(dp3230
g93
g94
ssg75
g3220
sg68
(lp3231
S':'
asbag61
(g82
g63
NtRp3232
(dp3233
g66
(dp3234
sg75
g3220
sg68
(lp3235
g61
(g62
g63
NtRp3236
(dp3237
g66
(dp3238
g74
I3
ssg75
g3232
sg68
(lp3239
S'/'
asbasbasbag61
(g77
g63
NtRp3240
(dp3241
g66
(dp3242
sg75
g3116
sg68
(lp3243
g61
(g82
g63
NtRp3244
(dp3245
g66
(dp3246
g86
g87
ssg75
g3240
sg68
(lp3247
g401
asbag61
(g82
g63
NtRp3248
(dp3249
g66
(dp3250
g93
g94
ssg75
g3240
sg68
(lp3251
S':'
asbag61
(g82
g63
NtRp3252
(dp3253
g66
(dp3254
sg75
g3240
sg68
(lp3255
g61
(g62
g63
NtRp3256
(dp3257
g66
(dp3258
g74
I3
ssg75
g3252
sg68
(lp3259
S''
asbasbasbag61
(g77
g63
NtRp3260
(dp3261
g66
(dp3262
sg75
g3116
sg68
(lp3263
g61
(g82
g63
NtRp3264
(dp3265
g66
(dp3266
g86
g87
ssg75
g3260
sg68
(lp3267
g422
asbag61
(g82
g63
NtRp3268
(dp3269
g66
(dp3270
g93
g94
ssg75
g3260
sg68
(lp3271
S':'
asbag61
(g82
g63
NtRp3272
(dp3273
g66
(dp3274
sg75
g3260
sg68
(lp3275
g61
(g62
g63
NtRp3276
(dp3277
g66
(dp3278
g74
I3
ssg75
g3272
sg68
(lp3279
S''
asbasbasbasbasbasbasbasbasbasbasbag61
(g77
g63
NtRp3280
(dp3281
g66
(dp3282
sg75
g3046
sg68
(lp3283
g61
(g82
g63
NtRp3284
(dp3285
g66
(dp3286
g86
g87
ssg75
g3280
sg68
(lp3287
S'files'
p3288
asbag61
(g82
g63
NtRp3289
(dp3290
g66
(dp3291
g93
g94
ssg75
g3280
sg68
(lp3292
S':'
asbag61
(g82
g63
NtRp3293
(dp3294
g66
(dp3295
sg75
g3280
sg68
(lp3296
g61
(g62
g63
NtRp3297
(dp3298
g66
(dp3299
g74
I5
ssg75
g3293
sg68
(lp3300
g61
(g70
g63
NtRp3301
(dp3302
g66
(dp3303
g74
I4
ssg75
Nsg68
(lp3304
sbasbasbasbag61
(g77
g63
NtRp3305
(dp3306
g66
(dp3307
sg75
g3046
sg68
(lp3308
g61
(g82
g63
NtRp3309
(dp3310
g66
(dp3311
g86
g87
ssg75
g3305
sg68
(lp3312
S'flash'
p3313
asbag61
(g82
g63
NtRp3314
(dp3315
g66
(dp3316
g93
g94
ssg75
g3305
sg68
(lp3317
S':'
asbag61
(g82
g63
NtRp3318
(dp3319
g66
(dp3320
sg75
g3305
sg68
(lp3321
g61
(g62
g63
NtRp3322
(dp3323
g66
(dp3324
g74
I5
ssg75
g3318
sg68
(lp3325
S''
asbasbasbag61
(g77
g63
NtRp3326
(dp3327
g66
(dp3328
sg75
g3046
sg68
(lp3329
g61
(g82
g63
NtRp3330
(dp3331
g66
(dp3332
g86
g87
ssg75
g3326
sg68
(lp3333
S'generic_patterns'
p3334
asbag61
(g82
g63
NtRp3335
(dp3336
g66
(dp3337
g93
g94
ssg75
g3326
sg68
(lp3338
S':'
asbag61
(g82
g63
NtRp3339
(dp3340
g66
(dp3341
sg75
g3326
sg68
(lp3342
g61
(g62
g63
NtRp3343
(dp3344
g66
(dp3345
g74
I5
ssg75
g3339
sg68
(lp3346
g61
(g70
g63
NtRp3347
(dp3348
g66
(dp3349
g74
I4
ssg75
Nsg68
(lp3350
g61
(g77
g63
NtRp3351
(dp3352
g66
(dp3353
sg75
g3347
sg68
(lp3354
g61
(g82
g63
NtRp3355
(dp3356
g66
(dp3357
sg75
g3351
sg68
(lp3358
g61
(g62
g63
NtRp3359
(dp3360
g66
(dp3361
g74
I4
ssg75
g3355
sg68
(lp3362
S'*'
asbasbasbasbasbasbasbag61
(g77
g63
NtRp3363
(dp3364
g66
(dp3365
sg75
g3046
sg68
(lp3366
g61
(g82
g63
NtRp3367
(dp3368
g66
(dp3369
g86
g87
ssg75
g3363
sg68
(lp3370
S'headers'
p3371
asbag61
(g82
g63
NtRp3372
(dp3373
g66
(dp3374
g93
g94
ssg75
g3363
sg68
(lp3375
S':'
asbag61
(g82
g63
NtRp3376
(dp3377
g66
(dp3378
sg75
g3363
sg68
(lp3379
g61
(g62
g63
NtRp3380
(dp3381
g66
(dp3382
g74
I5
ssg75
g3376
sg68
(lp3383
g61
(g70
g63
NtRp3384
(dp3385
g66
(dp3386
g74
I4
ssg75
Nsg68
(lp3387
g61
(g77
g63
NtRp3388
(dp3389
g66
(dp3390
sg75
g3384
sg68
(lp3391
g61
(g82
g63
NtRp3392
(dp3393
g66
(dp3394
g86
g87
ssg75
g3388
sg68
(lp3395
S'Cache-Control'
p3396
asbag61
(g82
g63
NtRp3397
(dp3398
g66
(dp3399
g93
g94
ssg75
g3388
sg68
(lp3400
S':'
asbag61
(g82
g63
NtRp3401
(dp3402
g66
(dp3403
sg75
g3388
sg68
(lp3404
g61
(g62
g63
NtRp3405
(dp3406
g66
(dp3407
g74
I4
ssg75
g3401
sg68
(lp3408
S'no-store, no-cache, must-revalidate, post-check=0, pre-check=0'
p3409
asbasbasbag61
(g77
g63
NtRp3410
(dp3411
g66
(dp3412
sg75
g3384
sg68
(lp3413
g61
(g82
g63
NtRp3414
(dp3415
g66
(dp3416
g86
g87
ssg75
g3410
sg68
(lp3417
S'Content-Type'
p3418
asbag61
(g82
g63
NtRp3419
(dp3420
g66
(dp3421
g93
g94
ssg75
g3410
sg68
(lp3422
S':'
asbag61
(g82
g63
NtRp3423
(dp3424
g66
(dp3425
sg75
g3410
sg68
(lp3426
g61
(g62
g63
NtRp3427
(dp3428
g66
(dp3429
g74
I4
ssg75
g3423
sg68
(lp3430
S'text/html; charset=utf-8'
p3431
asbasbasbag61
(g77
g63
NtRp3432
(dp3433
g66
(dp3434
sg75
g3384
sg68
(lp3435
g61
(g82
g63
NtRp3436
(dp3437
g66
(dp3438
g86
g87
ssg75
g3432
sg68
(lp3439
S'Expires'
p3440
asbag61
(g82
g63
NtRp3441
(dp3442
g66
(dp3443
g93
g94
ssg75
g3432
sg68
(lp3444
S':'
asbag61
(g82
g63
NtRp3445
(dp3446
g66
(dp3447
sg75
g3432
sg68
(lp3448
g61
(g62
g63
NtRp3449
(dp3450
g66
(dp3451
g74
I4
ssg75
g3445
sg68
(lp3452
S'Sat, 18 May 2013 08:00:54 GMT'
p3453
asbasbasbag61
(g77
g63
NtRp3454
(dp3455
g66
(dp3456
sg75
g3384
sg68
(lp3457
g61
(g82
g63
NtRp3458
(dp3459
g66
(dp3460
g86
g87
ssg75
g3454
sg68
(lp3461
S'Pragma'
p3462
asbag61
(g82
g63
NtRp3463
(dp3464
g66
(dp3465
g93
g94
ssg75
g3454
sg68
(lp3466
S':'
asbag61
(g82
g63
NtRp3467
(dp3468
g66
(dp3469
sg75
g3454
sg68
(lp3470
g61
(g62
g63
NtRp3471
(dp3472
g66
(dp3473
g74
I4
ssg75
g3467
sg68
(lp3474
S'no-cache'
p3475
asbasbasbag61
(g77
g63
NtRp3476
(dp3477
g66
(dp3478
sg75
g3384
sg68
(lp3479
g61
(g82
g63
NtRp3480
(dp3481
g66
(dp3482
g86
g87
ssg75
g3476
sg68
(lp3483
S'X-Powered-By'
p3484
asbag61
(g82
g63
NtRp3485
(dp3486
g66
(dp3487
g93
g94
ssg75
g3476
sg68
(lp3488
S':'
asbag61
(g82
g63
NtRp3489
(dp3490
g66
(dp3491
sg75
g3476
sg68
(lp3492
g61
(g62
g63
NtRp3493
(dp3494
g66
(dp3495
g74
I4
ssg75
g3489
sg68
(lp3496
S'web2py'
p3497
asbasbasbasbasbasbasbag61
(g77
g63
NtRp3498
(dp3499
g66
(dp3500
sg75
g3046
sg68
(lp3501
g61
(g82
g63
NtRp3502
(dp3503
g66
(dp3504
g86
g87
ssg75
g3498
sg68
(lp3505
S'menu'
p3506
asbag61
(g82
g63
NtRp3507
(dp3508
g66
(dp3509
g93
g94
ssg75
g3498
sg68
(lp3510
S':'
asbag61
(g82
g63
NtRp3511
(dp3512
g66
(dp3513
sg75
g3498
sg68
(lp3514
g61
(g62
g63
NtRp3515
(dp3516
g66
(dp3517
g74
I5
ssg75
g3511
sg68
(lp3518
g61
(g70
g63
NtRp3519
(dp3520
g66
(dp3521
g74
I4
ssg75
Nsg68
(lp3522
g61
(g77
g63
NtRp3523
(dp3524
g66
(dp3525
sg75
g3519
sg68
(lp3526
g61
(g82
g63
NtRp3527
(dp3528
g66
(dp3529
sg75
g3523
sg68
(lp3530
g61
(g62
g63
NtRp3531
(dp3532
g66
(dp3533
g74
I4
ssg75
g3527
sg68
(lp3534
g61
(g70
g63
NtRp3535
(dp3536
g66
(dp3537
g74
I3
ssg75
Nsg68
(lp3538
g61
(g77
g63
NtRp3539
(dp3540
g66
(dp3541
sg75
g3535
sg68
(lp3542
g61
(g82
g63
NtRp3543
(dp3544
g66
(dp3545
sg75
g3539
sg68
(lp3546
g61
(g62
g63
NtRp3547
(dp3548
g66
(dp3549
g74
I3
ssg75
g3543
sg68
(lp3550
cgluon.languages
lazyT_unpickle
p3551
(S't\x04\x00\x00\x00Home'
tRp3552
asbasbasbag61
(g77
g63
NtRp3553
(dp3554
g66
(dp3555
sg75
g3535
sg68
(lp3556
g61
(g82
g63
NtRp3557
(dp3558
g66
(dp3559
sg75
g3553
sg68
(lp3560
g61
(g62
g63
NtRp3561
(dp3562
g66
(dp3563
g74
I3
ssg75
g3557
sg68
(lp3564
g779
asbasbasbag61
(g77
g63
NtRp3565
(dp3566
g66
(dp3567
sg75
g3535
sg68
(lp3568
g61
(g82
g63
NtRp3569
(dp3570
g66
(dp3571
sg75
g3565
sg68
(lp3572
g61
(g62
g63
NtRp3573
(dp3574
g66
(dp3575
g74
I3
ssg75
g3569
sg68
(lp3576
S'/phyloShiny/default/index'
p3577
asbasbasbag61
(g77
g63
NtRp3578
(dp3579
g66
(dp3580
sg75
g3535
sg68
(lp3581
g61
(g82
g63
NtRp3582
(dp3583
g66
(dp3584
sg75
g3578
sg68
(lp3585
g61
(g62
g63
NtRp3586
(dp3587
g66
(dp3588
g74
I3
ssg75
g3582
sg68
(lp3589
g61
(g70
g63
NtRp3590
(dp3591
g66
(dp3592
g74
I2
ssg75
Nsg68
(lp3593
sbasbasbasbasbasbasbasbag61
(g77
g63
NtRp3594
(dp3595
g66
(dp3596
sg75
g3519
sg68
(lp3597
g61
(g82
g63
NtRp3598
(dp3599
g66
(dp3600
sg75
g3594
sg68
(lp3601
g61
(g62
g63
NtRp3602
(dp3603
g66
(dp3604
g74
I4
ssg75
g3598
sg68
(lp3605
g61
(g70
g63
NtRp3606
(dp3607
g66
(dp3608
g74
I3
ssg75
Nsg68
(lp3609
g61
(g77
g63
NtRp3610
(dp3611
g66
(dp3612
sg75
g3606
sg68
(lp3613
g61
(g82
g63
NtRp3614
(dp3615
g66
(dp3616
sg75
g3610
sg68
(lp3617
g61
(g62
g63
NtRp3618
(dp3619
g66
(dp3620
g74
I3
ssg75
g3614
sg68
(lp3621
g61
(cgluon.html
SPAN
p3622
g63
NtRp3623
(dp3624
g66
(dp3625
g86
S'color:yellow'
p3626
ssg75
Nsg68
(lp3627
g3497
asbasbasbasbag61
(g77
g63
NtRp3628
(dp3629
g66
(dp3630
sg75
g3606
sg68
(lp3631
g61
(g82
g63
NtRp3632
(dp3633
g66
(dp3634
sg75
g3628
sg68
(lp3635
g61
(g62
g63
NtRp3636
(dp3637
g66
(dp3638
g74
I3
ssg75
g3632
sg68
(lp3639
g779
asbasbasbag61
(g77
g63
NtRp3640
(dp3641
g66
(dp3642
sg75
g3606
sg68
(lp3643
g61
(g82
g63
NtRp3644
(dp3645
g66
(dp3646
sg75
g3640
sg68
(lp3647
g61
(g62
g63
NtRp3648
(dp3649
g66
(dp3650
g74
I3
ssg75
g3644
sg68
(lp3651
S'None'
p3652
asbasbasbag61
(g77
g63
NtRp3653
(dp3654
g66
(dp3655
sg75
g3606
sg68
(lp3656
g61
(g82
g63
NtRp3657
(dp3658
g66
(dp3659
sg75
g3653
sg68
(lp3660
g61
(g62
g63
NtRp3661
(dp3662
g66
(dp3663
g74
I3
ssg75
g3657
sg68
(lp3664
g61
(g70
g63
NtRp3665
(dp3666
g66
(dp3667
g74
I2
ssg75
Nsg68
(lp3668
g61
(g77
g63
NtRp3669
(dp3670
g66
(dp3671
sg75
g3665
sg68
(lp3672
g61
(g82
g63
NtRp3673
(dp3674
g66
(dp3675
sg75
g3669
sg68
(lp3676
g61
(g62
g63
NtRp3677
(dp3678
g66
(dp3679
g74
I2
ssg75
g3673
sg68
(lp3680
g61
(g70
g63
NtRp3681
(dp3682
g66
(dp3683
g74
I1
ssg75
Nsg68
(lp3684
g61
(g77
g63
NtRp3685
(dp3686
g66
(dp3687
sg75
g3681
sg68
(lp3688
g61
(g82
g63
NtRp3689
(dp3690
g66
(dp3691
sg75
g3685
sg68
(lp3692
g61
(g62
g63
NtRp3693
(dp3694
g66
(dp3695
g74
I1
ssg75
g3689
sg68
(lp3696
g3551
(S's\x08\x00\x00\x00My Sites'
tRp3697
asbasbasbag61
(g77
g63
NtRp3698
(dp3699
g66
(dp3700
sg75
g3681
sg68
(lp3701
g61
(g82
g63
NtRp3702
(dp3703
g66
(dp3704
sg75
g3698
sg68
(lp3705
g61
(g62
g63
NtRp3706
(dp3707
g66
(dp3708
g74
I1
ssg75
g3702
sg68
(lp3709
I00
asbasbasbag61
(g77
g63
NtRp3710
(dp3711
g66
(dp3712
sg75
g3681
sg68
(lp3713
g61
(g82
g63
NtRp3714
(dp3715
g66
(dp3716
sg75
g3710
sg68
(lp3717
g61
(g62
g63
NtRp3718
(dp3719
g66
(dp3720
g74
I1
ssg75
g3714
sg68
(lp3721
S'/admin/default/site'
p3722
asbasbasbasbasbasbasbag61
(g77
g63
NtRp3723
(dp3724
g66
(dp3725
sg75
g3665
sg68
(lp3726
g61
(g82
g63
NtRp3727
(dp3728
g66
(dp3729
sg75
g3723
sg68
(lp3730
g61
(g62
g63
NtRp3731
(dp3732
g66
(dp3733
g74
I2
ssg75
g3727
sg68
(lp3734
g61
(g70
g63
NtRp3735
(dp3736
g66
(dp3737
g74
I1
ssg75
Nsg68
(lp3738
g61
(g77
g63
NtRp3739
(dp3740
g66
(dp3741
sg75
g3735
sg68
(lp3742
g61
(g82
g63
NtRp3743
(dp3744
g66
(dp3745
sg75
g3739
sg68
(lp3746
g61
(g62
g63
NtRp3747
(dp3748
g66
(dp3749
g74
I1
ssg75
g3743
sg68
(lp3750
g3551
(S's\x08\x00\x00\x00This App'
tRp3751
asbasbasbag61
(g77
g63
NtRp3752
(dp3753
g66
(dp3754
sg75
g3735
sg68
(lp3755
g61
(g82
g63
NtRp3756
(dp3757
g66
(dp3758
sg75
g3752
sg68
(lp3759
g61
(g62
g63
NtRp3760
(dp3761
g66
(dp3762
g74
I1
ssg75
g3756
sg68
(lp3763
I00
asbasbasbag61
(g77
g63
NtRp3764
(dp3765
g66
(dp3766
sg75
g3735
sg68
(lp3767
g61
(g82
g63
NtRp3768
(dp3769
g66
(dp3770
sg75
g3764
sg68
(lp3771
g61
(g62
g63
NtRp3772
(dp3773
g66
(dp3774
g74
I1
ssg75
g3768
sg68
(lp3775
S'/admin/default/design/phyloShiny'
p3776
asbasbasbag61
(g77
g63
NtRp3777
(dp3778
g66
(dp3779
sg75
g3735
sg68
(lp3780
g61
(g82
g63
NtRp3781
(dp3782
g66
(dp3783
sg75
g3777
sg68
(lp3784
g61
(g62
g63
NtRp3785
(dp3786
g66
(dp3787
g74
I1
ssg75
g3781
sg68
(lp3788
(lp3789
(g3551
(S't\n\x00\x00\x00Controller'
tRp3790
I00
S'/admin/default/edit/phyloShiny/controllers/reconciliotastic.py'
tp3791
a(g3551
(S't\x04\x00\x00\x00View'
tRp3792
I00
S'/admin/default/edit/phyloShiny/views/reconciliotastic/getPhylotasticTree.html'
tp3793
a(g3551
(S't\x06\x00\x00\x00Layout'
tRp3794
I00
S'/admin/default/edit/phyloShiny/views/layout.html'
tp3795
a(g3551
(S't\n\x00\x00\x00Stylesheet'
tRp3796
I00
S'/admin/default/edit/phyloShiny/static/css/web2py.css'
tp3797
a(g3551
(S's\x08\x00\x00\x00DB Model'
tRp3798
I00
S'/admin/default/edit/phyloShiny/models/db.py'
tp3799
a(g3551
(S's\n\x00\x00\x00Menu Model'
tRp3800
I00
S'/admin/default/edit/phyloShiny/models/menu.py'
tp3801
a(g3551
(S't\x08\x00\x00\x00Database'
tRp3802
I00
S'/phyloShiny/appadmin/index'
tp3803
a(g3551
(S't\x06\x00\x00\x00Errors'
tRp3804
I00
S'/admin/default/errors/phyloShiny'
tp3805
a(g3551
(S't\x05\x00\x00\x00About'
tRp3806
I00
S'/admin/default/about/phyloShiny'
tp3807
aasbasbasbasbasbasbasbag61
(g77
g63
NtRp3808
(dp3809
g66
(dp3810
sg75
g3665
sg68
(lp3811
g61
(g82
g63
NtRp3812
(dp3813
g66
(dp3814
sg75
g3808
sg68
(lp3815
g61
(g62
g63
NtRp3816
(dp3817
g66
(dp3818
g74
I2
ssg75
g3812
sg68
(lp3819
g61
(g70
g63
NtRp3820
(dp3821
g66
(dp3822
g74
I1
ssg75
Nsg68
(lp3823
g61
(g77
g63
NtRp3824
(dp3825
g66
(dp3826
sg75
g3820
sg68
(lp3827
g61
(g82
g63
NtRp3828
(dp3829
g66
(dp3830
sg75
g3824
sg68
(lp3831
g61
(g62
g63
NtRp3832
(dp3833
g66
(dp3834
g74
I1
ssg75
g3828
sg68
(lp3835
S'web2py.com'
p3836
asbasbasbag61
(g77
g63
NtRp3837
(dp3838
g66
(dp3839
sg75
g3820
sg68
(lp3840
g61
(g82
g63
NtRp3841
(dp3842
g66
(dp3843
sg75
g3837
sg68
(lp3844
g61
(g62
g63
NtRp3845
(dp3846
g66
(dp3847
g74
I1
ssg75
g3841
sg68
(lp3848
I00
asbasbasbag61
(g77
g63
NtRp3849
(dp3850
g66
(dp3851
sg75
g3820
sg68
(lp3852
g61
(g82
g63
NtRp3853
(dp3854
g66
(dp3855
sg75
g3849
sg68
(lp3856
g61
(g62
g63
NtRp3857
(dp3858
g66
(dp3859
g74
I1
ssg75
g3853
sg68
(lp3860
S'http://www.web2py.com'
p3861
asbasbasbag61
(g77
g63
NtRp3862
(dp3863
g66
(dp3864
sg75
g3820
sg68
(lp3865
g61
(g82
g63
NtRp3866
(dp3867
g66
(dp3868
sg75
g3862
sg68
(lp3869
g61
(g62
g63
NtRp3870
(dp3871
g66
(dp3872
g74
I1
ssg75
g3866
sg68
(lp3873
(lp3874
(g3551
(S't\x08\x00\x00\x00Download'
tRp3875
I00
S'http://www.web2py.com/examples/default/download'
p3876
tp3877
a(g3551
(S't\x07\x00\x00\x00Support'
tRp3878
I00
S'http://www.web2py.com/examples/default/support'
p3879
tp3880
a(g3551
(S't\x04\x00\x00\x00Demo'
tRp3881
I00
S'http://web2py.com/demo_admin'
p3882
tp3883
a(g3551
(S's\x0e\x00\x00\x00Quick Examples'
tRp3884
I00
S'http://web2py.com/examples/default/examples'
p3885
tp3886
a(g3551
(S't\x03\x00\x00\x00FAQ'
tRp3887
I00
S'http://web2py.com/AlterEgo'
p3888
tp3889
a(g3551
(S't\x06\x00\x00\x00Videos'
tRp3890
I00
S'http://www.web2py.com/examples/default/videos/'
p3891
tp3892
a(g3551
(S's\x11\x00\x00\x00Free Applications'
tRp3893
I00
S'http://web2py.com/appliances'
p3894
tp3895
a(g3551
(S't\x07\x00\x00\x00Plugins'
tRp3896
I00
S'http://web2py.com/plugins'
p3897
tp3898
a(g3551
(S't\x07\x00\x00\x00Layouts'
tRp3899
I00
S'http://web2py.com/layouts'
p3900
tp3901
a(g3551
(S't\x07\x00\x00\x00Recipes'
tRp3902
I00
S'http://web2pyslices.com/'
p3903
tp3904
a(g3551
(S't\x08\x00\x00\x00Semantic'
tRp3905
I00
S'http://web2py.com/semantic'
p3906
tp3907
aasbasbasbasbasbasbasbag61
(g77
g63
NtRp3908
(dp3909
g66
(dp3910
sg75
g3665
sg68
(lp3911
g61
(g82
g63
NtRp3912
(dp3913
g66
(dp3914
sg75
g3908
sg68
(lp3915
g61
(g62
g63
NtRp3916
(dp3917
g66
(dp3918
g74
I2
ssg75
g3912
sg68
(lp3919
g61
(g70
g63
NtRp3920
(dp3921
g66
(dp3922
g74
I1
ssg75
Nsg68
(lp3923
g61
(g77
g63
NtRp3924
(dp3925
g66
(dp3926
sg75
g3920
sg68
(lp3927
g61
(g82
g63
NtRp3928
(dp3929
g66
(dp3930
sg75
g3924
sg68
(lp3931
g61
(g62
g63
NtRp3932
(dp3933
g66
(dp3934
g74
I1
ssg75
g3928
sg68
(lp3935
g3551
(S't\r\x00\x00\x00Documentation'
tRp3936
asbasbasbag61
(g77
g63
NtRp3937
(dp3938
g66
(dp3939
sg75
g3920
sg68
(lp3940
g61
(g82
g63
NtRp3941
(dp3942
g66
(dp3943
sg75
g3937
sg68
(lp3944
g61
(g62
g63
NtRp3945
(dp3946
g66
(dp3947
g74
I1
ssg75
g3941
sg68
(lp3948
I00
asbasbasbag61
(g77
g63
NtRp3949
(dp3950
g66
(dp3951
sg75
g3920
sg68
(lp3952
g61
(g82
g63
NtRp3953
(dp3954
g66
(dp3955
sg75
g3949
sg68
(lp3956
g61
(g62
g63
NtRp3957
(dp3958
g66
(dp3959
g74
I1
ssg75
g3953
sg68
(lp3960
S'http://www.web2py.com/book'
p3961
asbasbasbag61
(g77
g63
NtRp3962
(dp3963
g66
(dp3964
sg75
g3920
sg68
(lp3965
g61
(g82
g63
NtRp3966
(dp3967
g66
(dp3968
sg75
g3962
sg68
(lp3969
g61
(g62
g63
NtRp3970
(dp3971
g66
(dp3972
g74
I1
ssg75
g3966
sg68
(lp3973
(lp3974
(g3551
(S't\x07\x00\x00\x00Preface'
tRp3975
I00
S'http://www.web2py.com/book/default/chapter/00'
p3976
tp3977
a(g3551
(S't\x0c\x00\x00\x00Introduction'
tRp3978
I00
S'http://www.web2py.com/book/default/chapter/01'
p3979
tp3980
a(g3551
(S't\x06\x00\x00\x00Python'
tRp3981
I00
S'http://www.web2py.com/book/default/chapter/02'
p3982
tp3983
a(g3551
(S't\x08\x00\x00\x00Overview'
tRp3984
I00
S'http://www.web2py.com/book/default/chapter/03'
p3985
tp3986
a(g3551
(S's\x08\x00\x00\x00The Core'
tRp3987
I00
S'http://www.web2py.com/book/default/chapter/04'
p3988
tp3989
a(g3551
(S's\t\x00\x00\x00The Views'
tRp3990
I00
S'http://www.web2py.com/book/default/chapter/05'
p3991
tp3992
a(g3551
(S't\x08\x00\x00\x00Database'
tRp3993
I00
S'http://www.web2py.com/book/default/chapter/06'
p3994
tp3995
a(g3551
(S's\x14\x00\x00\x00Forms and Validators'
tRp3996
I00
S'http://www.web2py.com/book/default/chapter/07'
p3997
tp3998
a(g3551
(S's\r\x00\x00\x00Email and SMS'
tRp3999
I00
S'http://www.web2py.com/book/default/chapter/08'
p4000
tp4001
a(g3551
(S's\x0e\x00\x00\x00Access Control'
tRp4002
I00
S'http://www.web2py.com/book/default/chapter/09'
p4003
tp4004
a(g3551
(S't\x08\x00\x00\x00Services'
tRp4005
I00
S'http://www.web2py.com/book/default/chapter/10'
p4006
tp4007
a(g3551
(S's\x0c\x00\x00\x00Ajax Recipes'
tRp4008
I00
S'http://www.web2py.com/book/default/chapter/11'
p4009
tp4010
a(g3551
(S's\x16\x00\x00\x00Components and Plugins'
tRp4011
I00
S'http://www.web2py.com/book/default/chapter/12'
p4012
tp4013
a(g3551
(S's\x12\x00\x00\x00Deployment Recipes'
tRp4014
I00
S'http://www.web2py.com/book/default/chapter/13'
p4015
tp4016
a(g3551
(S's\r\x00\x00\x00Other Recipes'
tRp4017
I00
S'http://www.web2py.com/book/default/chapter/14'
p4018
tp4019
a(g3551
(S's\r\x00\x00\x00Buy this book'
tRp4020
I00
S'http://stores.lulu.com/web2py'
p4021
tp4022
aasbasbasbasbasbasbasbag61
(g77
g63
NtRp4023
(dp4024
g66
(dp4025
sg75
g3665
sg68
(lp4026
g61
(g82
g63
NtRp4027
(dp4028
g66
(dp4029
sg75
g4023
sg68
(lp4030
g61
(g62
g63
NtRp4031
(dp4032
g66
(dp4033
g74
I2
ssg75
g4027
sg68
(lp4034
g61
(g70
g63
NtRp4035
(dp4036
g66
(dp4037
g74
I1
ssg75
Nsg68
(lp4038
g61
(g77
g63
NtRp4039
(dp4040
g66
(dp4041
sg75
g4035
sg68
(lp4042
g61
(g82
g63
NtRp4043
(dp4044
g66
(dp4045
sg75
g4039
sg68
(lp4046
g61
(g62
g63
NtRp4047
(dp4048
g66
(dp4049
g74
I1
ssg75
g4043
sg68
(lp4050
g3551
(S't\t\x00\x00\x00Community'
tRp4051
asbasbasbag61
(g77
g63
NtRp4052
(dp4053
g66
(dp4054
sg75
g4035
sg68
(lp4055
g61
(g82
g63
NtRp4056
(dp4057
g66
(dp4058
sg75
g4052
sg68
(lp4059
g61
(g62
g63
NtRp4060
(dp4061
g66
(dp4062
g74
I1
ssg75
g4056
sg68
(lp4063
I00
asbasbasbag61
(g77
g63
NtRp4064
(dp4065
g66
(dp4066
sg75
g4035
sg68
(lp4067
g61
(g82
g63
NtRp4068
(dp4069
g66
(dp4070
sg75
g4064
sg68
(lp4071
g61
(g62
g63
NtRp4072
(dp4073
g66
(dp4074
g74
I1
ssg75
g4068
sg68
(lp4075
Nasbasbasbag61
(g77
g63
NtRp4076
(dp4077
g66
(dp4078
sg75
g4035
sg68
(lp4079
g61
(g82
g63
NtRp4080
(dp4081
g66
(dp4082
sg75
g4076
sg68
(lp4083
g61
(g62
g63
NtRp4084
(dp4085
g66
(dp4086
g74
I1
ssg75
g4080
sg68
(lp4087
(lp4088
(g3551
(S't\x06\x00\x00\x00Groups'
tRp4089
I00
S'http://www.web2py.com/examples/default/usergroups'
p4090
tp4091
a(g3551
(S't\x07\x00\x00\x00Twitter'
tRp4092
I00
S'http://twitter.com/web2py'
p4093
tp4094
a(g3551
(S's\t\x00\x00\x00Live Chat'
tRp4095
I00
S'http://webchat.freenode.net/?channels=web2py'
p4096
tp4097
aasbasbasbasbasbasbasbag61
(g77
g63
NtRp4098
(dp4099
g66
(dp4100
sg75
g3665
sg68
(lp4101
g61
(g82
g63
NtRp4102
(dp4103
g66
(dp4104
sg75
g4098
sg68
(lp4105
g61
(g62
g63
NtRp4106
(dp4107
g66
(dp4108
g74
I2
ssg75
g4102
sg68
(lp4109
g61
(g70
g63
NtRp4110
(dp4111
g66
(dp4112
g74
I1
ssg75
Nsg68
(lp4113
g61
(g77
g63
NtRp4114
(dp4115
g66
(dp4116
sg75
g4110
sg68
(lp4117
g61
(g82
g63
NtRp4118
(dp4119
g66
(dp4120
sg75
g4114
sg68
(lp4121
g61
(g62
g63
NtRp4122
(dp4123
g66
(dp4124
g74
I1
ssg75
g4118
sg68
(lp4125
g3551
(S't\x07\x00\x00\x00Plugins'
tRp4126
asbasbasbag61
(g77
g63
NtRp4127
(dp4128
g66
(dp4129
sg75
g4110
sg68
(lp4130
g61
(g82
g63
NtRp4131
(dp4132
g66
(dp4133
sg75
g4127
sg68
(lp4134
g61
(g62
g63
NtRp4135
(dp4136
g66
(dp4137
g74
I1
ssg75
g4131
sg68
(lp4138
I00
asbasbasbag61
(g77
g63
NtRp4139
(dp4140
g66
(dp4141
sg75
g4110
sg68
(lp4142
g61
(g82
g63
NtRp4143
(dp4144
g66
(dp4145
sg75
g4139
sg68
(lp4146
g61
(g62
g63
NtRp4147
(dp4148
g66
(dp4149
g74
I1
ssg75
g4143
sg68
(lp4150
Nasbasbasbag61
(g77
g63
NtRp4151
(dp4152
g66
(dp4153
sg75
g4110
sg68
(lp4154
g61
(g82
g63
NtRp4155
(dp4156
g66
(dp4157
sg75
g4151
sg68
(lp4158
g61
(g62
g63
NtRp4159
(dp4160
g66
(dp4161
g74
I1
ssg75
g4155
sg68
(lp4162
(lp4163
(S'plugin_wiki'
p4164
I00
S'http://web2py.com/examples/default/download'
p4165
tp4166
a(g3551
(S's\r\x00\x00\x00Other Plugins'
tRp4167
I00
g3897
tp4168
a(g3551
(S's\x0e\x00\x00\x00Layout Plugins'
tRp4169
I00
g3900
tp4170
aasbasbasbasbasbasbasbasbasbasbasbasbasbasbasbasbasbasbasbag61
(g77
g63
NtRp4171
(dp4172
g66
(dp4173
sg75
g3046
sg68
(lp4174
g61
(g82
g63
NtRp4175
(dp4176
g66
(dp4177
g86
g87
ssg75
g4171
sg68
(lp4178
S'meta'
p4179
asbag61
(g82
g63
NtRp4180
(dp4181
g66
(dp4182
g93
g94
ssg75
g4171
sg68
(lp4183
S':'
asbag61
(g82
g63
NtRp4184
(dp4185
g66
(dp4186
sg75
g4171
sg68
(lp4187
g61
(g62
g63
NtRp4188
(dp4189
g66
(dp4190
g74
I5
ssg75
g4184
sg68
(lp4191
g61
(g70
g63
NtRp4192
(dp4193
g66
(dp4194
g74
I4
ssg75
Nsg68
(lp4195
g61
(g77
g63
NtRp4196
(dp4197
g66
(dp4198
sg75
g4192
sg68
(lp4199
g61
(g82
g63
NtRp4200
(dp4201
g66
(dp4202
g86
g87
ssg75
g4196
sg68
(lp4203
S'author'
p4204
asbag61
(g82
g63
NtRp4205
(dp4206
g66
(dp4207
g93
g94
ssg75
g4196
sg68
(lp4208
S':'
asbag61
(g82
g63
NtRp4209
(dp4210
g66
(dp4211
sg75
g4196
sg68
(lp4212
g61
(g62
g63
NtRp4213
(dp4214
g66
(dp4215
g74
I4
ssg75
g4209
sg68
(lp4216
S'Your Name <you@example.com>'
p4217
asbasbasbag61
(g77
g63
NtRp4218
(dp4219
g66
(dp4220
sg75
g4192
sg68
(lp4221
g61
(g82
g63
NtRp4222
(dp4223
g66
(dp4224
g86
g87
ssg75
g4218
sg68
(lp4225
S'copyright'
p4226
asbag61
(g82
g63
NtRp4227
(dp4228
g66
(dp4229
g93
g94
ssg75
g4218
sg68
(lp4230
S':'
asbag61
(g82
g63
NtRp4231
(dp4232
g66
(dp4233
sg75
g4218
sg68
(lp4234
g61
(g62
g63
NtRp4235
(dp4236
g66
(dp4237
g74
I4
ssg75
g4231
sg68
(lp4238
S'Copyright 2011'
p4239
asbasbasbag61
(g77
g63
NtRp4240
(dp4241
g66
(dp4242
sg75
g4192
sg68
(lp4243
g61
(g82
g63
NtRp4244
(dp4245
g66
(dp4246
g86
g87
ssg75
g4240
sg68
(lp4247
S'description'
p4248
asbag61
(g82
g63
NtRp4249
(dp4250
g66
(dp4251
g93
g94
ssg75
g4240
sg68
(lp4252
S':'
asbag61
(g82
g63
NtRp4253
(dp4254
g66
(dp4255
sg75
g4240
sg68
(lp4256
g61
(g62
g63
NtRp4257
(dp4258
g66
(dp4259
g74
I4
ssg75
g4253
sg68
(lp4260
S'a cool new app'
p4261
asbasbasbag61
(g77
g63
NtRp4262
(dp4263
g66
(dp4264
sg75
g4192
sg68
(lp4265
g61
(g82
g63
NtRp4266
(dp4267
g66
(dp4268
g86
g87
ssg75
g4262
sg68
(lp4269
S'generator'
p4270
asbag61
(g82
g63
NtRp4271
(dp4272
g66
(dp4273
g93
g94
ssg75
g4262
sg68
(lp4274
S':'
asbag61
(g82
g63
NtRp4275
(dp4276
g66
(dp4277
sg75
g4262
sg68
(lp4278
g61
(g62
g63
NtRp4279
(dp4280
g66
(dp4281
g74
I4
ssg75
g4275
sg68
(lp4282
S'Web2py Web Framework'
p4283
asbasbasbag61
(g77
g63
NtRp4284
(dp4285
g66
(dp4286
sg75
g4192
sg68
(lp4287
g61
(g82
g63
NtRp4288
(dp4289
g66
(dp4290
g86
g87
ssg75
g4284
sg68
(lp4291
S'keywords'
p4292
asbag61
(g82
g63
NtRp4293
(dp4294
g66
(dp4295
g93
g94
ssg75
g4284
sg68
(lp4296
S':'
asbag61
(g82
g63
NtRp4297
(dp4298
g66
(dp4299
sg75
g4284
sg68
(lp4300
g61
(g62
g63
NtRp4301
(dp4302
g66
(dp4303
g74
I4
ssg75
g4297
sg68
(lp4304
S'web2py, python, framework'
p4305
asbasbasbasbasbasbasbag61
(g77
g63
NtRp4306
(dp4307
g66
(dp4308
sg75
g3046
sg68
(lp4309
g61
(g82
g63
NtRp4310
(dp4311
g66
(dp4312
g86
g87
ssg75
g4306
sg68
(lp4313
S'postprocessing'
p4314
asbag61
(g82
g63
NtRp4315
(dp4316
g66
(dp4317
g93
g94
ssg75
g4306
sg68
(lp4318
S':'
asbag61
(g82
g63
NtRp4319
(dp4320
g66
(dp4321
sg75
g4306
sg68
(lp4322
g61
(g62
g63
NtRp4323
(dp4324
g66
(dp4325
g74
I5
ssg75
g4319
sg68
(lp4326
g61
(g70
g63
NtRp4327
(dp4328
g66
(dp4329
g74
I4
ssg75
Nsg68
(lp4330
sbasbasbasbag61
(g77
g63
NtRp4331
(dp4332
g66
(dp4333
sg75
g3046
sg68
(lp4334
g61
(g82
g63
NtRp4335
(dp4336
g66
(dp4337
g86
g87
ssg75
g4331
sg68
(lp4338
S'session_filename'
p4339
asbag61
(g82
g63
NtRp4340
(dp4341
g66
(dp4342
g93
g94
ssg75
g4331
sg68
(lp4343
S':'
asbag61
(g82
g63
NtRp4344
(dp4345
g66
(dp4346
sg75
g4331
sg68
(lp4347
g61
(g62
g63
NtRp4348
(dp4349
g66
(dp4350
g74
I5
ssg75
g4344
sg68
(lp4351
S'/home/prateek/web2py/applications/phyloShiny/sessions/127.0.0.1-fac2eec8-a904-4c54-b47b-0a55897b0dea'
p4352
asbasbasbag61
(g77
g63
NtRp4353
(dp4354
g66
(dp4355
sg75
g3046
sg68
(lp4356
g61
(g82
g63
NtRp4357
(dp4358
g66
(dp4359
g86
g87
ssg75
g4353
sg68
(lp4360
S'session_id'
p4361
asbag61
(g82
g63
NtRp4362
(dp4363
g66
(dp4364
g93
g94
ssg75
g4353
sg68
(lp4365
S':'
asbag61
(g82
g63
NtRp4366
(dp4367
g66
(dp4368
sg75
g4353
sg68
(lp4369
g61
(g62
g63
NtRp4370
(dp4371
g66
(dp4372
g74
I5
ssg75
g4366
sg68
(lp4373
S'127.0.0.1-fac2eec8-a904-4c54-b47b-0a55897b0dea'
p4374
asbasbasbag61
(g77
g63
NtRp4375
(dp4376
g66
(dp4377
sg75
g3046
sg68
(lp4378
g61
(g82
g63
NtRp4379
(dp4380
g66
(dp4381
g86
g87
ssg75
g4375
sg68
(lp4382
S'session_id_name'
p4383
asbag61
(g82
g63
NtRp4384
(dp4385
g66
(dp4386
g93
g94
ssg75
g4375
sg68
(lp4387
S':'
asbag61
(g82
g63
NtRp4388
(dp4389
g66
(dp4390
sg75
g4375
sg68
(lp4391
g61
(g62
g63
NtRp4392
(dp4393
g66
(dp4394
g74
I5
ssg75
g4388
sg68
(lp4395
g3103
asbasbasbag61
(g77
g63
NtRp4396
(dp4397
g66
(dp4398
sg75
g3046
sg68
(lp4399
g61
(g82
g63
NtRp4400
(dp4401
g66
(dp4402
g86
g87
ssg75
g4396
sg68
(lp4403
S'session_new'
p4404
asbag61
(g82
g63
NtRp4405
(dp4406
g66
(dp4407
g93
g94
ssg75
g4396
sg68
(lp4408
S':'
asbag61
(g82
g63
NtRp4409
(dp4410
g66
(dp4411
sg75
g4396
sg68
(lp4412
g61
(g62
g63
NtRp4413
(dp4414
g66
(dp4415
g74
I5
ssg75
g4409
sg68
(lp4416
g104
asbasbasbag61
(g77
g63
NtRp4417
(dp4418
g66
(dp4419
sg75
g3046
sg68
(lp4420
g61
(g82
g63
NtRp4421
(dp4422
g66
(dp4423
g86
g87
ssg75
g4417
sg68
(lp4424
S'status'
p4425
asbag61
(g82
g63
NtRp4426
(dp4427
g66
(dp4428
g93
g94
ssg75
g4417
sg68
(lp4429
S':'
asbag61
(g82
g63
NtRp4430
(dp4431
g66
(dp4432
sg75
g4417
sg68
(lp4433
g61
(g62
g63
NtRp4434
(dp4435
g66
(dp4436
g74
I5
ssg75
g4430
sg68
(lp4437
S'200'
p4438
asbasbasbag61
(g77
g63
NtRp4439
(dp4440
g66
(dp4441
sg75
g3046
sg68
(lp4442
g61
(g82
g63
NtRp4443
(dp4444
g66
(dp4445
g86
g87
ssg75
g4439
sg68
(lp4446
S'subtitle'
p4447
asbag61
(g82
g63
NtRp4448
(dp4449
g66
(dp4450
g93
g94
ssg75
g4439
sg68
(lp4451
S':'
asbag61
(g82
g63
NtRp4452
(dp4453
g66
(dp4454
sg75
g4439
sg68
(lp4455
g61
(g62
g63
NtRp4456
(dp4457
g66
(dp4458
g74
I5
ssg75
g4452
sg68
(lp4459
g3551
(S's\r\x00\x00\x00customize me!'
tRp4460
asbasbasbag61
(g77
g63
NtRp4461
(dp4462
g66
(dp4463
sg75
g3046
sg68
(lp4464
g61
(g82
g63
NtRp4465
(dp4466
g66
(dp4467
g86
g87
ssg75
g4461
sg68
(lp4468
S'title'
p4469
asbag61
(g82
g63
NtRp4470
(dp4471
g66
(dp4472
g93
g94
ssg75
g4461
sg68
(lp4473
S':'
asbag61
(g82
g63
NtRp4474
(dp4475
g66
(dp4476
sg75
g4461
sg68
(lp4477
g61
(g62
g63
NtRp4478
(dp4479
g66
(dp4480
g74
I5
ssg75
g4474
sg68
(lp4481
S'Phyloshiny'
p4482
asbasbasbag61
(g77
g63
NtRp4483
(dp4484
g66
(dp4485
sg75
g3046
sg68
(lp4486
g61
(g82
g63
NtRp4487
(dp4488
g66
(dp4489
g86
g87
ssg75
g4483
sg68
(lp4490
g2184
asbag61
(g82
g63
NtRp4491
(dp4492
g66
(dp4493
g93
g94
ssg75
g4483
sg68
(lp4494
S':'
asbag61
(g82
g63
NtRp4495
(dp4496
g66
(dp4497
sg75
g4483
sg68
(lp4498
g61
(g62
g63
NtRp4499
(dp4500
g66
(dp4501
g74
I5
ssg75
g4495
sg68
(lp4502
g2197
asbasbasbag61
(g77
g63
NtRp4503
(dp4504
g66
(dp4505
sg75
g3046
sg68
(lp4506
g61
(g82
g63
NtRp4507
(dp4508
g66
(dp4509
g86
g87
ssg75
g4503
sg68
(lp4510
S'view'
p4511
asbag61
(g82
g63
NtRp4512
(dp4513
g66
(dp4514
g93
g94
ssg75
g4503
sg68
(lp4515
S':'
asbag61
(g82
g63
NtRp4516
(dp4517
g66
(dp4518
sg75
g4503
sg68
(lp4519
g61
(g62
g63
NtRp4520
(dp4521
g66
(dp4522
g74
I5
ssg75
g4516
sg68
(lp4523
S'reconciliotastic/getPhylotasticTree.html'
p4524
asbasbasbasbasbsS'locals'
p4525
(dp4526
S'root_clade'
p4527
S'Clade(branch_length=1.0, name=\'content="text/html\')'
p4528
sS'entering_branch_length'
p4529
g779
sS'current_clade'
p4530
S'Clade(branch_length=1.0, name=\'content="text/html\')'
p4531
sS'lp_count'
p4532
S'0'
sS'text'
p4533
S'\'<!DOCTYPE html PUBLIC "-//W3C//DTD HTML 4.01 Tra...le:/tmp/_WZs_rYax0Streaming Command Failed!>>.-->\''
p4534
sS'self'
p4535
S'<Bio.Phylo.NewickIO.Parser object>'
p4536
sS'token'
p4537
S"';'"
p4538
sS'tokens'
p4539
S'<callable-iterator object>'
p4540
sS'rp_count'
p4541
S'0'
sS'new_clade'
p4542
S'<bound method Parser.new_clade of <Bio.Phylo.NewickIO.Parser object>>'
p4543
sS'match'
p4544
S'<_sre.SRE_Match object>'
p4545
sS'next_token'
p4546
S'<_sre.SRE_Match object>'
p4547
sssS'traceback'
p4548
S'Traceback (most recent call last):\n  File "/usr/lib/pymodules/python2.7/gluon/restricted.py", line 204, in restricted\n    exec ccode in environment\n  File "/home/prateek/web2py/applications/phyloShiny/controllers/reconciliotastic.py", line 172, in <module>\n  File "/usr/lib/pymodules/python2.7/gluon/globals.py", line 172, in <lambda>\n    self._caller = lambda f: f()\n  File "/home/prateek/web2py/applications/phyloShiny/controllers/reconciliotastic.py", line 124, in getPhylotasticTree\n    tree = Phylo.read(speciesTreeFilename, \'newick\')\t\t\t\t#tree reads the species labels in newick format\n  File "/usr/local/lib/python2.7/dist-packages/Bio/Phylo/_io.py", line 64, in read\n    tree = tree_gen.next()\n  File "/usr/local/lib/python2.7/dist-packages/Bio/Phylo/_io.py", line 52, in parse\n    for tree in getattr(supported_formats[format], \'parse\')(fp, **kwargs):\n  File "/usr/local/lib/python2.7/dist-packages/Bio/Phylo/NewickIO.py", line 111, in parse\n    yield self._parse_tree(buf)\n  File "/usr/local/lib/python2.7/dist-packages/Bio/Phylo/NewickIO.py", line 190, in _parse_tree\n    % next_token.group())\nNewickError: Text after semicolon in Newick tree: charset=utf-8">\n'
p4549
s.