(dp1
S'output'
p2
S"<type 'exceptions.TypeError'> <bound method Tree.count_terminals of Tree(weight=1.0, rooted=False)> is not JSON serializable"
p3
sS'layer'
p4
S'/home/prateek/web2py/applications/phyloShiny/controllers/reconciliotastic.py'
p5
sS'code'
p6
S'# -*- coding: utf-8 -*-\n# this file is released under public domain and you can use without limitations\n\n#########################################################################\n## This is a sample controller\n## - index is the default action of any application\n## - user is required for authentication and authorization\n## - download is for downloading files uploaded in the db (does streaming)\n## - call exposes all registered services (none by default)\n#########################################################################\nimport os\nimport socket\nimport urllib2\nfrom gluon import *\nfrom Bio import Phylo\nfrom Bio.Phylo import BaseTree , PhyloXML\t\t\t\t\t\t\t#import biopython modules as per requirement \nfrom Bio.Phylo.BaseTree import TreeMixin\n\ndef index():\n    rootFolder = current.request.folder\n    folders = os.listdir(rootFolder+\'static/sample_data/\')\n\n    # Go through the subfolders within sample_data, only keep folders\n    # that match \'demo\'\n    folders = [x.split(\'_\',1)[1] for x in folders if x.split(\'_\')[0] == \'demo\']\n    folderLabels = [x.replace(\'_\', \' \') for x in folders]\n\n    # Return a list of tuples, like [ [\'Mammal_Hemoglobin\', \'Mammal Hemoglobin\'] , ... ]\n    # This lets us have nice display names in the <select> element in the view.\n    foldersAndLabels = zip(folders, folderLabels)\n    return dict(foldersAndLabels=foldersAndLabels)\n\ndef getFileName():\n    # Returns the absolute filename for the "input" gene tree\n    # file. Uses the treeFileName request parameter, as that\'s our\n    # main state-tracking value passed between the view and controller\n    # between each step.\n    rootFolder = current.request.folder\n    absoluteFileName = rootFolder+current.request.vars.treeFileName\n    return absoluteFileName\n\ndef getRelativeWebPath(suffix):\n    # Currently a no-op.\n    return suffix\n\ndef visualize():\n    # Visualize controller. Does some preprocessing before generating\n    # the HTML for viewing a given tree.\n\n    # Takes in the \'treeName\' and \'file\' params, and creates the URL\n    # which can be used to access / download the given tree file. This\n    # is only really necessary because the <applet> tag requires a\n    # parameter, which is then sent to Archaeopteryx, that requires\n    # the *entire* URL of the tree to load. With a non-applet based\n    # visualization this wouldn\'t be an issue.\n    treeFile = current.request.vars.treeName\n    suffix = current.request.vars.file\n\n    # Use the request http_host.\n    hostname = current.request.env.http_host\n\n    # Toggle to phylotastic URL if we detect a NESCENT socket host.\n    socket_hostname = socket.gethostname()\n    if \'phylotastic\' in socket_hostname.lower():\n        hostname = \'phylotastic.nescent.org\'\n\n    treeUrl = URL(\'static\', \'sample_data/demo_\'+treeFile+\'/input_genetree.nwk\'+suffix,\n                 scheme=\'http\', host=hostname)\n\n    return dict(treeUrl=treeUrl,\n                header=current.request.vars.header)\n\ndef getSpeciesList():\n    # Absolute file name of the input tree file.\n    absoluteFileName = getFileName()\n    # "Prefix", i.e. the input tree file without the ending\n    # \'.txt\'. This is used as the prefix for all generated output\n    # files\n    filePrefix = absoluteFileName[:-4]\n\n    shellCall = \'java -Xmx1024m -cp \'\n    shellCall += current.request.folder+\'static/lib/forester.jar \'\n    shellCall += \'org.forester.application.gene_tree_preprocess \'\n    shellCall += absoluteFileName\n    os.system(shellCall)\n\n    removedNodes = [l.strip() for l in open(filePrefix+\'_removed_nodes.txt\').readlines()]\n    keptNodes = [l.strip() for l in open(filePrefix+\'_species_present.txt\').readlines()]\n    \n    geneTreeFile = getRelativeWebPath(\'_preprocessed_gene_tree.phylo.xml\')\n\n    # Note: we always return the \'vizFile\' and \'vizLabel\' data values\n    # from each Ajax call, as they\'re used consistently by the\n    # front-end to generate visualization links.\n    return response.json( dict(vizFile = geneTreeFile,\n                               vizLabel = "Input Gene Tree",\n                               removedNodes = removedNodes, \n                               keptNodes = keptNodes))\n\ndef getPhylotasticTree():\n    absoluteFileName = getFileName()\n    filePrefix = absoluteFileName[:-4]\n\n    # Load the kept nodes and create the comma-delimited species\n    # string for sending to PTastic\n    speciesList = [l.strip() for l in open(filePrefix+\'_species_present.txt\').readlines()]\n    # Need underscores instead of spaces\n    speciesList = [x.replace(\' \', \'_\') for x in speciesList]\n    speciesString = \',\'.join(speciesList)\n\n    phylotasticUrlBase = \'http://phylotastic-wg.nescent.org/script/phylotastic.cgi?species=\'\n    speciesTreeUrl = phylotasticUrlBase+speciesString+\'&tree=mammals&format=newick\'\n    conn = urllib2.urlopen(speciesTreeUrl)\n    speciesTreeString = conn.read()\n    speciesTreeString = speciesTreeString.strip()\n\n    speciesTreeFilename = filePrefix+\'_species_tree.txt\'\n    open(speciesTreeFilename,\'w\').write(speciesTreeString)\n\n    # TODO: It would be nice here to count the number of species in\n    # the returned species tree, so we can let users know if PTastic\n    # found everything we searched for. This would require parsing the\n    # Newick and counting nodes, probably using something like\n    # BioPython rather than making an external call to Java again.\n    \n    count=0\t\t\t\t\t\t\t\t\t#global counter to keep the count of the nodes\n    tree = Phylo.read(speciesTreeFilename, \'newick\')\t\t\t\t#tree reads the species labels in newick format\n##    for node in tree.get_terminals(): \t\t\t\t\t#loop to traverse through these nodes\n##\t    count+=1\t\t\t\t\t\t\t\t\t#updating counter value\n##    count=tree.count_terminals;\n##    return count\t\t\t\t\t\t\t\t#counter value return\n    got_nodes=tree.count_terminals;\n    #no. of non-terminal nodes received in got_nodes.Now can be printed or checked with user input value to test if all species received.\n    #then further we can maintain a textview in the frontend indicating the number of nodes(i.e. the number of species)\n\n    speciesTreeWebFile = getRelativeWebPath(\'_species_tree.txt\')\n\n    return response.json( dict(vizFile = speciesTreeWebFile,\n                               vizLabel = "Phylotastic Species Tree",\n\t\t\t       got_nodes=got_nodes\n                               ) )\n\n##def countnodes():\n\n    #setting a counter for counting nodes i.e.number of species in the species newick tree.\n    #I have referenced the link http://biopython.org/DIST/docs/tutorial/Tutorial.html#htoc182 to know the get_terminals() function\n\n##    count=0\t\t\t\t\t\t\t\t\t#global counter to keep the count of the nodes\n##    tree = Phylo.read(speciesTreeFilename, \'newick\')\t\t\t\t#tree reads the species labels in newick format\n##    for node in tree.get_terminals(): \t\t\t\t\t#loop to traverse through these nodes\n##\t    count+=1\t\t\t\t\t\t\t\t\t#updating counter value\n##    count=tree.count_terminals;\n##    return count\t\t\t\t\t\t\t\t#counter value return\n\n\ndef reconcileTrees():\n    absoluteFileName = getFileName()\n    filePrefix = absoluteFileName[:-4]\n\n    geneTreeFile = filePrefix+\'_preprocessed_gene_tree.phylo.xml\'\n    speciesTreeFile = filePrefix+\'_species_tree.txt\'\n\n    shellCall = \'java -Xmx1024m -cp \'\n    shellCall += current.request.folder+\'static/lib/forester.jar \'\n    shellCall += \'org.forester.application.gsdi \'\n    shellCall += \'-m -q \'\n    shellCall += geneTreeFile\n    shellCall += \' \'+speciesTreeFile\n\n    os.system(shellCall)\n    \n    reconciledTreeWebFile = getRelativeWebPath(\'_preprocessed_gene_tree.phylo_gsdi_out.phylo.xml\')\n    \n    return response.json( dict(vizFile = reconciledTreeWebFile,\n                               vizLabel = "Reconciled Tree (red=duplication, green=speciation)"\n                               ) )\n\nresponse._vars=response._caller(getPhylotasticTree)\n'
p7
sS'snapshot'
p8
(dp9
S'exception'
p10
(dp11
S'__hash__'
p12
S"<method-wrapper '__hash__' of exceptions.TypeError object>"
p13
sS'__setattr__'
p14
S"<method-wrapper '__setattr__' of exceptions.TypeError object>"
p15
sS'__reduce_ex__'
p16
S'<built-in method __reduce_ex__ of exceptions.TypeError object>'
p17
sS'__getslice__'
p18
S"<method-wrapper '__getslice__' of exceptions.TypeError object>"
p19
sS'__getitem__'
p20
S"<method-wrapper '__getitem__' of exceptions.TypeError object>"
p21
sS'__setstate__'
p22
S'<built-in method __setstate__ of exceptions.TypeError object>'
p23
sS'__reduce__'
p24
S'<built-in method __reduce__ of exceptions.TypeError object>'
p25
sS'__str__'
p26
S"<method-wrapper '__str__' of exceptions.TypeError object>"
p27
sS'__format__'
p28
S'<built-in method __format__ of exceptions.TypeError object>'
p29
sS'__getattribute__'
p30
S"<method-wrapper '__getattribute__' of exceptions.TypeError object>"
p31
sS'__class__'
p32
S"<type 'exceptions.TypeError'>"
p33
sS'__unicode__'
p34
S'<built-in method __unicode__ of exceptions.TypeError object>'
p35
sS'__delattr__'
p36
S"<method-wrapper '__delattr__' of exceptions.TypeError object>"
p37
sS'__subclasshook__'
p38
S'<built-in method __subclasshook__ of type object>'
p39
sS'__repr__'
p40
S"<method-wrapper '__repr__' of exceptions.TypeError object>"
p41
sS'args'
p42
S"('<bound method Tree.count_terminals of Tree(weight=1.0, rooted=False)> is not JSON serializable',)"
p43
sS'__dict__'
p44
S'{}'
p45
sS'__sizeof__'
p46
S'<built-in method __sizeof__ of exceptions.TypeError object>'
p47
sS'__doc__'
p48
S"'Inappropriate argument type.'"
p49
sS'__init__'
p50
S"<method-wrapper '__init__' of exceptions.TypeError object>"
p51
sS'__new__'
p52
S'<built-in method __new__ of type object>'
p53
ssS'evalue'
p54
S'<bound method Tree.count_terminals of Tree(weight=1.0, rooted=False)> is not JSON serializable'
p55
sS'request'
p56
ccopy_reg
_reconstructor
p57
(cgluon.html
BEAUTIFY
p58
c__builtin__
object
p59
NtRp60
(dp61
S'attributes'
p62
(dp63
sS'components'
p64
(lp65
g57
(cgluon.html
TABLE
p66
g59
NtRp67
(dp68
g62
(dp69
S'level'
p70
I5
ssS'parent'
p71
Nsg64
(lp72
g57
(cgluon.html
TR
p73
g59
NtRp74
(dp75
g62
(dp76
sg71
g67
sg64
(lp77
g57
(cgluon.html
TD
p78
g59
NtRp79
(dp80
g62
(dp81
S'_style'
p82
S'font-weight:bold;vertical-align:top'
p83
ssg71
g74
sg64
(lp84
S'ajax'
p85
asbag57
(g78
g59
NtRp86
(dp87
g62
(dp88
S'_valign'
p89
S'top'
p90
ssg71
g74
sg64
(lp91
S':'
asbag57
(g78
g59
NtRp92
(dp93
g62
(dp94
sg71
g74
sg64
(lp95
g57
(g58
g59
NtRp96
(dp97
g62
(dp98
g70
I5
ssg71
g92
sg64
(lp99
S'True'
p100
asbasbasbag57
(g73
g59
NtRp101
(dp102
g62
(dp103
sg71
g67
sg64
(lp104
g57
(g78
g59
NtRp105
(dp106
g62
(dp107
g82
g83
ssg71
g101
sg64
(lp108
S'application'
p109
asbag57
(g78
g59
NtRp110
(dp111
g62
(dp112
g89
g90
ssg71
g101
sg64
(lp113
S':'
asbag57
(g78
g59
NtRp114
(dp115
g62
(dp116
sg71
g101
sg64
(lp117
g57
(g58
g59
NtRp118
(dp119
g62
(dp120
g70
I5
ssg71
g114
sg64
(lp121
S'phyloShiny'
p122
asbasbasbag57
(g73
g59
NtRp123
(dp124
g62
(dp125
sg71
g67
sg64
(lp126
g57
(g78
g59
NtRp127
(dp128
g62
(dp129
g82
g83
ssg71
g123
sg64
(lp130
g42
asbag57
(g78
g59
NtRp131
(dp132
g62
(dp133
g89
g90
ssg71
g123
sg64
(lp134
S':'
asbag57
(g78
g59
NtRp135
(dp136
g62
(dp137
sg71
g123
sg64
(lp138
g57
(g58
g59
NtRp139
(dp140
g62
(dp141
g70
I5
ssg71
g135
sg64
(lp142
g57
(g66
g59
NtRp143
(dp144
g62
(dp145
g70
I4
ssg71
Nsg64
(lp146
sbasbasbasbag57
(g73
g59
NtRp147
(dp148
g62
(dp149
sg71
g67
sg64
(lp150
g57
(g78
g59
NtRp151
(dp152
g62
(dp153
g82
g83
ssg71
g147
sg64
(lp154
S'body'
p155
asbag57
(g78
g59
NtRp156
(dp157
g62
(dp158
g89
g90
ssg71
g147
sg64
(lp159
S':'
asbag57
(g78
g59
NtRp160
(dp161
g62
(dp162
sg71
g147
sg64
(lp163
g57
(g58
g59
NtRp164
(dp165
g62
(dp166
g70
I5
ssg71
g160
sg64
(lp167
S'<cStringIO.StringO object at 0xaac1a240>'
p168
asbasbasbag57
(g73
g59
NtRp169
(dp170
g62
(dp171
sg71
g67
sg64
(lp172
g57
(g78
g59
NtRp173
(dp174
g62
(dp175
g82
g83
ssg71
g169
sg64
(lp176
S'client'
p177
asbag57
(g78
g59
NtRp178
(dp179
g62
(dp180
g89
g90
ssg71
g169
sg64
(lp181
S':'
asbag57
(g78
g59
NtRp182
(dp183
g62
(dp184
sg71
g169
sg64
(lp185
g57
(g58
g59
NtRp186
(dp187
g62
(dp188
g70
I5
ssg71
g182
sg64
(lp189
S'127.0.0.1'
p190
asbasbasbag57
(g73
g59
NtRp191
(dp192
g62
(dp193
sg71
g67
sg64
(lp194
g57
(g78
g59
NtRp195
(dp196
g62
(dp197
g82
g83
ssg71
g191
sg64
(lp198
S'controller'
p199
asbag57
(g78
g59
NtRp200
(dp201
g62
(dp202
g89
g90
ssg71
g191
sg64
(lp203
S':'
asbag57
(g78
g59
NtRp204
(dp205
g62
(dp206
sg71
g191
sg64
(lp207
g57
(g58
g59
NtRp208
(dp209
g62
(dp210
g70
I5
ssg71
g204
sg64
(lp211
S'reconciliotastic'
p212
asbasbasbag57
(g73
g59
NtRp213
(dp214
g62
(dp215
sg71
g67
sg64
(lp216
g57
(g78
g59
NtRp217
(dp218
g62
(dp219
g82
g83
ssg71
g213
sg64
(lp220
S'cookies'
p221
asbag57
(g78
g59
NtRp222
(dp223
g62
(dp224
g89
g90
ssg71
g213
sg64
(lp225
S':'
asbag57
(g78
g59
NtRp226
(dp227
g62
(dp228
sg71
g213
sg64
(lp229
g57
(g58
g59
NtRp230
(dp231
g62
(dp232
g70
I5
ssg71
g226
sg64
(lp233
g57
(g66
g59
NtRp234
(dp235
g62
(dp236
g70
I4
ssg71
Nsg64
(lp237
g57
(g73
g59
NtRp238
(dp239
g62
(dp240
sg71
g234
sg64
(lp241
g57
(g78
g59
NtRp242
(dp243
g62
(dp244
g82
g83
ssg71
g238
sg64
(lp245
S'session_id_admin'
p246
asbag57
(g78
g59
NtRp247
(dp248
g62
(dp249
g89
g90
ssg71
g238
sg64
(lp250
S':'
asbag57
(g78
g59
NtRp251
(dp252
g62
(dp253
sg71
g238
sg64
(lp254
g57
(g58
g59
NtRp255
(dp256
g62
(dp257
g70
I4
ssg71
g251
sg64
(lp258
g57
(g66
g59
NtRp259
(dp260
g62
(dp261
g70
I3
ssg71
Nsg64
(lp262
g57
(g73
g59
NtRp263
(dp264
g62
(dp265
sg71
g259
sg64
(lp266
g57
(g78
g59
NtRp267
(dp268
g62
(dp269
g82
g83
ssg71
g263
sg64
(lp270
S'comment'
p271
asbag57
(g78
g59
NtRp272
(dp273
g62
(dp274
g89
g90
ssg71
g263
sg64
(lp275
S':'
asbag57
(g78
g59
NtRp276
(dp277
g62
(dp278
sg71
g263
sg64
(lp279
g57
(g58
g59
NtRp280
(dp281
g62
(dp282
g70
I3
ssg71
g276
sg64
(lp283
S''
asbasbasbag57
(g73
g59
NtRp284
(dp285
g62
(dp286
sg71
g259
sg64
(lp287
g57
(g78
g59
NtRp288
(dp289
g62
(dp290
g82
g83
ssg71
g284
sg64
(lp291
S'domain'
p292
asbag57
(g78
g59
NtRp293
(dp294
g62
(dp295
g89
g90
ssg71
g284
sg64
(lp296
S':'
asbag57
(g78
g59
NtRp297
(dp298
g62
(dp299
sg71
g284
sg64
(lp300
g57
(g58
g59
NtRp301
(dp302
g62
(dp303
g70
I3
ssg71
g297
sg64
(lp304
S''
asbasbasbag57
(g73
g59
NtRp305
(dp306
g62
(dp307
sg71
g259
sg64
(lp308
g57
(g78
g59
NtRp309
(dp310
g62
(dp311
g82
g83
ssg71
g305
sg64
(lp312
S'expires'
p313
asbag57
(g78
g59
NtRp314
(dp315
g62
(dp316
g89
g90
ssg71
g305
sg64
(lp317
S':'
asbag57
(g78
g59
NtRp318
(dp319
g62
(dp320
sg71
g305
sg64
(lp321
g57
(g58
g59
NtRp322
(dp323
g62
(dp324
g70
I3
ssg71
g318
sg64
(lp325
S''
asbasbasbag57
(g73
g59
NtRp326
(dp327
g62
(dp328
sg71
g259
sg64
(lp329
g57
(g78
g59
NtRp330
(dp331
g62
(dp332
g82
g83
ssg71
g326
sg64
(lp333
S'httponly'
p334
asbag57
(g78
g59
NtRp335
(dp336
g62
(dp337
g89
g90
ssg71
g326
sg64
(lp338
S':'
asbag57
(g78
g59
NtRp339
(dp340
g62
(dp341
sg71
g326
sg64
(lp342
g57
(g58
g59
NtRp343
(dp344
g62
(dp345
g70
I3
ssg71
g339
sg64
(lp346
S''
asbasbasbag57
(g73
g59
NtRp347
(dp348
g62
(dp349
sg71
g259
sg64
(lp350
g57
(g78
g59
NtRp351
(dp352
g62
(dp353
g82
g83
ssg71
g347
sg64
(lp354
S'max-age'
p355
asbag57
(g78
g59
NtRp356
(dp357
g62
(dp358
g89
g90
ssg71
g347
sg64
(lp359
S':'
asbag57
(g78
g59
NtRp360
(dp361
g62
(dp362
sg71
g347
sg64
(lp363
g57
(g58
g59
NtRp364
(dp365
g62
(dp366
g70
I3
ssg71
g360
sg64
(lp367
S''
asbasbasbag57
(g73
g59
NtRp368
(dp369
g62
(dp370
sg71
g259
sg64
(lp371
g57
(g78
g59
NtRp372
(dp373
g62
(dp374
g82
g83
ssg71
g368
sg64
(lp375
S'path'
p376
asbag57
(g78
g59
NtRp377
(dp378
g62
(dp379
g89
g90
ssg71
g368
sg64
(lp380
S':'
asbag57
(g78
g59
NtRp381
(dp382
g62
(dp383
sg71
g368
sg64
(lp384
g57
(g58
g59
NtRp385
(dp386
g62
(dp387
g70
I3
ssg71
g381
sg64
(lp388
S''
asbasbasbag57
(g73
g59
NtRp389
(dp390
g62
(dp391
sg71
g259
sg64
(lp392
g57
(g78
g59
NtRp393
(dp394
g62
(dp395
g82
g83
ssg71
g389
sg64
(lp396
S'secure'
p397
asbag57
(g78
g59
NtRp398
(dp399
g62
(dp400
g89
g90
ssg71
g389
sg64
(lp401
S':'
asbag57
(g78
g59
NtRp402
(dp403
g62
(dp404
sg71
g389
sg64
(lp405
g57
(g58
g59
NtRp406
(dp407
g62
(dp408
g70
I3
ssg71
g402
sg64
(lp409
S''
asbasbasbag57
(g73
g59
NtRp410
(dp411
g62
(dp412
sg71
g259
sg64
(lp413
g57
(g78
g59
NtRp414
(dp415
g62
(dp416
g82
g83
ssg71
g410
sg64
(lp417
S'version'
p418
asbag57
(g78
g59
NtRp419
(dp420
g62
(dp421
g89
g90
ssg71
g410
sg64
(lp422
S':'
asbag57
(g78
g59
NtRp423
(dp424
g62
(dp425
sg71
g410
sg64
(lp426
g57
(g58
g59
NtRp427
(dp428
g62
(dp429
g70
I3
ssg71
g423
sg64
(lp430
S''
asbasbasbasbasbasbasbag57
(g73
g59
NtRp431
(dp432
g62
(dp433
sg71
g234
sg64
(lp434
g57
(g78
g59
NtRp435
(dp436
g62
(dp437
g82
g83
ssg71
g431
sg64
(lp438
S'session_id_phyloshiny'
p439
asbag57
(g78
g59
NtRp440
(dp441
g62
(dp442
g89
g90
ssg71
g431
sg64
(lp443
S':'
asbag57
(g78
g59
NtRp444
(dp445
g62
(dp446
sg71
g431
sg64
(lp447
g57
(g58
g59
NtRp448
(dp449
g62
(dp450
g70
I4
ssg71
g444
sg64
(lp451
g57
(g66
g59
NtRp452
(dp453
g62
(dp454
g70
I3
ssg71
Nsg64
(lp455
g57
(g73
g59
NtRp456
(dp457
g62
(dp458
sg71
g452
sg64
(lp459
g57
(g78
g59
NtRp460
(dp461
g62
(dp462
g82
g83
ssg71
g456
sg64
(lp463
g271
asbag57
(g78
g59
NtRp464
(dp465
g62
(dp466
g89
g90
ssg71
g456
sg64
(lp467
S':'
asbag57
(g78
g59
NtRp468
(dp469
g62
(dp470
sg71
g456
sg64
(lp471
g57
(g58
g59
NtRp472
(dp473
g62
(dp474
g70
I3
ssg71
g468
sg64
(lp475
S''
asbasbasbag57
(g73
g59
NtRp476
(dp477
g62
(dp478
sg71
g452
sg64
(lp479
g57
(g78
g59
NtRp480
(dp481
g62
(dp482
g82
g83
ssg71
g476
sg64
(lp483
g292
asbag57
(g78
g59
NtRp484
(dp485
g62
(dp486
g89
g90
ssg71
g476
sg64
(lp487
S':'
asbag57
(g78
g59
NtRp488
(dp489
g62
(dp490
sg71
g476
sg64
(lp491
g57
(g58
g59
NtRp492
(dp493
g62
(dp494
g70
I3
ssg71
g488
sg64
(lp495
S''
asbasbasbag57
(g73
g59
NtRp496
(dp497
g62
(dp498
sg71
g452
sg64
(lp499
g57
(g78
g59
NtRp500
(dp501
g62
(dp502
g82
g83
ssg71
g496
sg64
(lp503
g313
asbag57
(g78
g59
NtRp504
(dp505
g62
(dp506
g89
g90
ssg71
g496
sg64
(lp507
S':'
asbag57
(g78
g59
NtRp508
(dp509
g62
(dp510
sg71
g496
sg64
(lp511
g57
(g58
g59
NtRp512
(dp513
g62
(dp514
g70
I3
ssg71
g508
sg64
(lp515
S''
asbasbasbag57
(g73
g59
NtRp516
(dp517
g62
(dp518
sg71
g452
sg64
(lp519
g57
(g78
g59
NtRp520
(dp521
g62
(dp522
g82
g83
ssg71
g516
sg64
(lp523
g334
asbag57
(g78
g59
NtRp524
(dp525
g62
(dp526
g89
g90
ssg71
g516
sg64
(lp527
S':'
asbag57
(g78
g59
NtRp528
(dp529
g62
(dp530
sg71
g516
sg64
(lp531
g57
(g58
g59
NtRp532
(dp533
g62
(dp534
g70
I3
ssg71
g528
sg64
(lp535
S''
asbasbasbag57
(g73
g59
NtRp536
(dp537
g62
(dp538
sg71
g452
sg64
(lp539
g57
(g78
g59
NtRp540
(dp541
g62
(dp542
g82
g83
ssg71
g536
sg64
(lp543
g355
asbag57
(g78
g59
NtRp544
(dp545
g62
(dp546
g89
g90
ssg71
g536
sg64
(lp547
S':'
asbag57
(g78
g59
NtRp548
(dp549
g62
(dp550
sg71
g536
sg64
(lp551
g57
(g58
g59
NtRp552
(dp553
g62
(dp554
g70
I3
ssg71
g548
sg64
(lp555
S''
asbasbasbag57
(g73
g59
NtRp556
(dp557
g62
(dp558
sg71
g452
sg64
(lp559
g57
(g78
g59
NtRp560
(dp561
g62
(dp562
g82
g83
ssg71
g556
sg64
(lp563
g376
asbag57
(g78
g59
NtRp564
(dp565
g62
(dp566
g89
g90
ssg71
g556
sg64
(lp567
S':'
asbag57
(g78
g59
NtRp568
(dp569
g62
(dp570
sg71
g556
sg64
(lp571
g57
(g58
g59
NtRp572
(dp573
g62
(dp574
g70
I3
ssg71
g568
sg64
(lp575
S''
asbasbasbag57
(g73
g59
NtRp576
(dp577
g62
(dp578
sg71
g452
sg64
(lp579
g57
(g78
g59
NtRp580
(dp581
g62
(dp582
g82
g83
ssg71
g576
sg64
(lp583
g397
asbag57
(g78
g59
NtRp584
(dp585
g62
(dp586
g89
g90
ssg71
g576
sg64
(lp587
S':'
asbag57
(g78
g59
NtRp588
(dp589
g62
(dp590
sg71
g576
sg64
(lp591
g57
(g58
g59
NtRp592
(dp593
g62
(dp594
g70
I3
ssg71
g588
sg64
(lp595
S''
asbasbasbag57
(g73
g59
NtRp596
(dp597
g62
(dp598
sg71
g452
sg64
(lp599
g57
(g78
g59
NtRp600
(dp601
g62
(dp602
g82
g83
ssg71
g596
sg64
(lp603
g418
asbag57
(g78
g59
NtRp604
(dp605
g62
(dp606
g89
g90
ssg71
g596
sg64
(lp607
S':'
asbag57
(g78
g59
NtRp608
(dp609
g62
(dp610
sg71
g596
sg64
(lp611
g57
(g58
g59
NtRp612
(dp613
g62
(dp614
g70
I3
ssg71
g608
sg64
(lp615
S''
asbasbasbasbasbasbasbasbasbasbasbag57
(g73
g59
NtRp616
(dp617
g62
(dp618
sg71
g67
sg64
(lp619
g57
(g78
g59
NtRp620
(dp621
g62
(dp622
g82
g83
ssg71
g616
sg64
(lp623
S'env'
p624
asbag57
(g78
g59
NtRp625
(dp626
g62
(dp627
g89
g90
ssg71
g616
sg64
(lp628
S':'
asbag57
(g78
g59
NtRp629
(dp630
g62
(dp631
sg71
g616
sg64
(lp632
g57
(g58
g59
NtRp633
(dp634
g62
(dp635
g70
I5
ssg71
g629
sg64
(lp636
g57
(g66
g59
NtRp637
(dp638
g62
(dp639
g70
I4
ssg71
Nsg64
(lp640
g57
(g73
g59
NtRp641
(dp642
g62
(dp643
sg71
g637
sg64
(lp644
g57
(g78
g59
NtRp645
(dp646
g62
(dp647
g82
g83
ssg71
g641
sg64
(lp648
S'app_folders'
p649
asbag57
(g78
g59
NtRp650
(dp651
g62
(dp652
g89
g90
ssg71
g641
sg64
(lp653
S':'
asbag57
(g78
g59
NtRp654
(dp655
g62
(dp656
sg71
g641
sg64
(lp657
g57
(g58
g59
NtRp658
(dp659
g62
(dp660
g70
I4
ssg71
g654
sg64
(lp661
S"set(['/home/prateek/web2py/applications/phyloShiny/', '/home/prateek/web2py/applications/welcome/'])"
p662
asbasbasbag57
(g73
g59
NtRp663
(dp664
g62
(dp665
sg71
g637
sg64
(lp666
g57
(g78
g59
NtRp667
(dp668
g62
(dp669
g82
g83
ssg71
g663
sg64
(lp670
S'applications_parent'
p671
asbag57
(g78
g59
NtRp672
(dp673
g62
(dp674
g89
g90
ssg71
g663
sg64
(lp675
S':'
asbag57
(g78
g59
NtRp676
(dp677
g62
(dp678
sg71
g663
sg64
(lp679
g57
(g58
g59
NtRp680
(dp681
g62
(dp682
g70
I4
ssg71
g676
sg64
(lp683
S'/home/prateek/web2py'
p684
asbasbasbag57
(g73
g59
NtRp685
(dp686
g62
(dp687
sg71
g637
sg64
(lp688
g57
(g78
g59
NtRp689
(dp690
g62
(dp691
g82
g83
ssg71
g685
sg64
(lp692
S'cmd_args'
p693
asbag57
(g78
g59
NtRp694
(dp695
g62
(dp696
g89
g90
ssg71
g685
sg64
(lp697
S':'
asbag57
(g78
g59
NtRp698
(dp699
g62
(dp700
sg71
g685
sg64
(lp701
g57
(g58
g59
NtRp702
(dp703
g62
(dp704
g70
I4
ssg71
g698
sg64
(lp705
g57
(g66
g59
NtRp706
(dp707
g62
(dp708
g70
I3
ssg71
Nsg64
(lp709
sbasbasbasbag57
(g73
g59
NtRp710
(dp711
g62
(dp712
sg71
g637
sg64
(lp713
g57
(g78
g59
NtRp714
(dp715
g62
(dp716
g82
g83
ssg71
g710
sg64
(lp717
S'cmd_options'
p718
asbag57
(g78
g59
NtRp719
(dp720
g62
(dp721
g89
g90
ssg71
g710
sg64
(lp722
S':'
asbag57
(g78
g59
NtRp723
(dp724
g62
(dp725
sg71
g710
sg64
(lp726
g57
(g58
g59
NtRp727
(dp728
g62
(dp729
g70
I4
ssg71
g723
sg64
(lp730
S"<Values at 0x8db55cc: {'verbose': False, 'ip': '127.0.0.1', 'shutdown_timeout': 5, 'taskbar': False, 'port': 8000, 'maxthreads': None, 'softcron': False, 'server_name': 'prateek-Inspiron-N5110', 'bpython': False, 'nogui': False, 'nocron': False, 'extcron': False, 'debuglevel': 30, 'test': None, 'folder': '/home/prateek/web2py', 'config': '', 'import_models': False, 'winservice': '', 'shell': None, 'run': '', 'log_filename': 'httpserver.log', 'args': [''], 'socket_timeout': 1, 'profiler_filename': None, 'ssl_private_key': '', 'password': '<ask>', 'request_queue_size': 5, 'ssl_certificate': '', 'cronjob': False, 'plain': False, 'quiet': False, 'interfaces': None, 'minthreads': None, 'timeout': 10, 'numthreads': None, 'nobanner': False, 'pid_filename': 'httpserver.pid'}>"
p731
asbasbasbag57
(g73
g59
NtRp732
(dp733
g62
(dp734
sg71
g637
sg64
(lp735
g57
(g78
g59
NtRp736
(dp737
g62
(dp738
g82
g83
ssg71
g732
sg64
(lp739
S'db_sessions'
p740
asbag57
(g78
g59
NtRp741
(dp742
g62
(dp743
g89
g90
ssg71
g732
sg64
(lp744
S':'
asbag57
(g78
g59
NtRp745
(dp746
g62
(dp747
sg71
g732
sg64
(lp748
g57
(g58
g59
NtRp749
(dp750
g62
(dp751
g70
I4
ssg71
g745
sg64
(lp752
S'set([])'
p753
asbasbasbag57
(g73
g59
NtRp754
(dp755
g62
(dp756
sg71
g637
sg64
(lp757
g57
(g78
g59
NtRp758
(dp759
g62
(dp760
g82
g83
ssg71
g754
sg64
(lp761
S'debugging'
p762
asbag57
(g78
g59
NtRp763
(dp764
g62
(dp765
g89
g90
ssg71
g754
sg64
(lp766
S':'
asbag57
(g78
g59
NtRp767
(dp768
g62
(dp769
sg71
g754
sg64
(lp770
g57
(g58
g59
NtRp771
(dp772
g62
(dp773
g70
I4
ssg71
g767
sg64
(lp774
S'False'
p775
asbasbasbag57
(g73
g59
NtRp776
(dp777
g62
(dp778
sg71
g637
sg64
(lp779
g57
(g78
g59
NtRp780
(dp781
g62
(dp782
g82
g83
ssg71
g776
sg64
(lp783
S'gluon_parent'
p784
asbag57
(g78
g59
NtRp785
(dp786
g62
(dp787
g89
g90
ssg71
g776
sg64
(lp788
S':'
asbag57
(g78
g59
NtRp789
(dp790
g62
(dp791
sg71
g776
sg64
(lp792
g57
(g58
g59
NtRp793
(dp794
g62
(dp795
g70
I4
ssg71
g789
sg64
(lp796
S'/usr/share/web2py'
p797
asbasbasbag57
(g73
g59
NtRp798
(dp799
g62
(dp800
sg71
g637
sg64
(lp801
g57
(g78
g59
NtRp802
(dp803
g62
(dp804
g82
g83
ssg71
g798
sg64
(lp805
S'http_accept'
p806
asbag57
(g78
g59
NtRp807
(dp808
g62
(dp809
g89
g90
ssg71
g798
sg64
(lp810
S':'
asbag57
(g78
g59
NtRp811
(dp812
g62
(dp813
sg71
g798
sg64
(lp814
g57
(g58
g59
NtRp815
(dp816
g62
(dp817
g70
I4
ssg71
g811
sg64
(lp818
S'*/*'
p819
asbasbasbag57
(g73
g59
NtRp820
(dp821
g62
(dp822
sg71
g637
sg64
(lp823
g57
(g78
g59
NtRp824
(dp825
g62
(dp826
g82
g83
ssg71
g820
sg64
(lp827
S'http_accept_encoding'
p828
asbag57
(g78
g59
NtRp829
(dp830
g62
(dp831
g89
g90
ssg71
g820
sg64
(lp832
S':'
asbag57
(g78
g59
NtRp833
(dp834
g62
(dp835
sg71
g820
sg64
(lp836
g57
(g58
g59
NtRp837
(dp838
g62
(dp839
g70
I4
ssg71
g833
sg64
(lp840
S'gzip, deflate'
p841
asbasbasbag57
(g73
g59
NtRp842
(dp843
g62
(dp844
sg71
g637
sg64
(lp845
g57
(g78
g59
NtRp846
(dp847
g62
(dp848
g82
g83
ssg71
g842
sg64
(lp849
S'http_accept_language'
p850
asbag57
(g78
g59
NtRp851
(dp852
g62
(dp853
g89
g90
ssg71
g842
sg64
(lp854
S':'
asbag57
(g78
g59
NtRp855
(dp856
g62
(dp857
sg71
g842
sg64
(lp858
g57
(g58
g59
NtRp859
(dp860
g62
(dp861
g70
I4
ssg71
g855
sg64
(lp862
S'en-US,en;q=0.5'
p863
asbasbasbag57
(g73
g59
NtRp864
(dp865
g62
(dp866
sg71
g637
sg64
(lp867
g57
(g78
g59
NtRp868
(dp869
g62
(dp870
g82
g83
ssg71
g864
sg64
(lp871
S'http_connection'
p872
asbag57
(g78
g59
NtRp873
(dp874
g62
(dp875
g89
g90
ssg71
g864
sg64
(lp876
S':'
asbag57
(g78
g59
NtRp877
(dp878
g62
(dp879
sg71
g864
sg64
(lp880
g57
(g58
g59
NtRp881
(dp882
g62
(dp883
g70
I4
ssg71
g877
sg64
(lp884
S'keep-alive'
p885
asbasbasbag57
(g73
g59
NtRp886
(dp887
g62
(dp888
sg71
g637
sg64
(lp889
g57
(g78
g59
NtRp890
(dp891
g62
(dp892
g82
g83
ssg71
g886
sg64
(lp893
S'http_cookie'
p894
asbag57
(g78
g59
NtRp895
(dp896
g62
(dp897
g89
g90
ssg71
g886
sg64
(lp898
S':'
asbag57
(g78
g59
NtRp899
(dp900
g62
(dp901
sg71
g886
sg64
(lp902
g57
(g58
g59
NtRp903
(dp904
g62
(dp905
g70
I4
ssg71
g899
sg64
(lp906
S'session_id_admin=127.0.0.1-93eaccf7-6654-4138-a9b6-5466fa6c980f; session_id_phyloshiny=127.0.0.1-3a4c2ff1-cdbd-49b2-8006-bf5e61af099c'
p907
asbasbasbag57
(g73
g59
NtRp908
(dp909
g62
(dp910
sg71
g637
sg64
(lp911
g57
(g78
g59
NtRp912
(dp913
g62
(dp914
g82
g83
ssg71
g908
sg64
(lp915
S'http_host'
p916
asbag57
(g78
g59
NtRp917
(dp918
g62
(dp919
g89
g90
ssg71
g908
sg64
(lp920
S':'
asbag57
(g78
g59
NtRp921
(dp922
g62
(dp923
sg71
g908
sg64
(lp924
g57
(g58
g59
NtRp925
(dp926
g62
(dp927
g70
I4
ssg71
g921
sg64
(lp928
S'127.0.0.1:8000'
p929
asbasbasbag57
(g73
g59
NtRp930
(dp931
g62
(dp932
sg71
g637
sg64
(lp933
g57
(g78
g59
NtRp934
(dp935
g62
(dp936
g82
g83
ssg71
g930
sg64
(lp937
S'http_referer'
p938
asbag57
(g78
g59
NtRp939
(dp940
g62
(dp941
g89
g90
ssg71
g930
sg64
(lp942
S':'
asbag57
(g78
g59
NtRp943
(dp944
g62
(dp945
sg71
g930
sg64
(lp946
g57
(g58
g59
NtRp947
(dp948
g62
(dp949
g70
I4
ssg71
g943
sg64
(lp950
S'http://127.0.0.1:8000/phyloShiny/reconciliotastic/'
p951
asbasbasbag57
(g73
g59
NtRp952
(dp953
g62
(dp954
sg71
g637
sg64
(lp955
g57
(g78
g59
NtRp956
(dp957
g62
(dp958
g82
g83
ssg71
g952
sg64
(lp959
S'http_user_agent'
p960
asbag57
(g78
g59
NtRp961
(dp962
g62
(dp963
g89
g90
ssg71
g952
sg64
(lp964
S':'
asbag57
(g78
g59
NtRp965
(dp966
g62
(dp967
sg71
g952
sg64
(lp968
g57
(g58
g59
NtRp969
(dp970
g62
(dp971
g70
I4
ssg71
g965
sg64
(lp972
S'Mozilla/5.0 (X11; Ubuntu; Linux i686; rv:20.0) Gecko/20100101 Firefox/20.0'
p973
asbasbasbag57
(g73
g59
NtRp974
(dp975
g62
(dp976
sg71
g637
sg64
(lp977
g57
(g78
g59
NtRp978
(dp979
g62
(dp980
g82
g83
ssg71
g974
sg64
(lp981
S'http_x_requested_with'
p982
asbag57
(g78
g59
NtRp983
(dp984
g62
(dp985
g89
g90
ssg71
g974
sg64
(lp986
S':'
asbag57
(g78
g59
NtRp987
(dp988
g62
(dp989
sg71
g974
sg64
(lp990
g57
(g58
g59
NtRp991
(dp992
g62
(dp993
g70
I4
ssg71
g987
sg64
(lp994
S'XMLHttpRequest'
p995
asbasbasbag57
(g73
g59
NtRp996
(dp997
g62
(dp998
sg71
g637
sg64
(lp999
g57
(g78
g59
NtRp1000
(dp1001
g62
(dp1002
g82
g83
ssg71
g996
sg64
(lp1003
S'is_jython'
p1004
asbag57
(g78
g59
NtRp1005
(dp1006
g62
(dp1007
g89
g90
ssg71
g996
sg64
(lp1008
S':'
asbag57
(g78
g59
NtRp1009
(dp1010
g62
(dp1011
sg71
g996
sg64
(lp1012
g57
(g58
g59
NtRp1013
(dp1014
g62
(dp1015
g70
I4
ssg71
g1009
sg64
(lp1016
g775
asbasbasbag57
(g73
g59
NtRp1017
(dp1018
g62
(dp1019
sg71
g637
sg64
(lp1020
g57
(g78
g59
NtRp1021
(dp1022
g62
(dp1023
g82
g83
ssg71
g1017
sg64
(lp1024
S'is_pypy'
p1025
asbag57
(g78
g59
NtRp1026
(dp1027
g62
(dp1028
g89
g90
ssg71
g1017
sg64
(lp1029
S':'
asbag57
(g78
g59
NtRp1030
(dp1031
g62
(dp1032
sg71
g1017
sg64
(lp1033
g57
(g58
g59
NtRp1034
(dp1035
g62
(dp1036
g70
I4
ssg71
g1030
sg64
(lp1037
g775
asbasbasbag57
(g73
g59
NtRp1038
(dp1039
g62
(dp1040
sg71
g637
sg64
(lp1041
g57
(g78
g59
NtRp1042
(dp1043
g62
(dp1044
g82
g83
ssg71
g1038
sg64
(lp1045
S'path_info'
p1046
asbag57
(g78
g59
NtRp1047
(dp1048
g62
(dp1049
g89
g90
ssg71
g1038
sg64
(lp1050
S':'
asbag57
(g78
g59
NtRp1051
(dp1052
g62
(dp1053
sg71
g1038
sg64
(lp1054
g57
(g58
g59
NtRp1055
(dp1056
g62
(dp1057
g70
I4
ssg71
g1051
sg64
(lp1058
S'/phyloShiny/reconciliotastic/getPhylotasticTree'
p1059
asbasbasbag57
(g73
g59
NtRp1060
(dp1061
g62
(dp1062
sg71
g637
sg64
(lp1063
g57
(g78
g59
NtRp1064
(dp1065
g62
(dp1066
g82
g83
ssg71
g1060
sg64
(lp1067
S'query_string'
p1068
asbag57
(g78
g59
NtRp1069
(dp1070
g62
(dp1071
g89
g90
ssg71
g1060
sg64
(lp1072
S':'
asbag57
(g78
g59
NtRp1073
(dp1074
g62
(dp1075
sg71
g1060
sg64
(lp1076
g57
(g58
g59
NtRp1077
(dp1078
g62
(dp1079
g70
I4
ssg71
g1073
sg64
(lp1080
S'treeFileName=static%2Fsample_data%2Fdemo_Mammal_Hemoglobin_Pruned%2Finput_genetree.nwk.txt'
p1081
asbasbasbag57
(g73
g59
NtRp1082
(dp1083
g62
(dp1084
sg71
g637
sg64
(lp1085
g57
(g78
g59
NtRp1086
(dp1087
g62
(dp1088
g82
g83
ssg71
g1082
sg64
(lp1089
S'remote_addr'
p1090
asbag57
(g78
g59
NtRp1091
(dp1092
g62
(dp1093
g89
g90
ssg71
g1082
sg64
(lp1094
S':'
asbag57
(g78
g59
NtRp1095
(dp1096
g62
(dp1097
sg71
g1082
sg64
(lp1098
g57
(g58
g59
NtRp1099
(dp1100
g62
(dp1101
g70
I4
ssg71
g1095
sg64
(lp1102
g190
asbasbasbag57
(g73
g59
NtRp1103
(dp1104
g62
(dp1105
sg71
g637
sg64
(lp1106
g57
(g78
g59
NtRp1107
(dp1108
g62
(dp1109
g82
g83
ssg71
g1103
sg64
(lp1110
S'remote_port'
p1111
asbag57
(g78
g59
NtRp1112
(dp1113
g62
(dp1114
g89
g90
ssg71
g1103
sg64
(lp1115
S':'
asbag57
(g78
g59
NtRp1116
(dp1117
g62
(dp1118
sg71
g1103
sg64
(lp1119
g57
(g58
g59
NtRp1120
(dp1121
g62
(dp1122
g70
I4
ssg71
g1116
sg64
(lp1123
S'43904'
p1124
asbasbasbag57
(g73
g59
NtRp1125
(dp1126
g62
(dp1127
sg71
g637
sg64
(lp1128
g57
(g78
g59
NtRp1129
(dp1130
g62
(dp1131
g82
g83
ssg71
g1125
sg64
(lp1132
S'request_method'
p1133
asbag57
(g78
g59
NtRp1134
(dp1135
g62
(dp1136
g89
g90
ssg71
g1125
sg64
(lp1137
S':'
asbag57
(g78
g59
NtRp1138
(dp1139
g62
(dp1140
sg71
g1125
sg64
(lp1141
g57
(g58
g59
NtRp1142
(dp1143
g62
(dp1144
g70
I4
ssg71
g1138
sg64
(lp1145
S'GET'
p1146
asbasbasbag57
(g73
g59
NtRp1147
(dp1148
g62
(dp1149
sg71
g637
sg64
(lp1150
g57
(g78
g59
NtRp1151
(dp1152
g62
(dp1153
g82
g83
ssg71
g1147
sg64
(lp1154
S'script_name'
p1155
asbag57
(g78
g59
NtRp1156
(dp1157
g62
(dp1158
g89
g90
ssg71
g1147
sg64
(lp1159
S':'
asbag57
(g78
g59
NtRp1160
(dp1161
g62
(dp1162
sg71
g1147
sg64
(lp1163
g57
(g58
g59
NtRp1164
(dp1165
g62
(dp1166
g70
I4
ssg71
g1160
sg64
(lp1167
S''
asbasbasbag57
(g73
g59
NtRp1168
(dp1169
g62
(dp1170
sg71
g637
sg64
(lp1171
g57
(g78
g59
NtRp1172
(dp1173
g62
(dp1174
g82
g83
ssg71
g1168
sg64
(lp1175
S'server_name'
p1176
asbag57
(g78
g59
NtRp1177
(dp1178
g62
(dp1179
g89
g90
ssg71
g1168
sg64
(lp1180
S':'
asbag57
(g78
g59
NtRp1181
(dp1182
g62
(dp1183
sg71
g1168
sg64
(lp1184
g57
(g58
g59
NtRp1185
(dp1186
g62
(dp1187
g70
I4
ssg71
g1181
sg64
(lp1188
S'prateek-Inspiron-N5110'
p1189
asbasbasbag57
(g73
g59
NtRp1190
(dp1191
g62
(dp1192
sg71
g637
sg64
(lp1193
g57
(g78
g59
NtRp1194
(dp1195
g62
(dp1196
g82
g83
ssg71
g1190
sg64
(lp1197
S'server_port'
p1198
asbag57
(g78
g59
NtRp1199
(dp1200
g62
(dp1201
g89
g90
ssg71
g1190
sg64
(lp1202
S':'
asbag57
(g78
g59
NtRp1203
(dp1204
g62
(dp1205
sg71
g1190
sg64
(lp1206
g57
(g58
g59
NtRp1207
(dp1208
g62
(dp1209
g70
I4
ssg71
g1203
sg64
(lp1210
S'8000'
p1211
asbasbasbag57
(g73
g59
NtRp1212
(dp1213
g62
(dp1214
sg71
g637
sg64
(lp1215
g57
(g78
g59
NtRp1216
(dp1217
g62
(dp1218
g82
g83
ssg71
g1212
sg64
(lp1219
S'server_protocol'
p1220
asbag57
(g78
g59
NtRp1221
(dp1222
g62
(dp1223
g89
g90
ssg71
g1212
sg64
(lp1224
S':'
asbag57
(g78
g59
NtRp1225
(dp1226
g62
(dp1227
sg71
g1212
sg64
(lp1228
g57
(g58
g59
NtRp1229
(dp1230
g62
(dp1231
g70
I4
ssg71
g1225
sg64
(lp1232
S'HTTP/1.1'
p1233
asbasbasbag57
(g73
g59
NtRp1234
(dp1235
g62
(dp1236
sg71
g637
sg64
(lp1237
g57
(g78
g59
NtRp1238
(dp1239
g62
(dp1240
g82
g83
ssg71
g1234
sg64
(lp1241
S'server_software'
p1242
asbag57
(g78
g59
NtRp1243
(dp1244
g62
(dp1245
g89
g90
ssg71
g1234
sg64
(lp1246
S':'
asbag57
(g78
g59
NtRp1247
(dp1248
g62
(dp1249
sg71
g1234
sg64
(lp1250
g57
(g58
g59
NtRp1251
(dp1252
g62
(dp1253
g70
I4
ssg71
g1247
sg64
(lp1254
S'Rocket 1.2.4'
p1255
asbasbasbag57
(g73
g59
NtRp1256
(dp1257
g62
(dp1258
sg71
g637
sg64
(lp1259
g57
(g78
g59
NtRp1260
(dp1261
g62
(dp1262
g82
g83
ssg71
g1256
sg64
(lp1263
S'web2py_crontype'
p1264
asbag57
(g78
g59
NtRp1265
(dp1266
g62
(dp1267
g89
g90
ssg71
g1256
sg64
(lp1268
S':'
asbag57
(g78
g59
NtRp1269
(dp1270
g62
(dp1271
sg71
g1256
sg64
(lp1272
g57
(g58
g59
NtRp1273
(dp1274
g62
(dp1275
g70
I4
ssg71
g1269
sg64
(lp1276
S'hard'
p1277
asbasbasbag57
(g73
g59
NtRp1278
(dp1279
g62
(dp1280
sg71
g637
sg64
(lp1281
g57
(g78
g59
NtRp1282
(dp1283
g62
(dp1284
g82
g83
ssg71
g1278
sg64
(lp1285
S'web2py_path'
p1286
asbag57
(g78
g59
NtRp1287
(dp1288
g62
(dp1289
g89
g90
ssg71
g1278
sg64
(lp1290
S':'
asbag57
(g78
g59
NtRp1291
(dp1292
g62
(dp1293
sg71
g1278
sg64
(lp1294
g57
(g58
g59
NtRp1295
(dp1296
g62
(dp1297
g70
I4
ssg71
g1291
sg64
(lp1298
g684
asbasbasbag57
(g73
g59
NtRp1299
(dp1300
g62
(dp1301
sg71
g637
sg64
(lp1302
g57
(g78
g59
NtRp1303
(dp1304
g62
(dp1305
g82
g83
ssg71
g1299
sg64
(lp1306
S'web2py_version'
p1307
asbag57
(g78
g59
NtRp1308
(dp1309
g62
(dp1310
g89
g90
ssg71
g1299
sg64
(lp1311
S':'
asbag57
(g78
g59
NtRp1312
(dp1313
g62
(dp1314
sg71
g1299
sg64
(lp1315
g57
(g58
g59
NtRp1316
(dp1317
g62
(dp1318
g70
I4
ssg71
g1312
sg64
(lp1319
g57
(g66
g59
NtRp1320
(dp1321
g62
(dp1322
g70
I3
ssg71
Nsg64
(lp1323
g57
(g73
g59
NtRp1324
(dp1325
g62
(dp1326
sg71
g1320
sg64
(lp1327
g57
(g78
g59
NtRp1328
(dp1329
g62
(dp1330
sg71
g1324
sg64
(lp1331
g57
(g58
g59
NtRp1332
(dp1333
g62
(dp1334
g70
I3
ssg71
g1328
sg64
(lp1335
S'1'
asbasbasbag57
(g73
g59
NtRp1336
(dp1337
g62
(dp1338
sg71
g1320
sg64
(lp1339
g57
(g78
g59
NtRp1340
(dp1341
g62
(dp1342
sg71
g1336
sg64
(lp1343
g57
(g58
g59
NtRp1344
(dp1345
g62
(dp1346
g70
I3
ssg71
g1340
sg64
(lp1347
S'99'
p1348
asbasbasbag57
(g73
g59
NtRp1349
(dp1350
g62
(dp1351
sg71
g1320
sg64
(lp1352
g57
(g78
g59
NtRp1353
(dp1354
g62
(dp1355
sg71
g1349
sg64
(lp1356
g57
(g58
g59
NtRp1357
(dp1358
g62
(dp1359
g70
I3
ssg71
g1353
sg64
(lp1360
S'4'
asbasbasbag57
(g73
g59
NtRp1361
(dp1362
g62
(dp1363
sg71
g1320
sg64
(lp1364
g57
(g78
g59
NtRp1365
(dp1366
g62
(dp1367
sg71
g1361
sg64
(lp1368
g57
(g58
g59
NtRp1369
(dp1370
g62
(dp1371
g70
I3
ssg71
g1365
sg64
(lp1372
S'datetime.datetime(2011, 12, 14, 14, 46, 14)'
p1373
asbasbasbag57
(g73
g59
NtRp1374
(dp1375
g62
(dp1376
sg71
g1320
sg64
(lp1377
g57
(g78
g59
NtRp1378
(dp1379
g62
(dp1380
sg71
g1374
sg64
(lp1381
g57
(g58
g59
NtRp1382
(dp1383
g62
(dp1384
g70
I3
ssg71
g1378
sg64
(lp1385
S'stable'
p1386
asbasbasbasbasbasbasbag57
(g73
g59
NtRp1387
(dp1388
g62
(dp1389
sg71
g637
sg64
(lp1390
g57
(g78
g59
NtRp1391
(dp1392
g62
(dp1393
g82
g83
ssg71
g1387
sg64
(lp1394
S'wsgi_errors'
p1395
asbag57
(g78
g59
NtRp1396
(dp1397
g62
(dp1398
g89
g90
ssg71
g1387
sg64
(lp1399
S':'
asbag57
(g78
g59
NtRp1400
(dp1401
g62
(dp1402
sg71
g1387
sg64
(lp1403
g57
(g58
g59
NtRp1404
(dp1405
g62
(dp1406
g70
I4
ssg71
g1400
sg64
(lp1407
S"<open file '<stderr>', mode 'w' at 0xb72920d0>"
p1408
asbasbasbag57
(g73
g59
NtRp1409
(dp1410
g62
(dp1411
sg71
g637
sg64
(lp1412
g57
(g78
g59
NtRp1413
(dp1414
g62
(dp1415
g82
g83
ssg71
g1409
sg64
(lp1416
S'wsgi_file_wrapper'
p1417
asbag57
(g78
g59
NtRp1418
(dp1419
g62
(dp1420
g89
g90
ssg71
g1409
sg64
(lp1421
S':'
asbag57
(g78
g59
NtRp1422
(dp1423
g62
(dp1424
sg71
g1409
sg64
(lp1425
g57
(g58
g59
NtRp1426
(dp1427
g62
(dp1428
g70
I4
ssg71
g1422
sg64
(lp1429
S'<class wsgiref.util.FileWrapper at 0x8b7d23c>'
p1430
asbasbasbag57
(g73
g59
NtRp1431
(dp1432
g62
(dp1433
sg71
g637
sg64
(lp1434
g57
(g78
g59
NtRp1435
(dp1436
g62
(dp1437
g82
g83
ssg71
g1431
sg64
(lp1438
S'wsgi_input'
p1439
asbag57
(g78
g59
NtRp1440
(dp1441
g62
(dp1442
g89
g90
ssg71
g1431
sg64
(lp1443
S':'
asbag57
(g78
g59
NtRp1444
(dp1445
g62
(dp1446
sg71
g1431
sg64
(lp1447
g57
(g58
g59
NtRp1448
(dp1449
g62
(dp1450
g70
I4
ssg71
g1444
sg64
(lp1451
S'<socket._fileobject object at 0xaaf7dbac>'
p1452
asbasbasbag57
(g73
g59
NtRp1453
(dp1454
g62
(dp1455
sg71
g637
sg64
(lp1456
g57
(g78
g59
NtRp1457
(dp1458
g62
(dp1459
g82
g83
ssg71
g1453
sg64
(lp1460
S'wsgi_multiprocess'
p1461
asbag57
(g78
g59
NtRp1462
(dp1463
g62
(dp1464
g89
g90
ssg71
g1453
sg64
(lp1465
S':'
asbag57
(g78
g59
NtRp1466
(dp1467
g62
(dp1468
sg71
g1453
sg64
(lp1469
g57
(g58
g59
NtRp1470
(dp1471
g62
(dp1472
g70
I4
ssg71
g1466
sg64
(lp1473
g775
asbasbasbag57
(g73
g59
NtRp1474
(dp1475
g62
(dp1476
sg71
g637
sg64
(lp1477
g57
(g78
g59
NtRp1478
(dp1479
g62
(dp1480
g82
g83
ssg71
g1474
sg64
(lp1481
S'wsgi_multithread'
p1482
asbag57
(g78
g59
NtRp1483
(dp1484
g62
(dp1485
g89
g90
ssg71
g1474
sg64
(lp1486
S':'
asbag57
(g78
g59
NtRp1487
(dp1488
g62
(dp1489
sg71
g1474
sg64
(lp1490
g57
(g58
g59
NtRp1491
(dp1492
g62
(dp1493
g70
I4
ssg71
g1487
sg64
(lp1494
g100
asbasbasbag57
(g73
g59
NtRp1495
(dp1496
g62
(dp1497
sg71
g637
sg64
(lp1498
g57
(g78
g59
NtRp1499
(dp1500
g62
(dp1501
g82
g83
ssg71
g1495
sg64
(lp1502
S'wsgi_run_once'
p1503
asbag57
(g78
g59
NtRp1504
(dp1505
g62
(dp1506
g89
g90
ssg71
g1495
sg64
(lp1507
S':'
asbag57
(g78
g59
NtRp1508
(dp1509
g62
(dp1510
sg71
g1495
sg64
(lp1511
g57
(g58
g59
NtRp1512
(dp1513
g62
(dp1514
g70
I4
ssg71
g1508
sg64
(lp1515
g775
asbasbasbag57
(g73
g59
NtRp1516
(dp1517
g62
(dp1518
sg71
g637
sg64
(lp1519
g57
(g78
g59
NtRp1520
(dp1521
g62
(dp1522
g82
g83
ssg71
g1516
sg64
(lp1523
S'wsgi_url_scheme'
p1524
asbag57
(g78
g59
NtRp1525
(dp1526
g62
(dp1527
g89
g90
ssg71
g1516
sg64
(lp1528
S':'
asbag57
(g78
g59
NtRp1529
(dp1530
g62
(dp1531
sg71
g1516
sg64
(lp1532
g57
(g58
g59
NtRp1533
(dp1534
g62
(dp1535
g70
I4
ssg71
g1529
sg64
(lp1536
S'http'
p1537
asbasbasbag57
(g73
g59
NtRp1538
(dp1539
g62
(dp1540
sg71
g637
sg64
(lp1541
g57
(g78
g59
NtRp1542
(dp1543
g62
(dp1544
g82
g83
ssg71
g1538
sg64
(lp1545
S'wsgi_version'
p1546
asbag57
(g78
g59
NtRp1547
(dp1548
g62
(dp1549
g89
g90
ssg71
g1538
sg64
(lp1550
S':'
asbag57
(g78
g59
NtRp1551
(dp1552
g62
(dp1553
sg71
g1538
sg64
(lp1554
g57
(g58
g59
NtRp1555
(dp1556
g62
(dp1557
g70
I4
ssg71
g1551
sg64
(lp1558
g57
(g66
g59
NtRp1559
(dp1560
g62
(dp1561
g70
I3
ssg71
Nsg64
(lp1562
g57
(g73
g59
NtRp1563
(dp1564
g62
(dp1565
sg71
g1559
sg64
(lp1566
g57
(g78
g59
NtRp1567
(dp1568
g62
(dp1569
sg71
g1563
sg64
(lp1570
g57
(g58
g59
NtRp1571
(dp1572
g62
(dp1573
g70
I3
ssg71
g1567
sg64
(lp1574
S'1'
asbasbasbag57
(g73
g59
NtRp1575
(dp1576
g62
(dp1577
sg71
g1559
sg64
(lp1578
g57
(g78
g59
NtRp1579
(dp1580
g62
(dp1581
sg71
g1575
sg64
(lp1582
g57
(g58
g59
NtRp1583
(dp1584
g62
(dp1585
g70
I3
ssg71
g1579
sg64
(lp1586
S'0'
asbasbasbasbasbasbasbasbasbasbasbag57
(g73
g59
NtRp1587
(dp1588
g62
(dp1589
sg71
g67
sg64
(lp1590
g57
(g78
g59
NtRp1591
(dp1592
g62
(dp1593
g82
g83
ssg71
g1587
sg64
(lp1594
S'extension'
p1595
asbag57
(g78
g59
NtRp1596
(dp1597
g62
(dp1598
g89
g90
ssg71
g1587
sg64
(lp1599
S':'
asbag57
(g78
g59
NtRp1600
(dp1601
g62
(dp1602
sg71
g1587
sg64
(lp1603
g57
(g58
g59
NtRp1604
(dp1605
g62
(dp1606
g70
I5
ssg71
g1600
sg64
(lp1607
S'html'
p1608
asbasbasbag57
(g73
g59
NtRp1609
(dp1610
g62
(dp1611
sg71
g67
sg64
(lp1612
g57
(g78
g59
NtRp1613
(dp1614
g62
(dp1615
g82
g83
ssg71
g1609
sg64
(lp1616
S'folder'
p1617
asbag57
(g78
g59
NtRp1618
(dp1619
g62
(dp1620
g89
g90
ssg71
g1609
sg64
(lp1621
S':'
asbag57
(g78
g59
NtRp1622
(dp1623
g62
(dp1624
sg71
g1609
sg64
(lp1625
g57
(g58
g59
NtRp1626
(dp1627
g62
(dp1628
g70
I5
ssg71
g1622
sg64
(lp1629
S'/home/prateek/web2py/applications/phyloShiny/'
p1630
asbasbasbag57
(g73
g59
NtRp1631
(dp1632
g62
(dp1633
sg71
g67
sg64
(lp1634
g57
(g78
g59
NtRp1635
(dp1636
g62
(dp1637
g82
g83
ssg71
g1631
sg64
(lp1638
S'function'
p1639
asbag57
(g78
g59
NtRp1640
(dp1641
g62
(dp1642
g89
g90
ssg71
g1631
sg64
(lp1643
S':'
asbag57
(g78
g59
NtRp1644
(dp1645
g62
(dp1646
sg71
g1631
sg64
(lp1647
g57
(g58
g59
NtRp1648
(dp1649
g62
(dp1650
g70
I5
ssg71
g1644
sg64
(lp1651
S'getPhylotasticTree'
p1652
asbasbasbag57
(g73
g59
NtRp1653
(dp1654
g62
(dp1655
sg71
g67
sg64
(lp1656
g57
(g78
g59
NtRp1657
(dp1658
g62
(dp1659
g82
g83
ssg71
g1653
sg64
(lp1660
S'get_vars'
p1661
asbag57
(g78
g59
NtRp1662
(dp1663
g62
(dp1664
g89
g90
ssg71
g1653
sg64
(lp1665
S':'
asbag57
(g78
g59
NtRp1666
(dp1667
g62
(dp1668
sg71
g1653
sg64
(lp1669
g57
(g58
g59
NtRp1670
(dp1671
g62
(dp1672
g70
I5
ssg71
g1666
sg64
(lp1673
g57
(g66
g59
NtRp1674
(dp1675
g62
(dp1676
g70
I4
ssg71
Nsg64
(lp1677
g57
(g73
g59
NtRp1678
(dp1679
g62
(dp1680
sg71
g1674
sg64
(lp1681
g57
(g78
g59
NtRp1682
(dp1683
g62
(dp1684
g82
g83
ssg71
g1678
sg64
(lp1685
S'treeFileName'
p1686
asbag57
(g78
g59
NtRp1687
(dp1688
g62
(dp1689
g89
g90
ssg71
g1678
sg64
(lp1690
S':'
asbag57
(g78
g59
NtRp1691
(dp1692
g62
(dp1693
sg71
g1678
sg64
(lp1694
g57
(g58
g59
NtRp1695
(dp1696
g62
(dp1697
g70
I4
ssg71
g1691
sg64
(lp1698
S'static/sample_data/demo_Mammal_Hemoglobin_Pruned/input_genetree.nwk.txt'
p1699
asbasbasbasbasbasbasbag57
(g73
g59
NtRp1700
(dp1701
g62
(dp1702
sg71
g67
sg64
(lp1703
g57
(g78
g59
NtRp1704
(dp1705
g62
(dp1706
g82
g83
ssg71
g1700
sg64
(lp1707
S'global_settings'
p1708
asbag57
(g78
g59
NtRp1709
(dp1710
g62
(dp1711
g89
g90
ssg71
g1700
sg64
(lp1712
S':'
asbag57
(g78
g59
NtRp1713
(dp1714
g62
(dp1715
sg71
g1700
sg64
(lp1716
g57
(g58
g59
NtRp1717
(dp1718
g62
(dp1719
g70
I5
ssg71
g1713
sg64
(lp1720
g57
(g66
g59
NtRp1721
(dp1722
g62
(dp1723
g70
I4
ssg71
Nsg64
(lp1724
g57
(g73
g59
NtRp1725
(dp1726
g62
(dp1727
sg71
g1721
sg64
(lp1728
g57
(g78
g59
NtRp1729
(dp1730
g62
(dp1731
g82
g83
ssg71
g1725
sg64
(lp1732
g649
asbag57
(g78
g59
NtRp1733
(dp1734
g62
(dp1735
g89
g90
ssg71
g1725
sg64
(lp1736
S':'
asbag57
(g78
g59
NtRp1737
(dp1738
g62
(dp1739
sg71
g1725
sg64
(lp1740
g57
(g58
g59
NtRp1741
(dp1742
g62
(dp1743
g70
I4
ssg71
g1737
sg64
(lp1744
S"set(['/home/prateek/web2py/applications/phyloShiny/', '/home/prateek/web2py/applications/welcome/'])"
p1745
asbasbasbag57
(g73
g59
NtRp1746
(dp1747
g62
(dp1748
sg71
g1721
sg64
(lp1749
g57
(g78
g59
NtRp1750
(dp1751
g62
(dp1752
g82
g83
ssg71
g1746
sg64
(lp1753
g671
asbag57
(g78
g59
NtRp1754
(dp1755
g62
(dp1756
g89
g90
ssg71
g1746
sg64
(lp1757
S':'
asbag57
(g78
g59
NtRp1758
(dp1759
g62
(dp1760
sg71
g1746
sg64
(lp1761
g57
(g58
g59
NtRp1762
(dp1763
g62
(dp1764
g70
I4
ssg71
g1758
sg64
(lp1765
g684
asbasbasbag57
(g73
g59
NtRp1766
(dp1767
g62
(dp1768
sg71
g1721
sg64
(lp1769
g57
(g78
g59
NtRp1770
(dp1771
g62
(dp1772
g82
g83
ssg71
g1766
sg64
(lp1773
g693
asbag57
(g78
g59
NtRp1774
(dp1775
g62
(dp1776
g89
g90
ssg71
g1766
sg64
(lp1777
S':'
asbag57
(g78
g59
NtRp1778
(dp1779
g62
(dp1780
sg71
g1766
sg64
(lp1781
g57
(g58
g59
NtRp1782
(dp1783
g62
(dp1784
g70
I4
ssg71
g1778
sg64
(lp1785
g57
(g66
g59
NtRp1786
(dp1787
g62
(dp1788
g70
I3
ssg71
Nsg64
(lp1789
sbasbasbasbag57
(g73
g59
NtRp1790
(dp1791
g62
(dp1792
sg71
g1721
sg64
(lp1793
g57
(g78
g59
NtRp1794
(dp1795
g62
(dp1796
g82
g83
ssg71
g1790
sg64
(lp1797
g718
asbag57
(g78
g59
NtRp1798
(dp1799
g62
(dp1800
g89
g90
ssg71
g1790
sg64
(lp1801
S':'
asbag57
(g78
g59
NtRp1802
(dp1803
g62
(dp1804
sg71
g1790
sg64
(lp1805
g57
(g58
g59
NtRp1806
(dp1807
g62
(dp1808
g70
I4
ssg71
g1802
sg64
(lp1809
S"<Values at 0x8db55cc: {'verbose': False, 'ip': '127.0.0.1', 'shutdown_timeout': 5, 'taskbar': False, 'port': 8000, 'maxthreads': None, 'softcron': False, 'server_name': 'prateek-Inspiron-N5110', 'bpython': False, 'nogui': False, 'nocron': False, 'extcron': False, 'debuglevel': 30, 'test': None, 'folder': '/home/prateek/web2py', 'config': '', 'import_models': False, 'winservice': '', 'shell': None, 'run': '', 'log_filename': 'httpserver.log', 'args': [''], 'socket_timeout': 1, 'profiler_filename': None, 'ssl_private_key': '', 'password': '<ask>', 'request_queue_size': 5, 'ssl_certificate': '', 'cronjob': False, 'plain': False, 'quiet': False, 'interfaces': None, 'minthreads': None, 'timeout': 10, 'numthreads': None, 'nobanner': False, 'pid_filename': 'httpserver.pid'}>"
p1810
asbasbasbag57
(g73
g59
NtRp1811
(dp1812
g62
(dp1813
sg71
g1721
sg64
(lp1814
g57
(g78
g59
NtRp1815
(dp1816
g62
(dp1817
g82
g83
ssg71
g1811
sg64
(lp1818
g740
asbag57
(g78
g59
NtRp1819
(dp1820
g62
(dp1821
g89
g90
ssg71
g1811
sg64
(lp1822
S':'
asbag57
(g78
g59
NtRp1823
(dp1824
g62
(dp1825
sg71
g1811
sg64
(lp1826
g57
(g58
g59
NtRp1827
(dp1828
g62
(dp1829
g70
I4
ssg71
g1823
sg64
(lp1830
S'set([])'
p1831
asbasbasbag57
(g73
g59
NtRp1832
(dp1833
g62
(dp1834
sg71
g1721
sg64
(lp1835
g57
(g78
g59
NtRp1836
(dp1837
g62
(dp1838
g82
g83
ssg71
g1832
sg64
(lp1839
g762
asbag57
(g78
g59
NtRp1840
(dp1841
g62
(dp1842
g89
g90
ssg71
g1832
sg64
(lp1843
S':'
asbag57
(g78
g59
NtRp1844
(dp1845
g62
(dp1846
sg71
g1832
sg64
(lp1847
g57
(g58
g59
NtRp1848
(dp1849
g62
(dp1850
g70
I4
ssg71
g1844
sg64
(lp1851
g775
asbasbasbag57
(g73
g59
NtRp1852
(dp1853
g62
(dp1854
sg71
g1721
sg64
(lp1855
g57
(g78
g59
NtRp1856
(dp1857
g62
(dp1858
g82
g83
ssg71
g1852
sg64
(lp1859
g784
asbag57
(g78
g59
NtRp1860
(dp1861
g62
(dp1862
g89
g90
ssg71
g1852
sg64
(lp1863
S':'
asbag57
(g78
g59
NtRp1864
(dp1865
g62
(dp1866
sg71
g1852
sg64
(lp1867
g57
(g58
g59
NtRp1868
(dp1869
g62
(dp1870
g70
I4
ssg71
g1864
sg64
(lp1871
g797
asbasbasbag57
(g73
g59
NtRp1872
(dp1873
g62
(dp1874
sg71
g1721
sg64
(lp1875
g57
(g78
g59
NtRp1876
(dp1877
g62
(dp1878
g82
g83
ssg71
g1872
sg64
(lp1879
g1004
asbag57
(g78
g59
NtRp1880
(dp1881
g62
(dp1882
g89
g90
ssg71
g1872
sg64
(lp1883
S':'
asbag57
(g78
g59
NtRp1884
(dp1885
g62
(dp1886
sg71
g1872
sg64
(lp1887
g57
(g58
g59
NtRp1888
(dp1889
g62
(dp1890
g70
I4
ssg71
g1884
sg64
(lp1891
g775
asbasbasbag57
(g73
g59
NtRp1892
(dp1893
g62
(dp1894
sg71
g1721
sg64
(lp1895
g57
(g78
g59
NtRp1896
(dp1897
g62
(dp1898
g82
g83
ssg71
g1892
sg64
(lp1899
g1025
asbag57
(g78
g59
NtRp1900
(dp1901
g62
(dp1902
g89
g90
ssg71
g1892
sg64
(lp1903
S':'
asbag57
(g78
g59
NtRp1904
(dp1905
g62
(dp1906
sg71
g1892
sg64
(lp1907
g57
(g58
g59
NtRp1908
(dp1909
g62
(dp1910
g70
I4
ssg71
g1904
sg64
(lp1911
g775
asbasbasbag57
(g73
g59
NtRp1912
(dp1913
g62
(dp1914
sg71
g1721
sg64
(lp1915
g57
(g78
g59
NtRp1916
(dp1917
g62
(dp1918
g82
g83
ssg71
g1912
sg64
(lp1919
g1264
asbag57
(g78
g59
NtRp1920
(dp1921
g62
(dp1922
g89
g90
ssg71
g1912
sg64
(lp1923
S':'
asbag57
(g78
g59
NtRp1924
(dp1925
g62
(dp1926
sg71
g1912
sg64
(lp1927
g57
(g58
g59
NtRp1928
(dp1929
g62
(dp1930
g70
I4
ssg71
g1924
sg64
(lp1931
g1277
asbasbasbag57
(g73
g59
NtRp1932
(dp1933
g62
(dp1934
sg71
g1721
sg64
(lp1935
g57
(g78
g59
NtRp1936
(dp1937
g62
(dp1938
g82
g83
ssg71
g1932
sg64
(lp1939
g1307
asbag57
(g78
g59
NtRp1940
(dp1941
g62
(dp1942
g89
g90
ssg71
g1932
sg64
(lp1943
S':'
asbag57
(g78
g59
NtRp1944
(dp1945
g62
(dp1946
sg71
g1932
sg64
(lp1947
g57
(g58
g59
NtRp1948
(dp1949
g62
(dp1950
g70
I4
ssg71
g1944
sg64
(lp1951
g57
(g66
g59
NtRp1952
(dp1953
g62
(dp1954
g70
I3
ssg71
Nsg64
(lp1955
g57
(g73
g59
NtRp1956
(dp1957
g62
(dp1958
sg71
g1952
sg64
(lp1959
g57
(g78
g59
NtRp1960
(dp1961
g62
(dp1962
sg71
g1956
sg64
(lp1963
g57
(g58
g59
NtRp1964
(dp1965
g62
(dp1966
g70
I3
ssg71
g1960
sg64
(lp1967
S'1'
asbasbasbag57
(g73
g59
NtRp1968
(dp1969
g62
(dp1970
sg71
g1952
sg64
(lp1971
g57
(g78
g59
NtRp1972
(dp1973
g62
(dp1974
sg71
g1968
sg64
(lp1975
g57
(g58
g59
NtRp1976
(dp1977
g62
(dp1978
g70
I3
ssg71
g1972
sg64
(lp1979
S'99'
p1980
asbasbasbag57
(g73
g59
NtRp1981
(dp1982
g62
(dp1983
sg71
g1952
sg64
(lp1984
g57
(g78
g59
NtRp1985
(dp1986
g62
(dp1987
sg71
g1981
sg64
(lp1988
g57
(g58
g59
NtRp1989
(dp1990
g62
(dp1991
g70
I3
ssg71
g1985
sg64
(lp1992
S'4'
asbasbasbag57
(g73
g59
NtRp1993
(dp1994
g62
(dp1995
sg71
g1952
sg64
(lp1996
g57
(g78
g59
NtRp1997
(dp1998
g62
(dp1999
sg71
g1993
sg64
(lp2000
g57
(g58
g59
NtRp2001
(dp2002
g62
(dp2003
g70
I3
ssg71
g1997
sg64
(lp2004
S'datetime.datetime(2011, 12, 14, 14, 46, 14)'
p2005
asbasbasbag57
(g73
g59
NtRp2006
(dp2007
g62
(dp2008
sg71
g1952
sg64
(lp2009
g57
(g78
g59
NtRp2010
(dp2011
g62
(dp2012
sg71
g2006
sg64
(lp2013
g57
(g58
g59
NtRp2014
(dp2015
g62
(dp2016
g70
I3
ssg71
g2010
sg64
(lp2017
g1386
asbasbasbasbasbasbasbasbasbasbasbag57
(g73
g59
NtRp2018
(dp2019
g62
(dp2020
sg71
g67
sg64
(lp2021
g57
(g78
g59
NtRp2022
(dp2023
g62
(dp2024
g82
g83
ssg71
g2018
sg64
(lp2025
S'is_https'
p2026
asbag57
(g78
g59
NtRp2027
(dp2028
g62
(dp2029
g89
g90
ssg71
g2018
sg64
(lp2030
S':'
asbag57
(g78
g59
NtRp2031
(dp2032
g62
(dp2033
sg71
g2018
sg64
(lp2034
g57
(g58
g59
NtRp2035
(dp2036
g62
(dp2037
g70
I5
ssg71
g2031
sg64
(lp2038
g775
asbasbasbag57
(g73
g59
NtRp2039
(dp2040
g62
(dp2041
sg71
g67
sg64
(lp2042
g57
(g78
g59
NtRp2043
(dp2044
g62
(dp2045
g82
g83
ssg71
g2039
sg64
(lp2046
S'is_local'
p2047
asbag57
(g78
g59
NtRp2048
(dp2049
g62
(dp2050
g89
g90
ssg71
g2039
sg64
(lp2051
S':'
asbag57
(g78
g59
NtRp2052
(dp2053
g62
(dp2054
sg71
g2039
sg64
(lp2055
g57
(g58
g59
NtRp2056
(dp2057
g62
(dp2058
g70
I5
ssg71
g2052
sg64
(lp2059
g100
asbasbasbag57
(g73
g59
NtRp2060
(dp2061
g62
(dp2062
sg71
g67
sg64
(lp2063
g57
(g78
g59
NtRp2064
(dp2065
g62
(dp2066
g82
g83
ssg71
g2060
sg64
(lp2067
S'is_restful'
p2068
asbag57
(g78
g59
NtRp2069
(dp2070
g62
(dp2071
g89
g90
ssg71
g2060
sg64
(lp2072
S':'
asbag57
(g78
g59
NtRp2073
(dp2074
g62
(dp2075
sg71
g2060
sg64
(lp2076
g57
(g58
g59
NtRp2077
(dp2078
g62
(dp2079
g70
I5
ssg71
g2073
sg64
(lp2080
g775
asbasbasbag57
(g73
g59
NtRp2081
(dp2082
g62
(dp2083
sg71
g67
sg64
(lp2084
g57
(g78
g59
NtRp2085
(dp2086
g62
(dp2087
g82
g83
ssg71
g2081
sg64
(lp2088
S'now'
p2089
asbag57
(g78
g59
NtRp2090
(dp2091
g62
(dp2092
g89
g90
ssg71
g2081
sg64
(lp2093
S':'
asbag57
(g78
g59
NtRp2094
(dp2095
g62
(dp2096
sg71
g2081
sg64
(lp2097
g57
(g58
g59
NtRp2098
(dp2099
g62
(dp2100
g70
I5
ssg71
g2094
sg64
(lp2101
S'datetime.datetime(2013, 5, 17, 13, 41, 6, 794188)'
p2102
asbasbasbag57
(g73
g59
NtRp2103
(dp2104
g62
(dp2105
sg71
g67
sg64
(lp2106
g57
(g78
g59
NtRp2107
(dp2108
g62
(dp2109
g82
g83
ssg71
g2103
sg64
(lp2110
S'post_vars'
p2111
asbag57
(g78
g59
NtRp2112
(dp2113
g62
(dp2114
g89
g90
ssg71
g2103
sg64
(lp2115
S':'
asbag57
(g78
g59
NtRp2116
(dp2117
g62
(dp2118
sg71
g2103
sg64
(lp2119
g57
(g58
g59
NtRp2120
(dp2121
g62
(dp2122
g70
I5
ssg71
g2116
sg64
(lp2123
g57
(g66
g59
NtRp2124
(dp2125
g62
(dp2126
g70
I4
ssg71
Nsg64
(lp2127
sbasbasbasbag57
(g73
g59
NtRp2128
(dp2129
g62
(dp2130
sg71
g67
sg64
(lp2131
g57
(g78
g59
NtRp2132
(dp2133
g62
(dp2134
g82
g83
ssg71
g2128
sg64
(lp2135
S'url'
p2136
asbag57
(g78
g59
NtRp2137
(dp2138
g62
(dp2139
g89
g90
ssg71
g2128
sg64
(lp2140
S':'
asbag57
(g78
g59
NtRp2141
(dp2142
g62
(dp2143
sg71
g2128
sg64
(lp2144
g57
(g58
g59
NtRp2145
(dp2146
g62
(dp2147
g70
I5
ssg71
g2141
sg64
(lp2148
S'/phyloShiny/reconciliotastic/getPhylotasticTree'
p2149
asbasbasbag57
(g73
g59
NtRp2150
(dp2151
g62
(dp2152
sg71
g67
sg64
(lp2153
g57
(g78
g59
NtRp2154
(dp2155
g62
(dp2156
g82
g83
ssg71
g2150
sg64
(lp2157
S'utcnow'
p2158
asbag57
(g78
g59
NtRp2159
(dp2160
g62
(dp2161
g89
g90
ssg71
g2150
sg64
(lp2162
S':'
asbag57
(g78
g59
NtRp2163
(dp2164
g62
(dp2165
sg71
g2150
sg64
(lp2166
g57
(g58
g59
NtRp2167
(dp2168
g62
(dp2169
g70
I5
ssg71
g2163
sg64
(lp2170
S'datetime.datetime(2013, 5, 17, 8, 11, 6, 794248)'
p2171
asbasbasbag57
(g73
g59
NtRp2172
(dp2173
g62
(dp2174
sg71
g67
sg64
(lp2175
g57
(g78
g59
NtRp2176
(dp2177
g62
(dp2178
g82
g83
ssg71
g2172
sg64
(lp2179
S'uuid'
p2180
asbag57
(g78
g59
NtRp2181
(dp2182
g62
(dp2183
g89
g90
ssg71
g2172
sg64
(lp2184
S':'
asbag57
(g78
g59
NtRp2185
(dp2186
g62
(dp2187
sg71
g2172
sg64
(lp2188
g57
(g58
g59
NtRp2189
(dp2190
g62
(dp2191
g70
I5
ssg71
g2185
sg64
(lp2192
S'phyloShiny/127.0.0.1.2013-05-17.13-41-06.6ae091c3-d777-4791-a42f-e9c64faebaae'
p2193
asbasbasbag57
(g73
g59
NtRp2194
(dp2195
g62
(dp2196
sg71
g67
sg64
(lp2197
g57
(g78
g59
NtRp2198
(dp2199
g62
(dp2200
g82
g83
ssg71
g2194
sg64
(lp2201
S'vars'
p2202
asbag57
(g78
g59
NtRp2203
(dp2204
g62
(dp2205
g89
g90
ssg71
g2194
sg64
(lp2206
S':'
asbag57
(g78
g59
NtRp2207
(dp2208
g62
(dp2209
sg71
g2194
sg64
(lp2210
g57
(g58
g59
NtRp2211
(dp2212
g62
(dp2213
g70
I5
ssg71
g2207
sg64
(lp2214
g57
(g66
g59
NtRp2215
(dp2216
g62
(dp2217
g70
I4
ssg71
Nsg64
(lp2218
g57
(g73
g59
NtRp2219
(dp2220
g62
(dp2221
sg71
g2215
sg64
(lp2222
g57
(g78
g59
NtRp2223
(dp2224
g62
(dp2225
g82
g83
ssg71
g2219
sg64
(lp2226
g1686
asbag57
(g78
g59
NtRp2227
(dp2228
g62
(dp2229
g89
g90
ssg71
g2219
sg64
(lp2230
S':'
asbag57
(g78
g59
NtRp2231
(dp2232
g62
(dp2233
sg71
g2219
sg64
(lp2234
g57
(g58
g59
NtRp2235
(dp2236
g62
(dp2237
g70
I4
ssg71
g2231
sg64
(lp2238
g1699
asbasbasbasbasbasbasbag57
(g73
g59
NtRp2239
(dp2240
g62
(dp2241
sg71
g67
sg64
(lp2242
g57
(g78
g59
NtRp2243
(dp2244
g62
(dp2245
g82
g83
ssg71
g2239
sg64
(lp2246
S'wsgi'
p2247
asbag57
(g78
g59
NtRp2248
(dp2249
g62
(dp2250
g89
g90
ssg71
g2239
sg64
(lp2251
S':'
asbag57
(g78
g59
NtRp2252
(dp2253
g62
(dp2254
sg71
g2239
sg64
(lp2255
g57
(g58
g59
NtRp2256
(dp2257
g62
(dp2258
g70
I5
ssg71
g2252
sg64
(lp2259
g57
(g66
g59
NtRp2260
(dp2261
g62
(dp2262
g70
I4
ssg71
Nsg64
(lp2263
g57
(g73
g59
NtRp2264
(dp2265
g62
(dp2266
sg71
g2260
sg64
(lp2267
g57
(g78
g59
NtRp2268
(dp2269
g62
(dp2270
g82
g83
ssg71
g2264
sg64
(lp2271
S'environ'
p2272
asbag57
(g78
g59
NtRp2273
(dp2274
g62
(dp2275
g89
g90
ssg71
g2264
sg64
(lp2276
S':'
asbag57
(g78
g59
NtRp2277
(dp2278
g62
(dp2279
sg71
g2264
sg64
(lp2280
g57
(g58
g59
NtRp2281
(dp2282
g62
(dp2283
g70
I4
ssg71
g2277
sg64
(lp2284
g57
(g66
g59
NtRp2285
(dp2286
g62
(dp2287
g70
I3
ssg71
Nsg64
(lp2288
g57
(g73
g59
NtRp2289
(dp2290
g62
(dp2291
sg71
g2285
sg64
(lp2292
g57
(g78
g59
NtRp2293
(dp2294
g62
(dp2295
g82
g83
ssg71
g2289
sg64
(lp2296
S'HTTP_ACCEPT'
p2297
asbag57
(g78
g59
NtRp2298
(dp2299
g62
(dp2300
g89
g90
ssg71
g2289
sg64
(lp2301
S':'
asbag57
(g78
g59
NtRp2302
(dp2303
g62
(dp2304
sg71
g2289
sg64
(lp2305
g57
(g58
g59
NtRp2306
(dp2307
g62
(dp2308
g70
I3
ssg71
g2302
sg64
(lp2309
g819
asbasbasbag57
(g73
g59
NtRp2310
(dp2311
g62
(dp2312
sg71
g2285
sg64
(lp2313
g57
(g78
g59
NtRp2314
(dp2315
g62
(dp2316
g82
g83
ssg71
g2310
sg64
(lp2317
S'HTTP_ACCEPT_ENCODING'
p2318
asbag57
(g78
g59
NtRp2319
(dp2320
g62
(dp2321
g89
g90
ssg71
g2310
sg64
(lp2322
S':'
asbag57
(g78
g59
NtRp2323
(dp2324
g62
(dp2325
sg71
g2310
sg64
(lp2326
g57
(g58
g59
NtRp2327
(dp2328
g62
(dp2329
g70
I3
ssg71
g2323
sg64
(lp2330
g841
asbasbasbag57
(g73
g59
NtRp2331
(dp2332
g62
(dp2333
sg71
g2285
sg64
(lp2334
g57
(g78
g59
NtRp2335
(dp2336
g62
(dp2337
g82
g83
ssg71
g2331
sg64
(lp2338
S'HTTP_ACCEPT_LANGUAGE'
p2339
asbag57
(g78
g59
NtRp2340
(dp2341
g62
(dp2342
g89
g90
ssg71
g2331
sg64
(lp2343
S':'
asbag57
(g78
g59
NtRp2344
(dp2345
g62
(dp2346
sg71
g2331
sg64
(lp2347
g57
(g58
g59
NtRp2348
(dp2349
g62
(dp2350
g70
I3
ssg71
g2344
sg64
(lp2351
g863
asbasbasbag57
(g73
g59
NtRp2352
(dp2353
g62
(dp2354
sg71
g2285
sg64
(lp2355
g57
(g78
g59
NtRp2356
(dp2357
g62
(dp2358
g82
g83
ssg71
g2352
sg64
(lp2359
S'HTTP_CONNECTION'
p2360
asbag57
(g78
g59
NtRp2361
(dp2362
g62
(dp2363
g89
g90
ssg71
g2352
sg64
(lp2364
S':'
asbag57
(g78
g59
NtRp2365
(dp2366
g62
(dp2367
sg71
g2352
sg64
(lp2368
g57
(g58
g59
NtRp2369
(dp2370
g62
(dp2371
g70
I3
ssg71
g2365
sg64
(lp2372
g885
asbasbasbag57
(g73
g59
NtRp2373
(dp2374
g62
(dp2375
sg71
g2285
sg64
(lp2376
g57
(g78
g59
NtRp2377
(dp2378
g62
(dp2379
g82
g83
ssg71
g2373
sg64
(lp2380
S'HTTP_COOKIE'
p2381
asbag57
(g78
g59
NtRp2382
(dp2383
g62
(dp2384
g89
g90
ssg71
g2373
sg64
(lp2385
S':'
asbag57
(g78
g59
NtRp2386
(dp2387
g62
(dp2388
sg71
g2373
sg64
(lp2389
g57
(g58
g59
NtRp2390
(dp2391
g62
(dp2392
g70
I3
ssg71
g2386
sg64
(lp2393
g907
asbasbasbag57
(g73
g59
NtRp2394
(dp2395
g62
(dp2396
sg71
g2285
sg64
(lp2397
g57
(g78
g59
NtRp2398
(dp2399
g62
(dp2400
g82
g83
ssg71
g2394
sg64
(lp2401
S'HTTP_HOST'
p2402
asbag57
(g78
g59
NtRp2403
(dp2404
g62
(dp2405
g89
g90
ssg71
g2394
sg64
(lp2406
S':'
asbag57
(g78
g59
NtRp2407
(dp2408
g62
(dp2409
sg71
g2394
sg64
(lp2410
g57
(g58
g59
NtRp2411
(dp2412
g62
(dp2413
g70
I3
ssg71
g2407
sg64
(lp2414
g929
asbasbasbag57
(g73
g59
NtRp2415
(dp2416
g62
(dp2417
sg71
g2285
sg64
(lp2418
g57
(g78
g59
NtRp2419
(dp2420
g62
(dp2421
g82
g83
ssg71
g2415
sg64
(lp2422
S'HTTP_REFERER'
p2423
asbag57
(g78
g59
NtRp2424
(dp2425
g62
(dp2426
g89
g90
ssg71
g2415
sg64
(lp2427
S':'
asbag57
(g78
g59
NtRp2428
(dp2429
g62
(dp2430
sg71
g2415
sg64
(lp2431
g57
(g58
g59
NtRp2432
(dp2433
g62
(dp2434
g70
I3
ssg71
g2428
sg64
(lp2435
g951
asbasbasbag57
(g73
g59
NtRp2436
(dp2437
g62
(dp2438
sg71
g2285
sg64
(lp2439
g57
(g78
g59
NtRp2440
(dp2441
g62
(dp2442
g82
g83
ssg71
g2436
sg64
(lp2443
S'HTTP_USER_AGENT'
p2444
asbag57
(g78
g59
NtRp2445
(dp2446
g62
(dp2447
g89
g90
ssg71
g2436
sg64
(lp2448
S':'
asbag57
(g78
g59
NtRp2449
(dp2450
g62
(dp2451
sg71
g2436
sg64
(lp2452
g57
(g58
g59
NtRp2453
(dp2454
g62
(dp2455
g70
I3
ssg71
g2449
sg64
(lp2456
g973
asbasbasbag57
(g73
g59
NtRp2457
(dp2458
g62
(dp2459
sg71
g2285
sg64
(lp2460
g57
(g78
g59
NtRp2461
(dp2462
g62
(dp2463
g82
g83
ssg71
g2457
sg64
(lp2464
S'HTTP_X_REQUESTED_WITH'
p2465
asbag57
(g78
g59
NtRp2466
(dp2467
g62
(dp2468
g89
g90
ssg71
g2457
sg64
(lp2469
S':'
asbag57
(g78
g59
NtRp2470
(dp2471
g62
(dp2472
sg71
g2457
sg64
(lp2473
g57
(g58
g59
NtRp2474
(dp2475
g62
(dp2476
g70
I3
ssg71
g2470
sg64
(lp2477
g995
asbasbasbag57
(g73
g59
NtRp2478
(dp2479
g62
(dp2480
sg71
g2285
sg64
(lp2481
g57
(g78
g59
NtRp2482
(dp2483
g62
(dp2484
g82
g83
ssg71
g2478
sg64
(lp2485
S'PATH_INFO'
p2486
asbag57
(g78
g59
NtRp2487
(dp2488
g62
(dp2489
g89
g90
ssg71
g2478
sg64
(lp2490
S':'
asbag57
(g78
g59
NtRp2491
(dp2492
g62
(dp2493
sg71
g2478
sg64
(lp2494
g57
(g58
g59
NtRp2495
(dp2496
g62
(dp2497
g70
I3
ssg71
g2491
sg64
(lp2498
g1059
asbasbasbag57
(g73
g59
NtRp2499
(dp2500
g62
(dp2501
sg71
g2285
sg64
(lp2502
g57
(g78
g59
NtRp2503
(dp2504
g62
(dp2505
g82
g83
ssg71
g2499
sg64
(lp2506
S'QUERY_STRING'
p2507
asbag57
(g78
g59
NtRp2508
(dp2509
g62
(dp2510
g89
g90
ssg71
g2499
sg64
(lp2511
S':'
asbag57
(g78
g59
NtRp2512
(dp2513
g62
(dp2514
sg71
g2499
sg64
(lp2515
g57
(g58
g59
NtRp2516
(dp2517
g62
(dp2518
g70
I3
ssg71
g2512
sg64
(lp2519
g1081
asbasbasbag57
(g73
g59
NtRp2520
(dp2521
g62
(dp2522
sg71
g2285
sg64
(lp2523
g57
(g78
g59
NtRp2524
(dp2525
g62
(dp2526
g82
g83
ssg71
g2520
sg64
(lp2527
S'REMOTE_ADDR'
p2528
asbag57
(g78
g59
NtRp2529
(dp2530
g62
(dp2531
g89
g90
ssg71
g2520
sg64
(lp2532
S':'
asbag57
(g78
g59
NtRp2533
(dp2534
g62
(dp2535
sg71
g2520
sg64
(lp2536
g57
(g58
g59
NtRp2537
(dp2538
g62
(dp2539
g70
I3
ssg71
g2533
sg64
(lp2540
g190
asbasbasbag57
(g73
g59
NtRp2541
(dp2542
g62
(dp2543
sg71
g2285
sg64
(lp2544
g57
(g78
g59
NtRp2545
(dp2546
g62
(dp2547
g82
g83
ssg71
g2541
sg64
(lp2548
S'REMOTE_PORT'
p2549
asbag57
(g78
g59
NtRp2550
(dp2551
g62
(dp2552
g89
g90
ssg71
g2541
sg64
(lp2553
S':'
asbag57
(g78
g59
NtRp2554
(dp2555
g62
(dp2556
sg71
g2541
sg64
(lp2557
g57
(g58
g59
NtRp2558
(dp2559
g62
(dp2560
g70
I3
ssg71
g2554
sg64
(lp2561
g1124
asbasbasbag57
(g73
g59
NtRp2562
(dp2563
g62
(dp2564
sg71
g2285
sg64
(lp2565
g57
(g78
g59
NtRp2566
(dp2567
g62
(dp2568
g82
g83
ssg71
g2562
sg64
(lp2569
S'REQUEST_METHOD'
p2570
asbag57
(g78
g59
NtRp2571
(dp2572
g62
(dp2573
g89
g90
ssg71
g2562
sg64
(lp2574
S':'
asbag57
(g78
g59
NtRp2575
(dp2576
g62
(dp2577
sg71
g2562
sg64
(lp2578
g57
(g58
g59
NtRp2579
(dp2580
g62
(dp2581
g70
I3
ssg71
g2575
sg64
(lp2582
g1146
asbasbasbag57
(g73
g59
NtRp2583
(dp2584
g62
(dp2585
sg71
g2285
sg64
(lp2586
g57
(g78
g59
NtRp2587
(dp2588
g62
(dp2589
g82
g83
ssg71
g2583
sg64
(lp2590
S'SCRIPT_NAME'
p2591
asbag57
(g78
g59
NtRp2592
(dp2593
g62
(dp2594
g89
g90
ssg71
g2583
sg64
(lp2595
S':'
asbag57
(g78
g59
NtRp2596
(dp2597
g62
(dp2598
sg71
g2583
sg64
(lp2599
g57
(g58
g59
NtRp2600
(dp2601
g62
(dp2602
g70
I3
ssg71
g2596
sg64
(lp2603
S''
asbasbasbag57
(g73
g59
NtRp2604
(dp2605
g62
(dp2606
sg71
g2285
sg64
(lp2607
g57
(g78
g59
NtRp2608
(dp2609
g62
(dp2610
g82
g83
ssg71
g2604
sg64
(lp2611
S'SERVER_NAME'
p2612
asbag57
(g78
g59
NtRp2613
(dp2614
g62
(dp2615
g89
g90
ssg71
g2604
sg64
(lp2616
S':'
asbag57
(g78
g59
NtRp2617
(dp2618
g62
(dp2619
sg71
g2604
sg64
(lp2620
g57
(g58
g59
NtRp2621
(dp2622
g62
(dp2623
g70
I3
ssg71
g2617
sg64
(lp2624
g1189
asbasbasbag57
(g73
g59
NtRp2625
(dp2626
g62
(dp2627
sg71
g2285
sg64
(lp2628
g57
(g78
g59
NtRp2629
(dp2630
g62
(dp2631
g82
g83
ssg71
g2625
sg64
(lp2632
S'SERVER_PORT'
p2633
asbag57
(g78
g59
NtRp2634
(dp2635
g62
(dp2636
g89
g90
ssg71
g2625
sg64
(lp2637
S':'
asbag57
(g78
g59
NtRp2638
(dp2639
g62
(dp2640
sg71
g2625
sg64
(lp2641
g57
(g58
g59
NtRp2642
(dp2643
g62
(dp2644
g70
I3
ssg71
g2638
sg64
(lp2645
g1211
asbasbasbag57
(g73
g59
NtRp2646
(dp2647
g62
(dp2648
sg71
g2285
sg64
(lp2649
g57
(g78
g59
NtRp2650
(dp2651
g62
(dp2652
g82
g83
ssg71
g2646
sg64
(lp2653
S'SERVER_PROTOCOL'
p2654
asbag57
(g78
g59
NtRp2655
(dp2656
g62
(dp2657
g89
g90
ssg71
g2646
sg64
(lp2658
S':'
asbag57
(g78
g59
NtRp2659
(dp2660
g62
(dp2661
sg71
g2646
sg64
(lp2662
g57
(g58
g59
NtRp2663
(dp2664
g62
(dp2665
g70
I3
ssg71
g2659
sg64
(lp2666
g1233
asbasbasbag57
(g73
g59
NtRp2667
(dp2668
g62
(dp2669
sg71
g2285
sg64
(lp2670
g57
(g78
g59
NtRp2671
(dp2672
g62
(dp2673
g82
g83
ssg71
g2667
sg64
(lp2674
S'SERVER_SOFTWARE'
p2675
asbag57
(g78
g59
NtRp2676
(dp2677
g62
(dp2678
g89
g90
ssg71
g2667
sg64
(lp2679
S':'
asbag57
(g78
g59
NtRp2680
(dp2681
g62
(dp2682
sg71
g2667
sg64
(lp2683
g57
(g58
g59
NtRp2684
(dp2685
g62
(dp2686
g70
I3
ssg71
g2680
sg64
(lp2687
g1255
asbasbasbag57
(g73
g59
NtRp2688
(dp2689
g62
(dp2690
sg71
g2285
sg64
(lp2691
g57
(g78
g59
NtRp2692
(dp2693
g62
(dp2694
g82
g83
ssg71
g2688
sg64
(lp2695
S'wsgi.errors'
p2696
asbag57
(g78
g59
NtRp2697
(dp2698
g62
(dp2699
g89
g90
ssg71
g2688
sg64
(lp2700
S':'
asbag57
(g78
g59
NtRp2701
(dp2702
g62
(dp2703
sg71
g2688
sg64
(lp2704
g57
(g58
g59
NtRp2705
(dp2706
g62
(dp2707
g70
I3
ssg71
g2701
sg64
(lp2708
S"<open file '<stderr>', mode 'w' at 0xb72920d0>"
p2709
asbasbasbag57
(g73
g59
NtRp2710
(dp2711
g62
(dp2712
sg71
g2285
sg64
(lp2713
g57
(g78
g59
NtRp2714
(dp2715
g62
(dp2716
g82
g83
ssg71
g2710
sg64
(lp2717
S'wsgi.file_wrapper'
p2718
asbag57
(g78
g59
NtRp2719
(dp2720
g62
(dp2721
g89
g90
ssg71
g2710
sg64
(lp2722
S':'
asbag57
(g78
g59
NtRp2723
(dp2724
g62
(dp2725
sg71
g2710
sg64
(lp2726
g57
(g58
g59
NtRp2727
(dp2728
g62
(dp2729
g70
I3
ssg71
g2723
sg64
(lp2730
S'<class wsgiref.util.FileWrapper at 0x8b7d23c>'
p2731
asbasbasbag57
(g73
g59
NtRp2732
(dp2733
g62
(dp2734
sg71
g2285
sg64
(lp2735
g57
(g78
g59
NtRp2736
(dp2737
g62
(dp2738
g82
g83
ssg71
g2732
sg64
(lp2739
S'wsgi.input'
p2740
asbag57
(g78
g59
NtRp2741
(dp2742
g62
(dp2743
g89
g90
ssg71
g2732
sg64
(lp2744
S':'
asbag57
(g78
g59
NtRp2745
(dp2746
g62
(dp2747
sg71
g2732
sg64
(lp2748
g57
(g58
g59
NtRp2749
(dp2750
g62
(dp2751
g70
I3
ssg71
g2745
sg64
(lp2752
S'<cStringIO.StringO object at 0xaac1a240>'
p2753
asbasbasbag57
(g73
g59
NtRp2754
(dp2755
g62
(dp2756
sg71
g2285
sg64
(lp2757
g57
(g78
g59
NtRp2758
(dp2759
g62
(dp2760
g82
g83
ssg71
g2754
sg64
(lp2761
S'wsgi.multiprocess'
p2762
asbag57
(g78
g59
NtRp2763
(dp2764
g62
(dp2765
g89
g90
ssg71
g2754
sg64
(lp2766
S':'
asbag57
(g78
g59
NtRp2767
(dp2768
g62
(dp2769
sg71
g2754
sg64
(lp2770
g57
(g58
g59
NtRp2771
(dp2772
g62
(dp2773
g70
I3
ssg71
g2767
sg64
(lp2774
g775
asbasbasbag57
(g73
g59
NtRp2775
(dp2776
g62
(dp2777
sg71
g2285
sg64
(lp2778
g57
(g78
g59
NtRp2779
(dp2780
g62
(dp2781
g82
g83
ssg71
g2775
sg64
(lp2782
S'wsgi.multithread'
p2783
asbag57
(g78
g59
NtRp2784
(dp2785
g62
(dp2786
g89
g90
ssg71
g2775
sg64
(lp2787
S':'
asbag57
(g78
g59
NtRp2788
(dp2789
g62
(dp2790
sg71
g2775
sg64
(lp2791
g57
(g58
g59
NtRp2792
(dp2793
g62
(dp2794
g70
I3
ssg71
g2788
sg64
(lp2795
g100
asbasbasbag57
(g73
g59
NtRp2796
(dp2797
g62
(dp2798
sg71
g2285
sg64
(lp2799
g57
(g78
g59
NtRp2800
(dp2801
g62
(dp2802
g82
g83
ssg71
g2796
sg64
(lp2803
S'wsgi.run_once'
p2804
asbag57
(g78
g59
NtRp2805
(dp2806
g62
(dp2807
g89
g90
ssg71
g2796
sg64
(lp2808
S':'
asbag57
(g78
g59
NtRp2809
(dp2810
g62
(dp2811
sg71
g2796
sg64
(lp2812
g57
(g58
g59
NtRp2813
(dp2814
g62
(dp2815
g70
I3
ssg71
g2809
sg64
(lp2816
g775
asbasbasbag57
(g73
g59
NtRp2817
(dp2818
g62
(dp2819
sg71
g2285
sg64
(lp2820
g57
(g78
g59
NtRp2821
(dp2822
g62
(dp2823
g82
g83
ssg71
g2817
sg64
(lp2824
S'wsgi.url_scheme'
p2825
asbag57
(g78
g59
NtRp2826
(dp2827
g62
(dp2828
g89
g90
ssg71
g2817
sg64
(lp2829
S':'
asbag57
(g78
g59
NtRp2830
(dp2831
g62
(dp2832
sg71
g2817
sg64
(lp2833
g57
(g58
g59
NtRp2834
(dp2835
g62
(dp2836
g70
I3
ssg71
g2830
sg64
(lp2837
g1537
asbasbasbag57
(g73
g59
NtRp2838
(dp2839
g62
(dp2840
sg71
g2285
sg64
(lp2841
g57
(g78
g59
NtRp2842
(dp2843
g62
(dp2844
g82
g83
ssg71
g2838
sg64
(lp2845
S'wsgi.version'
p2846
asbag57
(g78
g59
NtRp2847
(dp2848
g62
(dp2849
g89
g90
ssg71
g2838
sg64
(lp2850
S':'
asbag57
(g78
g59
NtRp2851
(dp2852
g62
(dp2853
sg71
g2838
sg64
(lp2854
g57
(g58
g59
NtRp2855
(dp2856
g62
(dp2857
g70
I3
ssg71
g2851
sg64
(lp2858
S'1'
asbasbasbasbasbasbasbasbasbasbasbasbasbsS'frames'
p2859
(lp2860
(dp2861
S'file'
p2862
S'/usr/lib/pymodules/python2.7/gluon/restricted.py'
p2863
sS'dump'
p2864
(dp2865
S'environment'
p2866
S"{'A': <class 'gluon.html.A'>, 'Auth': <class 'gluon.tools.Auth'>, 'B': <class 'gluon.html.B'>, 'BEAUTIFY': <class 'gluon.html.BEAUTIFY'>, 'BODY': <class 'gluon.html.BODY'>, 'BR': <class 'gluon.html.BR'>, 'BUTTON': <class 'gluon.html.BUTTON'>, 'BaseTree': <module 'Bio.Phylo.BaseTree' from '/usr/local/lib/python2.7/dist-packages/Bio/Phylo/BaseTree.py'>, 'CAT': <class 'gluon.html.CAT'>, 'CENTER': <class 'gluon.html.CENTER'>, ...}"
p2867
sS'ccode'
p2868
S'<code object <module> at 0xaac1b380, file "/home...oShiny/controllers/reconciliotastic.py", line 11>'
p2869
ssS'lnum'
p2870
I204
sS'lines'
p2871
(dp2872
I199
S'    try:'
p2873
sI200
S'        if type(code) == types.CodeType:'
p2874
sI201
S'            ccode = code'
p2875
sI202
S'        else:'
p2876
sI203
S'            ccode = compile2(code,layer)'
p2877
sI204
S'        exec ccode in environment'
p2878
sI205
S'    except HTTP:'
p2879
sI206
S'        raise'
p2880
sI207
S'    except RestrictedError:'
p2881
sI208
S'        # do not encapsulate (obfuscate) the original RestrictedError'
p2882
ssS'call'
p2883
S"(code='# -*- coding: utf-8 -*-\\n# this file is released ...ponse._vars=response._caller(getPhylotasticTree)\\n', environment={'A': <class 'gluon.html.A'>, 'Auth': <class 'gluon.tools.Auth'>, 'B': <class 'gluon.html.B'>, 'BEAUTIFY': <class 'gluon.html.BEAUTIFY'>, 'BODY': <class 'gluon.html.BODY'>, 'BR': <class 'gluon.html.BR'>, 'BUTTON': <class 'gluon.html.BUTTON'>, 'BaseTree': <module 'Bio.Phylo.BaseTree' from '/usr/local/lib/python2.7/dist-packages/Bio/Phylo/BaseTree.py'>, 'CAT': <class 'gluon.html.CAT'>, 'CENTER': <class 'gluon.html.CENTER'>, ...}, layer='/home/prateek/web2py/applications/phyloShiny/controllers/reconciliotastic.py')"
p2884
sS'func'
p2885
S'restricted'
p2886
sa(dp2887
g2862
S'/home/prateek/web2py/applications/phyloShiny/controllers/reconciliotastic.py'
p2888
sg2864
(dp2889
sg2870
I178
sg2871
(dp2890
I167
S'    shellCall += geneTreeFile'
p2891
sI168
S"    shellCall += ' '+speciesTreeFile"
p2892
sI169
S''
sI170
S'    os.system(shellCall)'
p2893
sI171
S''
sI172
S"    reconciledTreeWebFile = getRelativeWebPath('_preprocessed_gene_tree.phylo_gsdi_out.phylo.xml')"
p2894
sI173
S''
sI174
S'    return response.json( dict(vizFile = reconciledTreeWebFile,'
p2895
sI175
S'                               vizLabel = "Reconciled Tree (red=duplication, green=speciation)"'
p2896
sI176
S'                               ) )'
p2897
ssg2883
S'()'
p2898
sg2885
S'<module>'
p2899
sa(dp2900
g2862
S'/usr/lib/pymodules/python2.7/gluon/globals.py'
p2901
sg2864
(dp2902
S'self'
p2903
S'undefined'
p2904
sS'f'
S'<function getPhylotasticTree>'
p2905
ssg2870
I172
sg2871
(dp2906
I167
S'        self.meta = Storage()      # used by web2py_ajax.html'
p2907
sI168
S'        self.menu = []             # used by the default view layout'
p2908
sI169
S'        self.files = []            # used by web2py_ajax.html'
p2909
sI170
S'        self.generic_patterns = [] # patterns to allow generic views'
p2910
sI171
S'        self._vars = None'
p2911
sI172
S'        self._caller = lambda f: f()'
p2912
sI173
S'        self._view_environment = None'
p2913
sI174
S'        self._custom_commit = None'
p2914
sI175
S'        self._custom_rollback = None'
p2915
sI176
S''
ssg2883
S'(f=<function getPhylotasticTree>)'
p2916
sg2885
S'<lambda>'
p2917
sa(dp2918
g2862
S'/home/prateek/web2py/applications/phyloShiny/controllers/reconciliotastic.py'
p2919
sg2864
(dp2920
S'got_nodes'
p2921
S'<bound method Tree.count_terminals of Tree(weight=1.0, rooted=False)>'
p2922
ssg2870
I140
sg2871
(dp2923
I135
S''
sI136
S"    speciesTreeWebFile = getRelativeWebPath('_species_tree.txt')"
p2924
sI137
S''
sI138
S'    return response.json( dict(vizFile = speciesTreeWebFile,'
p2925
sI139
S'                               vizLabel = "Phylotastic Species Tree",'
p2926
sI140
S'\t\t\t       got_nodes=got_nodes'
p2927
sI141
S'                               ) )'
p2928
sI142
S''
sI143
S'##def countnodes():'
p2929
sI144
S''
ssg2883
S'()'
p2930
sg2885
S'getPhylotasticTree'
p2931
sa(dp2932
g2862
S'/usr/lib/pymodules/python2.7/gluon/globals.py'
p2933
sg2864
(dp2934
S'default'
p2935
S'None'
p2936
sS'global custom_json'
p2937
S'<function custom_json>'
p2938
sS'global json'
p2939
S'<function json>'
p2940
sS'data'
p2941
S"{'got_nodes': <bound method Tree.count_terminals of Tree(weight=1.0, rooted=False)>, 'vizFile': '_species_tree.txt', 'vizLabel': 'Phylotastic Species Tree'}"
p2942
ssg2870
I338
sg2871
(dp2943
I333
S"            self.headers['Content-Disposition'] = \\"
p2944
sI334
S'                "attachment; filename=%s" % filename'
p2945
sI335
S'        return self.stream(stream, chunk_size = chunk_size, request=request)'
p2946
sI336
S''
sI337
S'    def json(self, data, default=None):'
p2947
sI338
S'        return json(data, default = default or custom_json)'
p2948
sI339
S''
sI340
S'    def xmlrpc(self, request, methods):'
p2949
sI341
S'        """'
p2950
sI342
S'        assuming::'
p2951
ssg2883
S"(self=<Storage {'status': 200, 'body': <cStringIO.Stri...ew': 'reconciliotastic/getPhylotasticTree.html'}>, data={'got_nodes': <bound method Tree.count_terminals of Tree(weight=1.0, rooted=False)>, 'vizFile': '_species_tree.txt', 'vizLabel': 'Phylotastic Species Tree'}, default=None)"
p2952
sg2885
S'json'
p2953
sa(dp2954
g2862
S'/usr/lib/pymodules/python2.7/gluon/serializers.py'
p2955
sg2864
(dp2956
S'default'
p2957
S'<function custom_json>'
p2958
sS'json_parser.dumps'
p2959
S'<function dumps>'
p2960
sS'global json_parser'
p2961
S"<module 'json' from '/usr/lib/python2.7/json/__init__.pyc'>"
p2962
sS'value'
p2963
S"{'got_nodes': <bound method Tree.count_terminals of Tree(weight=1.0, rooted=False)>, 'vizFile': '_species_tree.txt', 'vizLabel': 'Phylotastic Species Tree'}"
p2964
ssg2870
I61
sg2871
(dp2965
I64
S'def csv(value):'
p2966
sI65
S"    return ''"
p2967
sI56
S"def xml(value, encoding='UTF-8', key='document', quote=True):"
p2968
sI57
S'    return (\'<?xml version="1.0" encoding="%s"?>\' % encoding) + str(xml_rec(value,key,quote))'
p2969
sI58
S''
sI59
S''
sI60
S'def json(value,default=custom_json):'
p2970
sI61
S'    return json_parser.dumps(value,default=default)'
p2971
sI62
S''
sI63
S''
ssg2883
S"(value={'got_nodes': <bound method Tree.count_terminals of Tree(weight=1.0, rooted=False)>, 'vizFile': '_species_tree.txt', 'vizLabel': 'Phylotastic Species Tree'}, default=<function custom_json>)"
p2972
sg2885
g2953
sa(dp2973
g2862
S'/usr/lib/python2.7/json/__init__.py'
p2974
sg2864
(dp2975
S'obj'
p2976
S"{'got_nodes': <bound method Tree.count_terminals of Tree(weight=1.0, rooted=False)>, 'vizFile': '_species_tree.txt', 'vizLabel': 'Phylotastic Species Tree'}"
p2977
sS'kw'
p2978
g45
sS').encode'
p2979
g2904
ssg2870
I238
sg2871
(dp2980
I233
S'        cls = JSONEncoder'
p2981
sI234
S'    return cls('
p2982
sI235
S'        skipkeys=skipkeys, ensure_ascii=ensure_ascii,'
p2983
sI236
S'        check_circular=check_circular, allow_nan=allow_nan, indent=indent,'
p2984
sI237
S'        separators=separators, encoding=encoding, default=default,'
p2985
sI238
S'        **kw).encode(obj)'
p2986
sI239
S''
sI240
S''
sI241
S'_default_decoder = JSONDecoder(encoding=None, object_hook=None,'
p2987
sI242
S'                               object_pairs_hook=None)'
p2988
ssg2883
S"(obj={'got_nodes': <bound method Tree.count_terminals of Tree(weight=1.0, rooted=False)>, 'vizFile': '_species_tree.txt', 'vizLabel': 'Phylotastic Species Tree'}, skipkeys=False, ensure_ascii=True, check_circular=True, allow_nan=True, cls=<class 'json.encoder.JSONEncoder'>, indent=None, separators=None, encoding='utf-8', default=<function custom_json>, **kw={})"
p2989
sg2885
S'dumps'
p2990
sa(dp2991
g2862
S'/usr/lib/python2.7/json/encoder.py'
p2992
sg2864
(dp2993
S'self'
p2994
S'<json.encoder.JSONEncoder object>'
p2995
sS'o'
S"{'got_nodes': <bound method Tree.count_terminals of Tree(weight=1.0, rooted=False)>, 'vizFile': '_species_tree.txt', 'vizLabel': 'Phylotastic Species Tree'}"
p2996
sS'self.iterencode'
p2997
S'<bound method JSONEncoder.iterencode of <json.encoder.JSONEncoder object>>'
p2998
sS'_one_shot'
p2999
g2904
sS'chunks'
p3000
g2904
sS'builtinTrue'
p3001
g100
ssg2870
I201
sg2871
(dp3002
I196
S'            else:'
p3003
sI197
S'                return encode_basestring(o)'
p3004
sI198
S"        # This doesn't pass the iterator directly to ''.join() because the"
p3005
sI199
S"        # exceptions aren't as detailed.  The list call should be roughly"
p3006
sI200
S"        # equivalent to the PySequence_Fast that ''.join() would do."
p3007
sI201
S'        chunks = self.iterencode(o, _one_shot=True)'
p3008
sI202
S'        if not isinstance(chunks, (list, tuple)):'
p3009
sI203
S'            chunks = list(chunks)'
p3010
sI204
S"        return ''.join(chunks)"
p3011
sI205
S''
ssg2883
S"(self=<json.encoder.JSONEncoder object>, o={'got_nodes': <bound method Tree.count_terminals of Tree(weight=1.0, rooted=False)>, 'vizFile': '_species_tree.txt', 'vizLabel': 'Phylotastic Species Tree'})"
p3012
sg2885
S'encode'
p3013
sa(dp3014
g2862
S'/usr/lib/python2.7/json/encoder.py'
p3015
sg2864
(dp3016
S'_iterencode'
p3017
S'<_json.Encoder object>'
p3018
sS'o'
S"{'got_nodes': <bound method Tree.count_terminals of Tree(weight=1.0, rooted=False)>, 'vizFile': '_species_tree.txt', 'vizLabel': 'Phylotastic Species Tree'}"
p3019
ssg2870
I264
sg2871
(dp3020
I259
S'        else:'
p3021
sI260
S'            _iterencode = _make_iterencode('
p3022
sI261
S'                markers, self.default, _encoder, self.indent, floatstr,'
p3023
sI262
S'                self.key_separator, self.item_separator, self.sort_keys,'
p3024
sI263
S'                self.skipkeys, _one_shot)'
p3025
sI264
S'        return _iterencode(o, 0)'
p3026
sI265
S''
sI266
S'def _make_iterencode(markers, _default, _encoder, _indent, _floatstr,'
p3027
sI267
S'        _key_separator, _item_separator, _sort_keys, _skipkeys, _one_shot,'
p3028
sI268
S'        ## HACK: hand-optimized bytecode; turn globals into locals'
p3029
ssg2883
S"(self=<json.encoder.JSONEncoder object>, o={'got_nodes': <bound method Tree.count_terminals of Tree(weight=1.0, rooted=False)>, 'vizFile': '_species_tree.txt', 'vizLabel': 'Phylotastic Species Tree'}, _one_shot=True)"
p3030
sg2885
S'iterencode'
p3031
sa(dp3032
g2862
S'/usr/lib/pymodules/python2.7/gluon/serializers.py'
p3033
sg2864
(dp3034
S'builtinrepr'
p3035
S'<built-in function repr>'
p3036
sS'builtinTypeError'
p3037
S"<type 'exceptions.TypeError'>"
p3038
sS'o'
S'<bound method Tree.count_terminals of Tree(weight=1.0, rooted=False)>'
p3039
ssg2870
I37
sg2871
(dp3040
I32
S"    elif hasattr(o,'as_list') and callable(o.as_list):"
p3041
sI33
S'        return o.as_list()'
p3042
sI34
S"    elif hasattr(o,'as_dict') and callable(o.as_dict):"
p3043
sI35
S'        return o.as_dict()'
p3044
sI36
S'    else:'
p3045
sI37
S'        raise TypeError(repr(o) + " is not JSON serializable")'
p3046
sI38
S''
sI39
S''
sI40
S'def xml_rec(value, key, quote=True):'
p3047
sI41
S"    if hasattr(value,'custom_xml') and callable(value.custom_xml):"
p3048
ssg2883
S'(o=<bound method Tree.count_terminals of Tree(weight=1.0, rooted=False)>)'
p3049
sg2885
S'custom_json'
p3050
sasS'pyver'
p3051
S'Python 2.7.3: /usr/bin/python'
p3052
sS'session'
p3053
g57
(g58
g59
NtRp3054
(dp3055
g62
(dp3056
sg64
(lp3057
g57
(g66
g59
NtRp3058
(dp3059
g62
(dp3060
g70
I5
ssg71
Nsg64
(lp3061
sbasbsS'etype'
p3062
S"<type 'exceptions.TypeError'>"
p3063
sS'date'
p3064
S'Fri May 17 13:41:17 2013'
p3065
sS'response'
p3066
g57
(g58
g59
NtRp3067
(dp3068
g62
(dp3069
sg64
(lp3070
g57
(g66
g59
NtRp3071
(dp3072
g62
(dp3073
g70
I5
ssg71
Nsg64
(lp3074
g57
(g73
g59
NtRp3075
(dp3076
g62
(dp3077
sg71
g3071
sg64
(lp3078
g57
(g78
g59
NtRp3079
(dp3080
g62
(dp3081
g82
g83
ssg71
g3075
sg64
(lp3082
g155
asbag57
(g78
g59
NtRp3083
(dp3084
g62
(dp3085
g89
g90
ssg71
g3075
sg64
(lp3086
S':'
asbag57
(g78
g59
NtRp3087
(dp3088
g62
(dp3089
sg71
g3075
sg64
(lp3090
g57
(g58
g59
NtRp3091
(dp3092
g62
(dp3093
g70
I5
ssg71
g3087
sg64
(lp3094
S'<cStringIO.StringO object at 0xaac193a0>'
p3095
asbasbasbag57
(g73
g59
NtRp3096
(dp3097
g62
(dp3098
sg71
g3071
sg64
(lp3099
g57
(g78
g59
NtRp3100
(dp3101
g62
(dp3102
g82
g83
ssg71
g3096
sg64
(lp3103
g221
asbag57
(g78
g59
NtRp3104
(dp3105
g62
(dp3106
g89
g90
ssg71
g3096
sg64
(lp3107
S':'
asbag57
(g78
g59
NtRp3108
(dp3109
g62
(dp3110
sg71
g3096
sg64
(lp3111
g57
(g58
g59
NtRp3112
(dp3113
g62
(dp3114
g70
I5
ssg71
g3108
sg64
(lp3115
g57
(g66
g59
NtRp3116
(dp3117
g62
(dp3118
g70
I4
ssg71
Nsg64
(lp3119
g57
(g73
g59
NtRp3120
(dp3121
g62
(dp3122
sg71
g3116
sg64
(lp3123
g57
(g78
g59
NtRp3124
(dp3125
g62
(dp3126
g82
g83
ssg71
g3120
sg64
(lp3127
S'session_id_phyloshiny'
p3128
asbag57
(g78
g59
NtRp3129
(dp3130
g62
(dp3131
g89
g90
ssg71
g3120
sg64
(lp3132
S':'
asbag57
(g78
g59
NtRp3133
(dp3134
g62
(dp3135
sg71
g3120
sg64
(lp3136
g57
(g58
g59
NtRp3137
(dp3138
g62
(dp3139
g70
I4
ssg71
g3133
sg64
(lp3140
g57
(g66
g59
NtRp3141
(dp3142
g62
(dp3143
g70
I3
ssg71
Nsg64
(lp3144
g57
(g73
g59
NtRp3145
(dp3146
g62
(dp3147
sg71
g3141
sg64
(lp3148
g57
(g78
g59
NtRp3149
(dp3150
g62
(dp3151
g82
g83
ssg71
g3145
sg64
(lp3152
g271
asbag57
(g78
g59
NtRp3153
(dp3154
g62
(dp3155
g89
g90
ssg71
g3145
sg64
(lp3156
S':'
asbag57
(g78
g59
NtRp3157
(dp3158
g62
(dp3159
sg71
g3145
sg64
(lp3160
g57
(g58
g59
NtRp3161
(dp3162
g62
(dp3163
g70
I3
ssg71
g3157
sg64
(lp3164
S''
asbasbasbag57
(g73
g59
NtRp3165
(dp3166
g62
(dp3167
sg71
g3141
sg64
(lp3168
g57
(g78
g59
NtRp3169
(dp3170
g62
(dp3171
g82
g83
ssg71
g3165
sg64
(lp3172
g292
asbag57
(g78
g59
NtRp3173
(dp3174
g62
(dp3175
g89
g90
ssg71
g3165
sg64
(lp3176
S':'
asbag57
(g78
g59
NtRp3177
(dp3178
g62
(dp3179
sg71
g3165
sg64
(lp3180
g57
(g58
g59
NtRp3181
(dp3182
g62
(dp3183
g70
I3
ssg71
g3177
sg64
(lp3184
S''
asbasbasbag57
(g73
g59
NtRp3185
(dp3186
g62
(dp3187
sg71
g3141
sg64
(lp3188
g57
(g78
g59
NtRp3189
(dp3190
g62
(dp3191
g82
g83
ssg71
g3185
sg64
(lp3192
g313
asbag57
(g78
g59
NtRp3193
(dp3194
g62
(dp3195
g89
g90
ssg71
g3185
sg64
(lp3196
S':'
asbag57
(g78
g59
NtRp3197
(dp3198
g62
(dp3199
sg71
g3185
sg64
(lp3200
g57
(g58
g59
NtRp3201
(dp3202
g62
(dp3203
g70
I3
ssg71
g3197
sg64
(lp3204
S''
asbasbasbag57
(g73
g59
NtRp3205
(dp3206
g62
(dp3207
sg71
g3141
sg64
(lp3208
g57
(g78
g59
NtRp3209
(dp3210
g62
(dp3211
g82
g83
ssg71
g3205
sg64
(lp3212
g334
asbag57
(g78
g59
NtRp3213
(dp3214
g62
(dp3215
g89
g90
ssg71
g3205
sg64
(lp3216
S':'
asbag57
(g78
g59
NtRp3217
(dp3218
g62
(dp3219
sg71
g3205
sg64
(lp3220
g57
(g58
g59
NtRp3221
(dp3222
g62
(dp3223
g70
I3
ssg71
g3217
sg64
(lp3224
S''
asbasbasbag57
(g73
g59
NtRp3225
(dp3226
g62
(dp3227
sg71
g3141
sg64
(lp3228
g57
(g78
g59
NtRp3229
(dp3230
g62
(dp3231
g82
g83
ssg71
g3225
sg64
(lp3232
g355
asbag57
(g78
g59
NtRp3233
(dp3234
g62
(dp3235
g89
g90
ssg71
g3225
sg64
(lp3236
S':'
asbag57
(g78
g59
NtRp3237
(dp3238
g62
(dp3239
sg71
g3225
sg64
(lp3240
g57
(g58
g59
NtRp3241
(dp3242
g62
(dp3243
g70
I3
ssg71
g3237
sg64
(lp3244
S''
asbasbasbag57
(g73
g59
NtRp3245
(dp3246
g62
(dp3247
sg71
g3141
sg64
(lp3248
g57
(g78
g59
NtRp3249
(dp3250
g62
(dp3251
g82
g83
ssg71
g3245
sg64
(lp3252
g376
asbag57
(g78
g59
NtRp3253
(dp3254
g62
(dp3255
g89
g90
ssg71
g3245
sg64
(lp3256
S':'
asbag57
(g78
g59
NtRp3257
(dp3258
g62
(dp3259
sg71
g3245
sg64
(lp3260
g57
(g58
g59
NtRp3261
(dp3262
g62
(dp3263
g70
I3
ssg71
g3257
sg64
(lp3264
S'/'
asbasbasbag57
(g73
g59
NtRp3265
(dp3266
g62
(dp3267
sg71
g3141
sg64
(lp3268
g57
(g78
g59
NtRp3269
(dp3270
g62
(dp3271
g82
g83
ssg71
g3265
sg64
(lp3272
g397
asbag57
(g78
g59
NtRp3273
(dp3274
g62
(dp3275
g89
g90
ssg71
g3265
sg64
(lp3276
S':'
asbag57
(g78
g59
NtRp3277
(dp3278
g62
(dp3279
sg71
g3265
sg64
(lp3280
g57
(g58
g59
NtRp3281
(dp3282
g62
(dp3283
g70
I3
ssg71
g3277
sg64
(lp3284
S''
asbasbasbag57
(g73
g59
NtRp3285
(dp3286
g62
(dp3287
sg71
g3141
sg64
(lp3288
g57
(g78
g59
NtRp3289
(dp3290
g62
(dp3291
g82
g83
ssg71
g3285
sg64
(lp3292
g418
asbag57
(g78
g59
NtRp3293
(dp3294
g62
(dp3295
g89
g90
ssg71
g3285
sg64
(lp3296
S':'
asbag57
(g78
g59
NtRp3297
(dp3298
g62
(dp3299
sg71
g3285
sg64
(lp3300
g57
(g58
g59
NtRp3301
(dp3302
g62
(dp3303
g70
I3
ssg71
g3297
sg64
(lp3304
S''
asbasbasbasbasbasbasbasbasbasbasbag57
(g73
g59
NtRp3305
(dp3306
g62
(dp3307
sg71
g3071
sg64
(lp3308
g57
(g78
g59
NtRp3309
(dp3310
g62
(dp3311
g82
g83
ssg71
g3305
sg64
(lp3312
S'files'
p3313
asbag57
(g78
g59
NtRp3314
(dp3315
g62
(dp3316
g89
g90
ssg71
g3305
sg64
(lp3317
S':'
asbag57
(g78
g59
NtRp3318
(dp3319
g62
(dp3320
sg71
g3305
sg64
(lp3321
g57
(g58
g59
NtRp3322
(dp3323
g62
(dp3324
g70
I5
ssg71
g3318
sg64
(lp3325
g57
(g66
g59
NtRp3326
(dp3327
g62
(dp3328
g70
I4
ssg71
Nsg64
(lp3329
sbasbasbasbag57
(g73
g59
NtRp3330
(dp3331
g62
(dp3332
sg71
g3071
sg64
(lp3333
g57
(g78
g59
NtRp3334
(dp3335
g62
(dp3336
g82
g83
ssg71
g3330
sg64
(lp3337
S'flash'
p3338
asbag57
(g78
g59
NtRp3339
(dp3340
g62
(dp3341
g89
g90
ssg71
g3330
sg64
(lp3342
S':'
asbag57
(g78
g59
NtRp3343
(dp3344
g62
(dp3345
sg71
g3330
sg64
(lp3346
g57
(g58
g59
NtRp3347
(dp3348
g62
(dp3349
g70
I5
ssg71
g3343
sg64
(lp3350
S''
asbasbasbag57
(g73
g59
NtRp3351
(dp3352
g62
(dp3353
sg71
g3071
sg64
(lp3354
g57
(g78
g59
NtRp3355
(dp3356
g62
(dp3357
g82
g83
ssg71
g3351
sg64
(lp3358
S'generic_patterns'
p3359
asbag57
(g78
g59
NtRp3360
(dp3361
g62
(dp3362
g89
g90
ssg71
g3351
sg64
(lp3363
S':'
asbag57
(g78
g59
NtRp3364
(dp3365
g62
(dp3366
sg71
g3351
sg64
(lp3367
g57
(g58
g59
NtRp3368
(dp3369
g62
(dp3370
g70
I5
ssg71
g3364
sg64
(lp3371
g57
(g66
g59
NtRp3372
(dp3373
g62
(dp3374
g70
I4
ssg71
Nsg64
(lp3375
g57
(g73
g59
NtRp3376
(dp3377
g62
(dp3378
sg71
g3372
sg64
(lp3379
g57
(g78
g59
NtRp3380
(dp3381
g62
(dp3382
sg71
g3376
sg64
(lp3383
g57
(g58
g59
NtRp3384
(dp3385
g62
(dp3386
g70
I4
ssg71
g3380
sg64
(lp3387
S'*'
asbasbasbasbasbasbasbag57
(g73
g59
NtRp3388
(dp3389
g62
(dp3390
sg71
g3071
sg64
(lp3391
g57
(g78
g59
NtRp3392
(dp3393
g62
(dp3394
g82
g83
ssg71
g3388
sg64
(lp3395
S'headers'
p3396
asbag57
(g78
g59
NtRp3397
(dp3398
g62
(dp3399
g89
g90
ssg71
g3388
sg64
(lp3400
S':'
asbag57
(g78
g59
NtRp3401
(dp3402
g62
(dp3403
sg71
g3388
sg64
(lp3404
g57
(g58
g59
NtRp3405
(dp3406
g62
(dp3407
g70
I5
ssg71
g3401
sg64
(lp3408
g57
(g66
g59
NtRp3409
(dp3410
g62
(dp3411
g70
I4
ssg71
Nsg64
(lp3412
g57
(g73
g59
NtRp3413
(dp3414
g62
(dp3415
sg71
g3409
sg64
(lp3416
g57
(g78
g59
NtRp3417
(dp3418
g62
(dp3419
g82
g83
ssg71
g3413
sg64
(lp3420
S'Cache-Control'
p3421
asbag57
(g78
g59
NtRp3422
(dp3423
g62
(dp3424
g89
g90
ssg71
g3413
sg64
(lp3425
S':'
asbag57
(g78
g59
NtRp3426
(dp3427
g62
(dp3428
sg71
g3413
sg64
(lp3429
g57
(g58
g59
NtRp3430
(dp3431
g62
(dp3432
g70
I4
ssg71
g3426
sg64
(lp3433
S'no-store, no-cache, must-revalidate, post-check=0, pre-check=0'
p3434
asbasbasbag57
(g73
g59
NtRp3435
(dp3436
g62
(dp3437
sg71
g3409
sg64
(lp3438
g57
(g78
g59
NtRp3439
(dp3440
g62
(dp3441
g82
g83
ssg71
g3435
sg64
(lp3442
S'Content-Type'
p3443
asbag57
(g78
g59
NtRp3444
(dp3445
g62
(dp3446
g89
g90
ssg71
g3435
sg64
(lp3447
S':'
asbag57
(g78
g59
NtRp3448
(dp3449
g62
(dp3450
sg71
g3435
sg64
(lp3451
g57
(g58
g59
NtRp3452
(dp3453
g62
(dp3454
g70
I4
ssg71
g3448
sg64
(lp3455
S'text/html; charset=utf-8'
p3456
asbasbasbag57
(g73
g59
NtRp3457
(dp3458
g62
(dp3459
sg71
g3409
sg64
(lp3460
g57
(g78
g59
NtRp3461
(dp3462
g62
(dp3463
g82
g83
ssg71
g3457
sg64
(lp3464
S'Expires'
p3465
asbag57
(g78
g59
NtRp3466
(dp3467
g62
(dp3468
g89
g90
ssg71
g3457
sg64
(lp3469
S':'
asbag57
(g78
g59
NtRp3470
(dp3471
g62
(dp3472
sg71
g3457
sg64
(lp3473
g57
(g58
g59
NtRp3474
(dp3475
g62
(dp3476
g70
I4
ssg71
g3470
sg64
(lp3477
S'Fri, 17 May 2013 08:11:06 GMT'
p3478
asbasbasbag57
(g73
g59
NtRp3479
(dp3480
g62
(dp3481
sg71
g3409
sg64
(lp3482
g57
(g78
g59
NtRp3483
(dp3484
g62
(dp3485
g82
g83
ssg71
g3479
sg64
(lp3486
S'Pragma'
p3487
asbag57
(g78
g59
NtRp3488
(dp3489
g62
(dp3490
g89
g90
ssg71
g3479
sg64
(lp3491
S':'
asbag57
(g78
g59
NtRp3492
(dp3493
g62
(dp3494
sg71
g3479
sg64
(lp3495
g57
(g58
g59
NtRp3496
(dp3497
g62
(dp3498
g70
I4
ssg71
g3492
sg64
(lp3499
S'no-cache'
p3500
asbasbasbag57
(g73
g59
NtRp3501
(dp3502
g62
(dp3503
sg71
g3409
sg64
(lp3504
g57
(g78
g59
NtRp3505
(dp3506
g62
(dp3507
g82
g83
ssg71
g3501
sg64
(lp3508
S'X-Powered-By'
p3509
asbag57
(g78
g59
NtRp3510
(dp3511
g62
(dp3512
g89
g90
ssg71
g3501
sg64
(lp3513
S':'
asbag57
(g78
g59
NtRp3514
(dp3515
g62
(dp3516
sg71
g3501
sg64
(lp3517
g57
(g58
g59
NtRp3518
(dp3519
g62
(dp3520
g70
I4
ssg71
g3514
sg64
(lp3521
S'web2py'
p3522
asbasbasbasbasbasbasbag57
(g73
g59
NtRp3523
(dp3524
g62
(dp3525
sg71
g3071
sg64
(lp3526
g57
(g78
g59
NtRp3527
(dp3528
g62
(dp3529
g82
g83
ssg71
g3523
sg64
(lp3530
S'menu'
p3531
asbag57
(g78
g59
NtRp3532
(dp3533
g62
(dp3534
g89
g90
ssg71
g3523
sg64
(lp3535
S':'
asbag57
(g78
g59
NtRp3536
(dp3537
g62
(dp3538
sg71
g3523
sg64
(lp3539
g57
(g58
g59
NtRp3540
(dp3541
g62
(dp3542
g70
I5
ssg71
g3536
sg64
(lp3543
g57
(g66
g59
NtRp3544
(dp3545
g62
(dp3546
g70
I4
ssg71
Nsg64
(lp3547
g57
(g73
g59
NtRp3548
(dp3549
g62
(dp3550
sg71
g3544
sg64
(lp3551
g57
(g78
g59
NtRp3552
(dp3553
g62
(dp3554
sg71
g3548
sg64
(lp3555
g57
(g58
g59
NtRp3556
(dp3557
g62
(dp3558
g70
I4
ssg71
g3552
sg64
(lp3559
g57
(g66
g59
NtRp3560
(dp3561
g62
(dp3562
g70
I3
ssg71
Nsg64
(lp3563
g57
(g73
g59
NtRp3564
(dp3565
g62
(dp3566
sg71
g3560
sg64
(lp3567
g57
(g78
g59
NtRp3568
(dp3569
g62
(dp3570
sg71
g3564
sg64
(lp3571
g57
(g58
g59
NtRp3572
(dp3573
g62
(dp3574
g70
I3
ssg71
g3568
sg64
(lp3575
cgluon.languages
lazyT_unpickle
p3576
(S't\x04\x00\x00\x00Home'
tRp3577
asbasbasbag57
(g73
g59
NtRp3578
(dp3579
g62
(dp3580
sg71
g3560
sg64
(lp3581
g57
(g78
g59
NtRp3582
(dp3583
g62
(dp3584
sg71
g3578
sg64
(lp3585
g57
(g58
g59
NtRp3586
(dp3587
g62
(dp3588
g70
I3
ssg71
g3582
sg64
(lp3589
g775
asbasbasbag57
(g73
g59
NtRp3590
(dp3591
g62
(dp3592
sg71
g3560
sg64
(lp3593
g57
(g78
g59
NtRp3594
(dp3595
g62
(dp3596
sg71
g3590
sg64
(lp3597
g57
(g58
g59
NtRp3598
(dp3599
g62
(dp3600
g70
I3
ssg71
g3594
sg64
(lp3601
S'/phyloShiny/default/index'
p3602
asbasbasbag57
(g73
g59
NtRp3603
(dp3604
g62
(dp3605
sg71
g3560
sg64
(lp3606
g57
(g78
g59
NtRp3607
(dp3608
g62
(dp3609
sg71
g3603
sg64
(lp3610
g57
(g58
g59
NtRp3611
(dp3612
g62
(dp3613
g70
I3
ssg71
g3607
sg64
(lp3614
g57
(g66
g59
NtRp3615
(dp3616
g62
(dp3617
g70
I2
ssg71
Nsg64
(lp3618
sbasbasbasbasbasbasbasbag57
(g73
g59
NtRp3619
(dp3620
g62
(dp3621
sg71
g3544
sg64
(lp3622
g57
(g78
g59
NtRp3623
(dp3624
g62
(dp3625
sg71
g3619
sg64
(lp3626
g57
(g58
g59
NtRp3627
(dp3628
g62
(dp3629
g70
I4
ssg71
g3623
sg64
(lp3630
g57
(g66
g59
NtRp3631
(dp3632
g62
(dp3633
g70
I3
ssg71
Nsg64
(lp3634
g57
(g73
g59
NtRp3635
(dp3636
g62
(dp3637
sg71
g3631
sg64
(lp3638
g57
(g78
g59
NtRp3639
(dp3640
g62
(dp3641
sg71
g3635
sg64
(lp3642
g57
(g58
g59
NtRp3643
(dp3644
g62
(dp3645
g70
I3
ssg71
g3639
sg64
(lp3646
g57
(cgluon.html
SPAN
p3647
g59
NtRp3648
(dp3649
g62
(dp3650
g82
S'color:yellow'
p3651
ssg71
Nsg64
(lp3652
g3522
asbasbasbasbag57
(g73
g59
NtRp3653
(dp3654
g62
(dp3655
sg71
g3631
sg64
(lp3656
g57
(g78
g59
NtRp3657
(dp3658
g62
(dp3659
sg71
g3653
sg64
(lp3660
g57
(g58
g59
NtRp3661
(dp3662
g62
(dp3663
g70
I3
ssg71
g3657
sg64
(lp3664
g775
asbasbasbag57
(g73
g59
NtRp3665
(dp3666
g62
(dp3667
sg71
g3631
sg64
(lp3668
g57
(g78
g59
NtRp3669
(dp3670
g62
(dp3671
sg71
g3665
sg64
(lp3672
g57
(g58
g59
NtRp3673
(dp3674
g62
(dp3675
g70
I3
ssg71
g3669
sg64
(lp3676
S'None'
p3677
asbasbasbag57
(g73
g59
NtRp3678
(dp3679
g62
(dp3680
sg71
g3631
sg64
(lp3681
g57
(g78
g59
NtRp3682
(dp3683
g62
(dp3684
sg71
g3678
sg64
(lp3685
g57
(g58
g59
NtRp3686
(dp3687
g62
(dp3688
g70
I3
ssg71
g3682
sg64
(lp3689
g57
(g66
g59
NtRp3690
(dp3691
g62
(dp3692
g70
I2
ssg71
Nsg64
(lp3693
g57
(g73
g59
NtRp3694
(dp3695
g62
(dp3696
sg71
g3690
sg64
(lp3697
g57
(g78
g59
NtRp3698
(dp3699
g62
(dp3700
sg71
g3694
sg64
(lp3701
g57
(g58
g59
NtRp3702
(dp3703
g62
(dp3704
g70
I2
ssg71
g3698
sg64
(lp3705
g57
(g66
g59
NtRp3706
(dp3707
g62
(dp3708
g70
I1
ssg71
Nsg64
(lp3709
g57
(g73
g59
NtRp3710
(dp3711
g62
(dp3712
sg71
g3706
sg64
(lp3713
g57
(g78
g59
NtRp3714
(dp3715
g62
(dp3716
sg71
g3710
sg64
(lp3717
g57
(g58
g59
NtRp3718
(dp3719
g62
(dp3720
g70
I1
ssg71
g3714
sg64
(lp3721
g3576
(S's\x08\x00\x00\x00My Sites'
tRp3722
asbasbasbag57
(g73
g59
NtRp3723
(dp3724
g62
(dp3725
sg71
g3706
sg64
(lp3726
g57
(g78
g59
NtRp3727
(dp3728
g62
(dp3729
sg71
g3723
sg64
(lp3730
g57
(g58
g59
NtRp3731
(dp3732
g62
(dp3733
g70
I1
ssg71
g3727
sg64
(lp3734
I00
asbasbasbag57
(g73
g59
NtRp3735
(dp3736
g62
(dp3737
sg71
g3706
sg64
(lp3738
g57
(g78
g59
NtRp3739
(dp3740
g62
(dp3741
sg71
g3735
sg64
(lp3742
g57
(g58
g59
NtRp3743
(dp3744
g62
(dp3745
g70
I1
ssg71
g3739
sg64
(lp3746
S'/admin/default/site'
p3747
asbasbasbasbasbasbasbag57
(g73
g59
NtRp3748
(dp3749
g62
(dp3750
sg71
g3690
sg64
(lp3751
g57
(g78
g59
NtRp3752
(dp3753
g62
(dp3754
sg71
g3748
sg64
(lp3755
g57
(g58
g59
NtRp3756
(dp3757
g62
(dp3758
g70
I2
ssg71
g3752
sg64
(lp3759
g57
(g66
g59
NtRp3760
(dp3761
g62
(dp3762
g70
I1
ssg71
Nsg64
(lp3763
g57
(g73
g59
NtRp3764
(dp3765
g62
(dp3766
sg71
g3760
sg64
(lp3767
g57
(g78
g59
NtRp3768
(dp3769
g62
(dp3770
sg71
g3764
sg64
(lp3771
g57
(g58
g59
NtRp3772
(dp3773
g62
(dp3774
g70
I1
ssg71
g3768
sg64
(lp3775
g3576
(S's\x08\x00\x00\x00This App'
tRp3776
asbasbasbag57
(g73
g59
NtRp3777
(dp3778
g62
(dp3779
sg71
g3760
sg64
(lp3780
g57
(g78
g59
NtRp3781
(dp3782
g62
(dp3783
sg71
g3777
sg64
(lp3784
g57
(g58
g59
NtRp3785
(dp3786
g62
(dp3787
g70
I1
ssg71
g3781
sg64
(lp3788
I00
asbasbasbag57
(g73
g59
NtRp3789
(dp3790
g62
(dp3791
sg71
g3760
sg64
(lp3792
g57
(g78
g59
NtRp3793
(dp3794
g62
(dp3795
sg71
g3789
sg64
(lp3796
g57
(g58
g59
NtRp3797
(dp3798
g62
(dp3799
g70
I1
ssg71
g3793
sg64
(lp3800
S'/admin/default/design/phyloShiny'
p3801
asbasbasbag57
(g73
g59
NtRp3802
(dp3803
g62
(dp3804
sg71
g3760
sg64
(lp3805
g57
(g78
g59
NtRp3806
(dp3807
g62
(dp3808
sg71
g3802
sg64
(lp3809
g57
(g58
g59
NtRp3810
(dp3811
g62
(dp3812
g70
I1
ssg71
g3806
sg64
(lp3813
(lp3814
(g3576
(S't\n\x00\x00\x00Controller'
tRp3815
I00
S'/admin/default/edit/phyloShiny/controllers/reconciliotastic.py'
tp3816
a(g3576
(S't\x04\x00\x00\x00View'
tRp3817
I00
S'/admin/default/edit/phyloShiny/views/reconciliotastic/getPhylotasticTree.html'
tp3818
a(g3576
(S't\x06\x00\x00\x00Layout'
tRp3819
I00
S'/admin/default/edit/phyloShiny/views/layout.html'
tp3820
a(g3576
(S't\n\x00\x00\x00Stylesheet'
tRp3821
I00
S'/admin/default/edit/phyloShiny/static/css/web2py.css'
tp3822
a(g3576
(S's\x08\x00\x00\x00DB Model'
tRp3823
I00
S'/admin/default/edit/phyloShiny/models/db.py'
tp3824
a(g3576
(S's\n\x00\x00\x00Menu Model'
tRp3825
I00
S'/admin/default/edit/phyloShiny/models/menu.py'
tp3826
a(g3576
(S't\x08\x00\x00\x00Database'
tRp3827
I00
S'/phyloShiny/appadmin/index'
tp3828
a(g3576
(S't\x06\x00\x00\x00Errors'
tRp3829
I00
S'/admin/default/errors/phyloShiny'
tp3830
a(g3576
(S't\x05\x00\x00\x00About'
tRp3831
I00
S'/admin/default/about/phyloShiny'
tp3832
aasbasbasbasbasbasbasbag57
(g73
g59
NtRp3833
(dp3834
g62
(dp3835
sg71
g3690
sg64
(lp3836
g57
(g78
g59
NtRp3837
(dp3838
g62
(dp3839
sg71
g3833
sg64
(lp3840
g57
(g58
g59
NtRp3841
(dp3842
g62
(dp3843
g70
I2
ssg71
g3837
sg64
(lp3844
g57
(g66
g59
NtRp3845
(dp3846
g62
(dp3847
g70
I1
ssg71
Nsg64
(lp3848
g57
(g73
g59
NtRp3849
(dp3850
g62
(dp3851
sg71
g3845
sg64
(lp3852
g57
(g78
g59
NtRp3853
(dp3854
g62
(dp3855
sg71
g3849
sg64
(lp3856
g57
(g58
g59
NtRp3857
(dp3858
g62
(dp3859
g70
I1
ssg71
g3853
sg64
(lp3860
S'web2py.com'
p3861
asbasbasbag57
(g73
g59
NtRp3862
(dp3863
g62
(dp3864
sg71
g3845
sg64
(lp3865
g57
(g78
g59
NtRp3866
(dp3867
g62
(dp3868
sg71
g3862
sg64
(lp3869
g57
(g58
g59
NtRp3870
(dp3871
g62
(dp3872
g70
I1
ssg71
g3866
sg64
(lp3873
I00
asbasbasbag57
(g73
g59
NtRp3874
(dp3875
g62
(dp3876
sg71
g3845
sg64
(lp3877
g57
(g78
g59
NtRp3878
(dp3879
g62
(dp3880
sg71
g3874
sg64
(lp3881
g57
(g58
g59
NtRp3882
(dp3883
g62
(dp3884
g70
I1
ssg71
g3878
sg64
(lp3885
S'http://www.web2py.com'
p3886
asbasbasbag57
(g73
g59
NtRp3887
(dp3888
g62
(dp3889
sg71
g3845
sg64
(lp3890
g57
(g78
g59
NtRp3891
(dp3892
g62
(dp3893
sg71
g3887
sg64
(lp3894
g57
(g58
g59
NtRp3895
(dp3896
g62
(dp3897
g70
I1
ssg71
g3891
sg64
(lp3898
(lp3899
(g3576
(S't\x08\x00\x00\x00Download'
tRp3900
I00
S'http://www.web2py.com/examples/default/download'
p3901
tp3902
a(g3576
(S't\x07\x00\x00\x00Support'
tRp3903
I00
S'http://www.web2py.com/examples/default/support'
p3904
tp3905
a(g3576
(S't\x04\x00\x00\x00Demo'
tRp3906
I00
S'http://web2py.com/demo_admin'
p3907
tp3908
a(g3576
(S's\x0e\x00\x00\x00Quick Examples'
tRp3909
I00
S'http://web2py.com/examples/default/examples'
p3910
tp3911
a(g3576
(S't\x03\x00\x00\x00FAQ'
tRp3912
I00
S'http://web2py.com/AlterEgo'
p3913
tp3914
a(g3576
(S't\x06\x00\x00\x00Videos'
tRp3915
I00
S'http://www.web2py.com/examples/default/videos/'
p3916
tp3917
a(g3576
(S's\x11\x00\x00\x00Free Applications'
tRp3918
I00
S'http://web2py.com/appliances'
p3919
tp3920
a(g3576
(S't\x07\x00\x00\x00Plugins'
tRp3921
I00
S'http://web2py.com/plugins'
p3922
tp3923
a(g3576
(S't\x07\x00\x00\x00Layouts'
tRp3924
I00
S'http://web2py.com/layouts'
p3925
tp3926
a(g3576
(S't\x07\x00\x00\x00Recipes'
tRp3927
I00
S'http://web2pyslices.com/'
p3928
tp3929
a(g3576
(S't\x08\x00\x00\x00Semantic'
tRp3930
I00
S'http://web2py.com/semantic'
p3931
tp3932
aasbasbasbasbasbasbasbag57
(g73
g59
NtRp3933
(dp3934
g62
(dp3935
sg71
g3690
sg64
(lp3936
g57
(g78
g59
NtRp3937
(dp3938
g62
(dp3939
sg71
g3933
sg64
(lp3940
g57
(g58
g59
NtRp3941
(dp3942
g62
(dp3943
g70
I2
ssg71
g3937
sg64
(lp3944
g57
(g66
g59
NtRp3945
(dp3946
g62
(dp3947
g70
I1
ssg71
Nsg64
(lp3948
g57
(g73
g59
NtRp3949
(dp3950
g62
(dp3951
sg71
g3945
sg64
(lp3952
g57
(g78
g59
NtRp3953
(dp3954
g62
(dp3955
sg71
g3949
sg64
(lp3956
g57
(g58
g59
NtRp3957
(dp3958
g62
(dp3959
g70
I1
ssg71
g3953
sg64
(lp3960
g3576
(S't\r\x00\x00\x00Documentation'
tRp3961
asbasbasbag57
(g73
g59
NtRp3962
(dp3963
g62
(dp3964
sg71
g3945
sg64
(lp3965
g57
(g78
g59
NtRp3966
(dp3967
g62
(dp3968
sg71
g3962
sg64
(lp3969
g57
(g58
g59
NtRp3970
(dp3971
g62
(dp3972
g70
I1
ssg71
g3966
sg64
(lp3973
I00
asbasbasbag57
(g73
g59
NtRp3974
(dp3975
g62
(dp3976
sg71
g3945
sg64
(lp3977
g57
(g78
g59
NtRp3978
(dp3979
g62
(dp3980
sg71
g3974
sg64
(lp3981
g57
(g58
g59
NtRp3982
(dp3983
g62
(dp3984
g70
I1
ssg71
g3978
sg64
(lp3985
S'http://www.web2py.com/book'
p3986
asbasbasbag57
(g73
g59
NtRp3987
(dp3988
g62
(dp3989
sg71
g3945
sg64
(lp3990
g57
(g78
g59
NtRp3991
(dp3992
g62
(dp3993
sg71
g3987
sg64
(lp3994
g57
(g58
g59
NtRp3995
(dp3996
g62
(dp3997
g70
I1
ssg71
g3991
sg64
(lp3998
(lp3999
(g3576
(S't\x07\x00\x00\x00Preface'
tRp4000
I00
S'http://www.web2py.com/book/default/chapter/00'
p4001
tp4002
a(g3576
(S't\x0c\x00\x00\x00Introduction'
tRp4003
I00
S'http://www.web2py.com/book/default/chapter/01'
p4004
tp4005
a(g3576
(S't\x06\x00\x00\x00Python'
tRp4006
I00
S'http://www.web2py.com/book/default/chapter/02'
p4007
tp4008
a(g3576
(S't\x08\x00\x00\x00Overview'
tRp4009
I00
S'http://www.web2py.com/book/default/chapter/03'
p4010
tp4011
a(g3576
(S's\x08\x00\x00\x00The Core'
tRp4012
I00
S'http://www.web2py.com/book/default/chapter/04'
p4013
tp4014
a(g3576
(S's\t\x00\x00\x00The Views'
tRp4015
I00
S'http://www.web2py.com/book/default/chapter/05'
p4016
tp4017
a(g3576
(S't\x08\x00\x00\x00Database'
tRp4018
I00
S'http://www.web2py.com/book/default/chapter/06'
p4019
tp4020
a(g3576
(S's\x14\x00\x00\x00Forms and Validators'
tRp4021
I00
S'http://www.web2py.com/book/default/chapter/07'
p4022
tp4023
a(g3576
(S's\r\x00\x00\x00Email and SMS'
tRp4024
I00
S'http://www.web2py.com/book/default/chapter/08'
p4025
tp4026
a(g3576
(S's\x0e\x00\x00\x00Access Control'
tRp4027
I00
S'http://www.web2py.com/book/default/chapter/09'
p4028
tp4029
a(g3576
(S't\x08\x00\x00\x00Services'
tRp4030
I00
S'http://www.web2py.com/book/default/chapter/10'
p4031
tp4032
a(g3576
(S's\x0c\x00\x00\x00Ajax Recipes'
tRp4033
I00
S'http://www.web2py.com/book/default/chapter/11'
p4034
tp4035
a(g3576
(S's\x16\x00\x00\x00Components and Plugins'
tRp4036
I00
S'http://www.web2py.com/book/default/chapter/12'
p4037
tp4038
a(g3576
(S's\x12\x00\x00\x00Deployment Recipes'
tRp4039
I00
S'http://www.web2py.com/book/default/chapter/13'
p4040
tp4041
a(g3576
(S's\r\x00\x00\x00Other Recipes'
tRp4042
I00
S'http://www.web2py.com/book/default/chapter/14'
p4043
tp4044
a(g3576
(S's\r\x00\x00\x00Buy this book'
tRp4045
I00
S'http://stores.lulu.com/web2py'
p4046
tp4047
aasbasbasbasbasbasbasbag57
(g73
g59
NtRp4048
(dp4049
g62
(dp4050
sg71
g3690
sg64
(lp4051
g57
(g78
g59
NtRp4052
(dp4053
g62
(dp4054
sg71
g4048
sg64
(lp4055
g57
(g58
g59
NtRp4056
(dp4057
g62
(dp4058
g70
I2
ssg71
g4052
sg64
(lp4059
g57
(g66
g59
NtRp4060
(dp4061
g62
(dp4062
g70
I1
ssg71
Nsg64
(lp4063
g57
(g73
g59
NtRp4064
(dp4065
g62
(dp4066
sg71
g4060
sg64
(lp4067
g57
(g78
g59
NtRp4068
(dp4069
g62
(dp4070
sg71
g4064
sg64
(lp4071
g57
(g58
g59
NtRp4072
(dp4073
g62
(dp4074
g70
I1
ssg71
g4068
sg64
(lp4075
g3576
(S't\t\x00\x00\x00Community'
tRp4076
asbasbasbag57
(g73
g59
NtRp4077
(dp4078
g62
(dp4079
sg71
g4060
sg64
(lp4080
g57
(g78
g59
NtRp4081
(dp4082
g62
(dp4083
sg71
g4077
sg64
(lp4084
g57
(g58
g59
NtRp4085
(dp4086
g62
(dp4087
g70
I1
ssg71
g4081
sg64
(lp4088
I00
asbasbasbag57
(g73
g59
NtRp4089
(dp4090
g62
(dp4091
sg71
g4060
sg64
(lp4092
g57
(g78
g59
NtRp4093
(dp4094
g62
(dp4095
sg71
g4089
sg64
(lp4096
g57
(g58
g59
NtRp4097
(dp4098
g62
(dp4099
g70
I1
ssg71
g4093
sg64
(lp4100
Nasbasbasbag57
(g73
g59
NtRp4101
(dp4102
g62
(dp4103
sg71
g4060
sg64
(lp4104
g57
(g78
g59
NtRp4105
(dp4106
g62
(dp4107
sg71
g4101
sg64
(lp4108
g57
(g58
g59
NtRp4109
(dp4110
g62
(dp4111
g70
I1
ssg71
g4105
sg64
(lp4112
(lp4113
(g3576
(S't\x06\x00\x00\x00Groups'
tRp4114
I00
S'http://www.web2py.com/examples/default/usergroups'
p4115
tp4116
a(g3576
(S't\x07\x00\x00\x00Twitter'
tRp4117
I00
S'http://twitter.com/web2py'
p4118
tp4119
a(g3576
(S's\t\x00\x00\x00Live Chat'
tRp4120
I00
S'http://webchat.freenode.net/?channels=web2py'
p4121
tp4122
aasbasbasbasbasbasbasbag57
(g73
g59
NtRp4123
(dp4124
g62
(dp4125
sg71
g3690
sg64
(lp4126
g57
(g78
g59
NtRp4127
(dp4128
g62
(dp4129
sg71
g4123
sg64
(lp4130
g57
(g58
g59
NtRp4131
(dp4132
g62
(dp4133
g70
I2
ssg71
g4127
sg64
(lp4134
g57
(g66
g59
NtRp4135
(dp4136
g62
(dp4137
g70
I1
ssg71
Nsg64
(lp4138
g57
(g73
g59
NtRp4139
(dp4140
g62
(dp4141
sg71
g4135
sg64
(lp4142
g57
(g78
g59
NtRp4143
(dp4144
g62
(dp4145
sg71
g4139
sg64
(lp4146
g57
(g58
g59
NtRp4147
(dp4148
g62
(dp4149
g70
I1
ssg71
g4143
sg64
(lp4150
g3576
(S't\x07\x00\x00\x00Plugins'
tRp4151
asbasbasbag57
(g73
g59
NtRp4152
(dp4153
g62
(dp4154
sg71
g4135
sg64
(lp4155
g57
(g78
g59
NtRp4156
(dp4157
g62
(dp4158
sg71
g4152
sg64
(lp4159
g57
(g58
g59
NtRp4160
(dp4161
g62
(dp4162
g70
I1
ssg71
g4156
sg64
(lp4163
I00
asbasbasbag57
(g73
g59
NtRp4164
(dp4165
g62
(dp4166
sg71
g4135
sg64
(lp4167
g57
(g78
g59
NtRp4168
(dp4169
g62
(dp4170
sg71
g4164
sg64
(lp4171
g57
(g58
g59
NtRp4172
(dp4173
g62
(dp4174
g70
I1
ssg71
g4168
sg64
(lp4175
Nasbasbasbag57
(g73
g59
NtRp4176
(dp4177
g62
(dp4178
sg71
g4135
sg64
(lp4179
g57
(g78
g59
NtRp4180
(dp4181
g62
(dp4182
sg71
g4176
sg64
(lp4183
g57
(g58
g59
NtRp4184
(dp4185
g62
(dp4186
g70
I1
ssg71
g4180
sg64
(lp4187
(lp4188
(S'plugin_wiki'
p4189
I00
S'http://web2py.com/examples/default/download'
p4190
tp4191
a(g3576
(S's\r\x00\x00\x00Other Plugins'
tRp4192
I00
g3922
tp4193
a(g3576
(S's\x0e\x00\x00\x00Layout Plugins'
tRp4194
I00
g3925
tp4195
aasbasbasbasbasbasbasbasbasbasbasbasbasbasbasbasbasbasbasbag57
(g73
g59
NtRp4196
(dp4197
g62
(dp4198
sg71
g3071
sg64
(lp4199
g57
(g78
g59
NtRp4200
(dp4201
g62
(dp4202
g82
g83
ssg71
g4196
sg64
(lp4203
S'meta'
p4204
asbag57
(g78
g59
NtRp4205
(dp4206
g62
(dp4207
g89
g90
ssg71
g4196
sg64
(lp4208
S':'
asbag57
(g78
g59
NtRp4209
(dp4210
g62
(dp4211
sg71
g4196
sg64
(lp4212
g57
(g58
g59
NtRp4213
(dp4214
g62
(dp4215
g70
I5
ssg71
g4209
sg64
(lp4216
g57
(g66
g59
NtRp4217
(dp4218
g62
(dp4219
g70
I4
ssg71
Nsg64
(lp4220
g57
(g73
g59
NtRp4221
(dp4222
g62
(dp4223
sg71
g4217
sg64
(lp4224
g57
(g78
g59
NtRp4225
(dp4226
g62
(dp4227
g82
g83
ssg71
g4221
sg64
(lp4228
S'author'
p4229
asbag57
(g78
g59
NtRp4230
(dp4231
g62
(dp4232
g89
g90
ssg71
g4221
sg64
(lp4233
S':'
asbag57
(g78
g59
NtRp4234
(dp4235
g62
(dp4236
sg71
g4221
sg64
(lp4237
g57
(g58
g59
NtRp4238
(dp4239
g62
(dp4240
g70
I4
ssg71
g4234
sg64
(lp4241
S'Your Name <you@example.com>'
p4242
asbasbasbag57
(g73
g59
NtRp4243
(dp4244
g62
(dp4245
sg71
g4217
sg64
(lp4246
g57
(g78
g59
NtRp4247
(dp4248
g62
(dp4249
g82
g83
ssg71
g4243
sg64
(lp4250
S'copyright'
p4251
asbag57
(g78
g59
NtRp4252
(dp4253
g62
(dp4254
g89
g90
ssg71
g4243
sg64
(lp4255
S':'
asbag57
(g78
g59
NtRp4256
(dp4257
g62
(dp4258
sg71
g4243
sg64
(lp4259
g57
(g58
g59
NtRp4260
(dp4261
g62
(dp4262
g70
I4
ssg71
g4256
sg64
(lp4263
S'Copyright 2011'
p4264
asbasbasbag57
(g73
g59
NtRp4265
(dp4266
g62
(dp4267
sg71
g4217
sg64
(lp4268
g57
(g78
g59
NtRp4269
(dp4270
g62
(dp4271
g82
g83
ssg71
g4265
sg64
(lp4272
S'description'
p4273
asbag57
(g78
g59
NtRp4274
(dp4275
g62
(dp4276
g89
g90
ssg71
g4265
sg64
(lp4277
S':'
asbag57
(g78
g59
NtRp4278
(dp4279
g62
(dp4280
sg71
g4265
sg64
(lp4281
g57
(g58
g59
NtRp4282
(dp4283
g62
(dp4284
g70
I4
ssg71
g4278
sg64
(lp4285
S'a cool new app'
p4286
asbasbasbag57
(g73
g59
NtRp4287
(dp4288
g62
(dp4289
sg71
g4217
sg64
(lp4290
g57
(g78
g59
NtRp4291
(dp4292
g62
(dp4293
g82
g83
ssg71
g4287
sg64
(lp4294
S'generator'
p4295
asbag57
(g78
g59
NtRp4296
(dp4297
g62
(dp4298
g89
g90
ssg71
g4287
sg64
(lp4299
S':'
asbag57
(g78
g59
NtRp4300
(dp4301
g62
(dp4302
sg71
g4287
sg64
(lp4303
g57
(g58
g59
NtRp4304
(dp4305
g62
(dp4306
g70
I4
ssg71
g4300
sg64
(lp4307
S'Web2py Web Framework'
p4308
asbasbasbag57
(g73
g59
NtRp4309
(dp4310
g62
(dp4311
sg71
g4217
sg64
(lp4312
g57
(g78
g59
NtRp4313
(dp4314
g62
(dp4315
g82
g83
ssg71
g4309
sg64
(lp4316
S'keywords'
p4317
asbag57
(g78
g59
NtRp4318
(dp4319
g62
(dp4320
g89
g90
ssg71
g4309
sg64
(lp4321
S':'
asbag57
(g78
g59
NtRp4322
(dp4323
g62
(dp4324
sg71
g4309
sg64
(lp4325
g57
(g58
g59
NtRp4326
(dp4327
g62
(dp4328
g70
I4
ssg71
g4322
sg64
(lp4329
S'web2py, python, framework'
p4330
asbasbasbasbasbasbasbag57
(g73
g59
NtRp4331
(dp4332
g62
(dp4333
sg71
g3071
sg64
(lp4334
g57
(g78
g59
NtRp4335
(dp4336
g62
(dp4337
g82
g83
ssg71
g4331
sg64
(lp4338
S'postprocessing'
p4339
asbag57
(g78
g59
NtRp4340
(dp4341
g62
(dp4342
g89
g90
ssg71
g4331
sg64
(lp4343
S':'
asbag57
(g78
g59
NtRp4344
(dp4345
g62
(dp4346
sg71
g4331
sg64
(lp4347
g57
(g58
g59
NtRp4348
(dp4349
g62
(dp4350
g70
I5
ssg71
g4344
sg64
(lp4351
g57
(g66
g59
NtRp4352
(dp4353
g62
(dp4354
g70
I4
ssg71
Nsg64
(lp4355
sbasbasbasbag57
(g73
g59
NtRp4356
(dp4357
g62
(dp4358
sg71
g3071
sg64
(lp4359
g57
(g78
g59
NtRp4360
(dp4361
g62
(dp4362
g82
g83
ssg71
g4356
sg64
(lp4363
S'session_filename'
p4364
asbag57
(g78
g59
NtRp4365
(dp4366
g62
(dp4367
g89
g90
ssg71
g4356
sg64
(lp4368
S':'
asbag57
(g78
g59
NtRp4369
(dp4370
g62
(dp4371
sg71
g4356
sg64
(lp4372
g57
(g58
g59
NtRp4373
(dp4374
g62
(dp4375
g70
I5
ssg71
g4369
sg64
(lp4376
S'/home/prateek/web2py/applications/phyloShiny/sessions/127.0.0.1-8ab801bd-cffd-4b8a-884f-21ca4ce21435'
p4377
asbasbasbag57
(g73
g59
NtRp4378
(dp4379
g62
(dp4380
sg71
g3071
sg64
(lp4381
g57
(g78
g59
NtRp4382
(dp4383
g62
(dp4384
g82
g83
ssg71
g4378
sg64
(lp4385
S'session_id'
p4386
asbag57
(g78
g59
NtRp4387
(dp4388
g62
(dp4389
g89
g90
ssg71
g4378
sg64
(lp4390
S':'
asbag57
(g78
g59
NtRp4391
(dp4392
g62
(dp4393
sg71
g4378
sg64
(lp4394
g57
(g58
g59
NtRp4395
(dp4396
g62
(dp4397
g70
I5
ssg71
g4391
sg64
(lp4398
S'127.0.0.1-8ab801bd-cffd-4b8a-884f-21ca4ce21435'
p4399
asbasbasbag57
(g73
g59
NtRp4400
(dp4401
g62
(dp4402
sg71
g3071
sg64
(lp4403
g57
(g78
g59
NtRp4404
(dp4405
g62
(dp4406
g82
g83
ssg71
g4400
sg64
(lp4407
S'session_id_name'
p4408
asbag57
(g78
g59
NtRp4409
(dp4410
g62
(dp4411
g89
g90
ssg71
g4400
sg64
(lp4412
S':'
asbag57
(g78
g59
NtRp4413
(dp4414
g62
(dp4415
sg71
g4400
sg64
(lp4416
g57
(g58
g59
NtRp4417
(dp4418
g62
(dp4419
g70
I5
ssg71
g4413
sg64
(lp4420
g3128
asbasbasbag57
(g73
g59
NtRp4421
(dp4422
g62
(dp4423
sg71
g3071
sg64
(lp4424
g57
(g78
g59
NtRp4425
(dp4426
g62
(dp4427
g82
g83
ssg71
g4421
sg64
(lp4428
S'session_new'
p4429
asbag57
(g78
g59
NtRp4430
(dp4431
g62
(dp4432
g89
g90
ssg71
g4421
sg64
(lp4433
S':'
asbag57
(g78
g59
NtRp4434
(dp4435
g62
(dp4436
sg71
g4421
sg64
(lp4437
g57
(g58
g59
NtRp4438
(dp4439
g62
(dp4440
g70
I5
ssg71
g4434
sg64
(lp4441
g100
asbasbasbag57
(g73
g59
NtRp4442
(dp4443
g62
(dp4444
sg71
g3071
sg64
(lp4445
g57
(g78
g59
NtRp4446
(dp4447
g62
(dp4448
g82
g83
ssg71
g4442
sg64
(lp4449
S'status'
p4450
asbag57
(g78
g59
NtRp4451
(dp4452
g62
(dp4453
g89
g90
ssg71
g4442
sg64
(lp4454
S':'
asbag57
(g78
g59
NtRp4455
(dp4456
g62
(dp4457
sg71
g4442
sg64
(lp4458
g57
(g58
g59
NtRp4459
(dp4460
g62
(dp4461
g70
I5
ssg71
g4455
sg64
(lp4462
S'200'
p4463
asbasbasbag57
(g73
g59
NtRp4464
(dp4465
g62
(dp4466
sg71
g3071
sg64
(lp4467
g57
(g78
g59
NtRp4468
(dp4469
g62
(dp4470
g82
g83
ssg71
g4464
sg64
(lp4471
S'subtitle'
p4472
asbag57
(g78
g59
NtRp4473
(dp4474
g62
(dp4475
g89
g90
ssg71
g4464
sg64
(lp4476
S':'
asbag57
(g78
g59
NtRp4477
(dp4478
g62
(dp4479
sg71
g4464
sg64
(lp4480
g57
(g58
g59
NtRp4481
(dp4482
g62
(dp4483
g70
I5
ssg71
g4477
sg64
(lp4484
g3576
(S's\r\x00\x00\x00customize me!'
tRp4485
asbasbasbag57
(g73
g59
NtRp4486
(dp4487
g62
(dp4488
sg71
g3071
sg64
(lp4489
g57
(g78
g59
NtRp4490
(dp4491
g62
(dp4492
g82
g83
ssg71
g4486
sg64
(lp4493
S'title'
p4494
asbag57
(g78
g59
NtRp4495
(dp4496
g62
(dp4497
g89
g90
ssg71
g4486
sg64
(lp4498
S':'
asbag57
(g78
g59
NtRp4499
(dp4500
g62
(dp4501
sg71
g4486
sg64
(lp4502
g57
(g58
g59
NtRp4503
(dp4504
g62
(dp4505
g70
I5
ssg71
g4499
sg64
(lp4506
S'Phyloshiny'
p4507
asbasbasbag57
(g73
g59
NtRp4508
(dp4509
g62
(dp4510
sg71
g3071
sg64
(lp4511
g57
(g78
g59
NtRp4512
(dp4513
g62
(dp4514
g82
g83
ssg71
g4508
sg64
(lp4515
g2180
asbag57
(g78
g59
NtRp4516
(dp4517
g62
(dp4518
g89
g90
ssg71
g4508
sg64
(lp4519
S':'
asbag57
(g78
g59
NtRp4520
(dp4521
g62
(dp4522
sg71
g4508
sg64
(lp4523
g57
(g58
g59
NtRp4524
(dp4525
g62
(dp4526
g70
I5
ssg71
g4520
sg64
(lp4527
g2193
asbasbasbag57
(g73
g59
NtRp4528
(dp4529
g62
(dp4530
sg71
g3071
sg64
(lp4531
g57
(g78
g59
NtRp4532
(dp4533
g62
(dp4534
g82
g83
ssg71
g4528
sg64
(lp4535
S'view'
p4536
asbag57
(g78
g59
NtRp4537
(dp4538
g62
(dp4539
g89
g90
ssg71
g4528
sg64
(lp4540
S':'
asbag57
(g78
g59
NtRp4541
(dp4542
g62
(dp4543
sg71
g4528
sg64
(lp4544
g57
(g58
g59
NtRp4545
(dp4546
g62
(dp4547
g70
I5
ssg71
g4541
sg64
(lp4548
S'reconciliotastic/getPhylotasticTree.html'
p4549
asbasbasbasbasbsS'locals'
p4550
(dp4551
S'o'
S'<bound method Tree.count_terminals of Tree(weight=1.0, rooted=False)>'
p4552
sssS'traceback'
p4553
S'Traceback (most recent call last):\n  File "/usr/lib/pymodules/python2.7/gluon/restricted.py", line 204, in restricted\n    exec ccode in environment\n  File "/home/prateek/web2py/applications/phyloShiny/controllers/reconciliotastic.py", line 178, in <module>\n  File "/usr/lib/pymodules/python2.7/gluon/globals.py", line 172, in <lambda>\n    self._caller = lambda f: f()\n  File "/home/prateek/web2py/applications/phyloShiny/controllers/reconciliotastic.py", line 140, in getPhylotasticTree\n    got_nodes=got_nodes\n  File "/usr/lib/pymodules/python2.7/gluon/globals.py", line 338, in json\n    return json(data, default = default or custom_json)\n  File "/usr/lib/pymodules/python2.7/gluon/serializers.py", line 61, in json\n    return json_parser.dumps(value,default=default)\n  File "/usr/lib/python2.7/json/__init__.py", line 238, in dumps\n    **kw).encode(obj)\n  File "/usr/lib/python2.7/json/encoder.py", line 201, in encode\n    chunks = self.iterencode(o, _one_shot=True)\n  File "/usr/lib/python2.7/json/encoder.py", line 264, in iterencode\n    return _iterencode(o, 0)\n  File "/usr/lib/pymodules/python2.7/gluon/serializers.py", line 37, in custom_json\n    raise TypeError(repr(o) + " is not JSON serializable")\nTypeError: <bound method Tree.count_terminals of Tree(weight=1.0, rooted=False)> is not JSON serializable\n'
p4554
s.