(dp1
S'output'
p2
S"<type 'exceptions.IOError'> [Errno 2] No such file or directory: 'speciesTreeFilename'"
p3
sS'layer'
p4
S'/home/prateek/web2py/applications/phyloShiny/controllers/reconciliotastic.py'
p5
sS'code'
p6
S'# -*- coding: utf-8 -*-\n# this file is released under public domain and you can use without limitations\n\n#########################################################################\n## This is a sample controller\n## - index is the default action of any application\n## - user is required for authentication and authorization\n## - download is for downloading files uploaded in the db (does streaming)\n## - call exposes all registered services (none by default)\n#########################################################################\nimport os\nimport socket\nimport urllib2\nfrom gluon import *\nfrom Bio import Phylo\t\nfrom Bio.Phylo import Newick\t\t\t\t\t \t\t#import biopython modules as per requirement \n\ndef index():\n    rootFolder = current.request.folder\n    folders = os.listdir(rootFolder+\'static/sample_data/\')\n\n    # Go through the subfolders within sample_data, only keep folders\n    # that match \'demo\'\n    folders = [x.split(\'_\',1)[1] for x in folders if x.split(\'_\')[0] == \'demo\']\n    folderLabels = [x.replace(\'_\', \' \') for x in folders]\n\n    # Return a list of tuples, like [ [\'Mammal_Hemoglobin\', \'Mammal Hemoglobin\'] , ... ]\n    # This lets us have nice display names in the <select> element in the view.\n    foldersAndLabels = zip(folders, folderLabels)\n    return dict(foldersAndLabels=foldersAndLabels)\n\ndef getFileName():\n    # Returns the absolute filename for the "input" gene tree\n    # file. Uses the treeFileName request parameter, as that\'s our\n    # main state-tracking value passed between the view and controller\n    # between each step.\n    rootFolder = current.request.folder\n    absoluteFileName = rootFolder+current.request.vars.treeFileName\n    return absoluteFileName\n\ndef getRelativeWebPath(suffix):\n    # Currently a no-op.\n    return suffix\n\ndef visualize():\n    # Visualize controller. Does some preprocessing before generating\n    # the HTML for viewing a given tree.\n\n    # Takes in the \'treeName\' and \'file\' params, and creates the URL\n    # which can be used to access / download the given tree file. This\n    # is only really necessary because the <applet> tag requires a\n    # parameter, which is then sent to Archaeopteryx, that requires\n    # the *entire* URL of the tree to load. With a non-applet based\n    # visualization this wouldn\'t be an issue.\n    treeFile = current.request.vars.treeName\n    suffix = current.request.vars.file\n\n    # Use the request http_host.\n    hostname = current.request.env.http_host\n\n    # Toggle to phylotastic URL if we detect a NESCENT socket host.\n    socket_hostname = socket.gethostname()\n    if \'phylotastic\' in socket_hostname.lower():\n        hostname = \'phylotastic.nescent.org\'\n\n    treeUrl = URL(\'static\', \'sample_data/demo_\'+treeFile+\'/input_genetree.nwk\'+suffix,\n                 scheme=\'http\', host=hostname)\n\n    return dict(treeUrl=treeUrl,\n                header=current.request.vars.header)\n\ndef getSpeciesList():\n    # Absolute file name of the input tree file.\n    absoluteFileName = getFileName()\n    # "Prefix", i.e. the input tree file without the ending\n    # \'.txt\'. This is used as the prefix for all generated output\n    # files\n    filePrefix = absoluteFileName[:-4]\n\n    shellCall = \'java -Xmx1024m -cp \'\n    shellCall += current.request.folder+\'static/lib/forester.jar \'\n    shellCall += \'org.forester.application.gene_tree_preprocess \'\n    shellCall += absoluteFileName\n    os.system(shellCall)\n\n    removedNodes = [l.strip() for l in open(filePrefix+\'_removed_nodes.txt\').readlines()]\n    keptNodes = [l.strip() for l in open(filePrefix+\'_species_present.txt\').readlines()]\n    \n    geneTreeFile = getRelativeWebPath(\'_preprocessed_gene_tree.phylo.xml\')\n\n    # Note: we always return the \'vizFile\' and \'vizLabel\' data values\n    # from each Ajax call, as they\'re used consistently by the\n    # front-end to generate visualization links.\n    return response.json( dict(vizFile = geneTreeFile,\n                               vizLabel = "Input Gene Tree",\n                               removedNodes = removedNodes, \n                               keptNodes = keptNodes))\n\ndef getPhylotasticTree():\n    absoluteFileName = getFileName()\n    filePrefix = absoluteFileName[:-4]\n\n    # Load the kept nodes and create the comma-delimited species\n    # string for sending to PTastic\n    speciesList = [l.strip() for l in open(filePrefix+\'_species_present.txt\').readlines()]\n    # Need underscores instead of spaces\n    speciesList = [x.replace(\' \', \'_\') for x in speciesList]\n    speciesString = \',\'.join(speciesList)\n\n    phylotasticUrlBase = \'http://phylotastic-wg.nescent.org/script/phylotastic.cgi?species=\'\n    speciesTreeUrl = phylotasticUrlBase+speciesString+\'&tree=mammals&format=newick\'\n    conn = urllib2.urlopen(speciesTreeUrl)\n    speciesTreeString = conn.read()\n    speciesTreeString = speciesTreeString.strip()\n\n    speciesTreeFilename = filePrefix+\'_species_tree.txt\'\n    open(speciesTreeFilename,\'w\').write(speciesTreeString)\n\n    # TODO: It would be nice here to count the number of species in\n    # the returned species tree, so we can let users know if PTastic\n    # found everything we searched for. This would require parsing the\n    # Newick and counting nodes, probably using something like\n    # BioPython rather than making an external call to Java again.\n    \n    got_nodes=countnodes()\n    #no. of non-terminal nodes received in got_nodes.Now can be printed or checked with user input value to test if all species received.\n    #then further we can maintain a textview in the frontend indicating the number of nodes(i.e. the number of species)\n\n    speciesTreeWebFile = getRelativeWebPath(\'_species_tree.txt\')\n\n    return response.json( dict(vizFile = speciesTreeWebFile,\n                               vizLabel = "Phylotastic Species Tree"\n                               ) )\n\ndef countnodes():\n\n    #setting a counter for counting nodes i.e.number of species in the species newick tree.\n    #I have referenced the link http://biopython.org/DIST/docs/tutorial/Tutorial.html#htoc182 to know the get_terminals() function\n\n    count=0\t\t\t\t\t\t\t\t\t#global counter to keep the count of the nodes\n    tree = Phylo.read("speciesTreeFilename", "newick")\t\t\t\t#tree reads the species labels in newick format\n    for node in tree.get_terminals(): \t\t\t\t\t#loop to traverse through these nodes\n    \tcount+=1\t\t\t\t\t\t\t\t\t#updating counter value\n    return count\t\t\t\t\t\t\t\t#counter value return\n\n\ndef reconcileTrees():\n    absoluteFileName = getFileName()\n    filePrefix = absoluteFileName[:-4]\n\n    geneTreeFile = filePrefix+\'_preprocessed_gene_tree.phylo.xml\'\n    speciesTreeFile = filePrefix+\'_species_tree.txt\'\n\n    shellCall = \'java -Xmx1024m -cp \'\n    shellCall += current.request.folder+\'static/lib/forester.jar \'\n    shellCall += \'org.forester.application.gsdi \'\n    shellCall += \'-m -q \'\n    shellCall += geneTreeFile\n    shellCall += \' \'+speciesTreeFile\n\n    os.system(shellCall)\n    \n    reconciledTreeWebFile = getRelativeWebPath(\'_preprocessed_gene_tree.phylo_gsdi_out.phylo.xml\')\n    \n    return response.json( dict(vizFile = reconciledTreeWebFile,\n                               vizLabel = "Reconciled Tree (red=duplication, green=speciation)"\n                               ) )\n\nresponse._vars=response._caller(getPhylotasticTree)\n'
p7
sS'snapshot'
p8
(dp9
S'exception'
p10
(dp11
S'__getslice__'
p12
S"<method-wrapper '__getslice__' of exceptions.IOError object>"
p13
sS'__str__'
p14
S"<method-wrapper '__str__' of exceptions.IOError object>"
p15
sS'__reduce__'
p16
S'<built-in method __reduce__ of exceptions.IOError object>'
p17
sS'__dict__'
p18
S'{}'
p19
sS'__sizeof__'
p20
S'<built-in method __sizeof__ of exceptions.IOError object>'
p21
sS'__init__'
p22
S"<method-wrapper '__init__' of exceptions.IOError object>"
p23
sS'__setattr__'
p24
S"<method-wrapper '__setattr__' of exceptions.IOError object>"
p25
sS'__reduce_ex__'
p26
S'<built-in method __reduce_ex__ of exceptions.IOError object>'
p27
sS'__new__'
p28
S'<built-in method __new__ of type object>'
p29
sS'errno'
p30
S'2'
sS'__format__'
p31
S'<built-in method __format__ of exceptions.IOError object>'
p32
sS'__class__'
p33
S"<type 'exceptions.IOError'>"
p34
sS'filename'
p35
S"'speciesTreeFilename'"
p36
sS'__doc__'
p37
S"'I/O operation failed.'"
p38
sS'__getitem__'
p39
S"<method-wrapper '__getitem__' of exceptions.IOError object>"
p40
sS'__setstate__'
p41
S'<built-in method __setstate__ of exceptions.IOError object>'
p42
sS'__getattribute__'
p43
S"<method-wrapper '__getattribute__' of exceptions.IOError object>"
p44
sS'args'
p45
S"(2, 'No such file or directory')"
p46
sS'__subclasshook__'
p47
S'<built-in method __subclasshook__ of type object>'
p48
sS'__unicode__'
p49
S'<built-in method __unicode__ of exceptions.IOError object>'
p50
sS'strerror'
p51
S"'No such file or directory'"
p52
sS'__delattr__'
p53
S"<method-wrapper '__delattr__' of exceptions.IOError object>"
p54
sS'__repr__'
p55
S"<method-wrapper '__repr__' of exceptions.IOError object>"
p56
sS'__hash__'
p57
S"<method-wrapper '__hash__' of exceptions.IOError object>"
p58
ssS'evalue'
p59
S"[Errno 2] No such file or directory: 'speciesTreeFilename'"
p60
sS'request'
p61
ccopy_reg
_reconstructor
p62
(cgluon.html
BEAUTIFY
p63
c__builtin__
object
p64
NtRp65
(dp66
S'attributes'
p67
(dp68
sS'components'
p69
(lp70
g62
(cgluon.html
TABLE
p71
g64
NtRp72
(dp73
g67
(dp74
S'level'
p75
I5
ssS'parent'
p76
Nsg69
(lp77
g62
(cgluon.html
TR
p78
g64
NtRp79
(dp80
g67
(dp81
sg76
g72
sg69
(lp82
g62
(cgluon.html
TD
p83
g64
NtRp84
(dp85
g67
(dp86
S'_style'
p87
S'font-weight:bold;vertical-align:top'
p88
ssg76
g79
sg69
(lp89
S'ajax'
p90
asbag62
(g83
g64
NtRp91
(dp92
g67
(dp93
S'_valign'
p94
S'top'
p95
ssg76
g79
sg69
(lp96
S':'
asbag62
(g83
g64
NtRp97
(dp98
g67
(dp99
sg76
g79
sg69
(lp100
g62
(g63
g64
NtRp101
(dp102
g67
(dp103
g75
I5
ssg76
g97
sg69
(lp104
S'True'
p105
asbasbasbag62
(g78
g64
NtRp106
(dp107
g67
(dp108
sg76
g72
sg69
(lp109
g62
(g83
g64
NtRp110
(dp111
g67
(dp112
g87
g88
ssg76
g106
sg69
(lp113
S'application'
p114
asbag62
(g83
g64
NtRp115
(dp116
g67
(dp117
g94
g95
ssg76
g106
sg69
(lp118
S':'
asbag62
(g83
g64
NtRp119
(dp120
g67
(dp121
sg76
g106
sg69
(lp122
g62
(g63
g64
NtRp123
(dp124
g67
(dp125
g75
I5
ssg76
g119
sg69
(lp126
S'phyloShiny'
p127
asbasbasbag62
(g78
g64
NtRp128
(dp129
g67
(dp130
sg76
g72
sg69
(lp131
g62
(g83
g64
NtRp132
(dp133
g67
(dp134
g87
g88
ssg76
g128
sg69
(lp135
g45
asbag62
(g83
g64
NtRp136
(dp137
g67
(dp138
g94
g95
ssg76
g128
sg69
(lp139
S':'
asbag62
(g83
g64
NtRp140
(dp141
g67
(dp142
sg76
g128
sg69
(lp143
g62
(g63
g64
NtRp144
(dp145
g67
(dp146
g75
I5
ssg76
g140
sg69
(lp147
g62
(g71
g64
NtRp148
(dp149
g67
(dp150
g75
I4
ssg76
Nsg69
(lp151
sbasbasbasbag62
(g78
g64
NtRp152
(dp153
g67
(dp154
sg76
g72
sg69
(lp155
g62
(g83
g64
NtRp156
(dp157
g67
(dp158
g87
g88
ssg76
g152
sg69
(lp159
S'body'
p160
asbag62
(g83
g64
NtRp161
(dp162
g67
(dp163
g94
g95
ssg76
g152
sg69
(lp164
S':'
asbag62
(g83
g64
NtRp165
(dp166
g67
(dp167
sg76
g152
sg69
(lp168
g62
(g63
g64
NtRp169
(dp170
g67
(dp171
g75
I5
ssg76
g165
sg69
(lp172
S'<cStringIO.StringO object at 0xab565540>'
p173
asbasbasbag62
(g78
g64
NtRp174
(dp175
g67
(dp176
sg76
g72
sg69
(lp177
g62
(g83
g64
NtRp178
(dp179
g67
(dp180
g87
g88
ssg76
g174
sg69
(lp181
S'client'
p182
asbag62
(g83
g64
NtRp183
(dp184
g67
(dp185
g94
g95
ssg76
g174
sg69
(lp186
S':'
asbag62
(g83
g64
NtRp187
(dp188
g67
(dp189
sg76
g174
sg69
(lp190
g62
(g63
g64
NtRp191
(dp192
g67
(dp193
g75
I5
ssg76
g187
sg69
(lp194
S'127.0.0.1'
p195
asbasbasbag62
(g78
g64
NtRp196
(dp197
g67
(dp198
sg76
g72
sg69
(lp199
g62
(g83
g64
NtRp200
(dp201
g67
(dp202
g87
g88
ssg76
g196
sg69
(lp203
S'controller'
p204
asbag62
(g83
g64
NtRp205
(dp206
g67
(dp207
g94
g95
ssg76
g196
sg69
(lp208
S':'
asbag62
(g83
g64
NtRp209
(dp210
g67
(dp211
sg76
g196
sg69
(lp212
g62
(g63
g64
NtRp213
(dp214
g67
(dp215
g75
I5
ssg76
g209
sg69
(lp216
S'reconciliotastic'
p217
asbasbasbag62
(g78
g64
NtRp218
(dp219
g67
(dp220
sg76
g72
sg69
(lp221
g62
(g83
g64
NtRp222
(dp223
g67
(dp224
g87
g88
ssg76
g218
sg69
(lp225
S'cookies'
p226
asbag62
(g83
g64
NtRp227
(dp228
g67
(dp229
g94
g95
ssg76
g218
sg69
(lp230
S':'
asbag62
(g83
g64
NtRp231
(dp232
g67
(dp233
sg76
g218
sg69
(lp234
g62
(g63
g64
NtRp235
(dp236
g67
(dp237
g75
I5
ssg76
g231
sg69
(lp238
g62
(g71
g64
NtRp239
(dp240
g67
(dp241
g75
I4
ssg76
Nsg69
(lp242
g62
(g78
g64
NtRp243
(dp244
g67
(dp245
sg76
g239
sg69
(lp246
g62
(g83
g64
NtRp247
(dp248
g67
(dp249
g87
g88
ssg76
g243
sg69
(lp250
S'session_id_phyloshiny'
p251
asbag62
(g83
g64
NtRp252
(dp253
g67
(dp254
g94
g95
ssg76
g243
sg69
(lp255
S':'
asbag62
(g83
g64
NtRp256
(dp257
g67
(dp258
sg76
g243
sg69
(lp259
g62
(g63
g64
NtRp260
(dp261
g67
(dp262
g75
I4
ssg76
g256
sg69
(lp263
g62
(g71
g64
NtRp264
(dp265
g67
(dp266
g75
I3
ssg76
Nsg69
(lp267
g62
(g78
g64
NtRp268
(dp269
g67
(dp270
sg76
g264
sg69
(lp271
g62
(g83
g64
NtRp272
(dp273
g67
(dp274
g87
g88
ssg76
g268
sg69
(lp275
S'comment'
p276
asbag62
(g83
g64
NtRp277
(dp278
g67
(dp279
g94
g95
ssg76
g268
sg69
(lp280
S':'
asbag62
(g83
g64
NtRp281
(dp282
g67
(dp283
sg76
g268
sg69
(lp284
g62
(g63
g64
NtRp285
(dp286
g67
(dp287
g75
I3
ssg76
g281
sg69
(lp288
S''
asbasbasbag62
(g78
g64
NtRp289
(dp290
g67
(dp291
sg76
g264
sg69
(lp292
g62
(g83
g64
NtRp293
(dp294
g67
(dp295
g87
g88
ssg76
g289
sg69
(lp296
S'domain'
p297
asbag62
(g83
g64
NtRp298
(dp299
g67
(dp300
g94
g95
ssg76
g289
sg69
(lp301
S':'
asbag62
(g83
g64
NtRp302
(dp303
g67
(dp304
sg76
g289
sg69
(lp305
g62
(g63
g64
NtRp306
(dp307
g67
(dp308
g75
I3
ssg76
g302
sg69
(lp309
S''
asbasbasbag62
(g78
g64
NtRp310
(dp311
g67
(dp312
sg76
g264
sg69
(lp313
g62
(g83
g64
NtRp314
(dp315
g67
(dp316
g87
g88
ssg76
g310
sg69
(lp317
S'expires'
p318
asbag62
(g83
g64
NtRp319
(dp320
g67
(dp321
g94
g95
ssg76
g310
sg69
(lp322
S':'
asbag62
(g83
g64
NtRp323
(dp324
g67
(dp325
sg76
g310
sg69
(lp326
g62
(g63
g64
NtRp327
(dp328
g67
(dp329
g75
I3
ssg76
g323
sg69
(lp330
S''
asbasbasbag62
(g78
g64
NtRp331
(dp332
g67
(dp333
sg76
g264
sg69
(lp334
g62
(g83
g64
NtRp335
(dp336
g67
(dp337
g87
g88
ssg76
g331
sg69
(lp338
S'httponly'
p339
asbag62
(g83
g64
NtRp340
(dp341
g67
(dp342
g94
g95
ssg76
g331
sg69
(lp343
S':'
asbag62
(g83
g64
NtRp344
(dp345
g67
(dp346
sg76
g331
sg69
(lp347
g62
(g63
g64
NtRp348
(dp349
g67
(dp350
g75
I3
ssg76
g344
sg69
(lp351
S''
asbasbasbag62
(g78
g64
NtRp352
(dp353
g67
(dp354
sg76
g264
sg69
(lp355
g62
(g83
g64
NtRp356
(dp357
g67
(dp358
g87
g88
ssg76
g352
sg69
(lp359
S'max-age'
p360
asbag62
(g83
g64
NtRp361
(dp362
g67
(dp363
g94
g95
ssg76
g352
sg69
(lp364
S':'
asbag62
(g83
g64
NtRp365
(dp366
g67
(dp367
sg76
g352
sg69
(lp368
g62
(g63
g64
NtRp369
(dp370
g67
(dp371
g75
I3
ssg76
g365
sg69
(lp372
S''
asbasbasbag62
(g78
g64
NtRp373
(dp374
g67
(dp375
sg76
g264
sg69
(lp376
g62
(g83
g64
NtRp377
(dp378
g67
(dp379
g87
g88
ssg76
g373
sg69
(lp380
S'path'
p381
asbag62
(g83
g64
NtRp382
(dp383
g67
(dp384
g94
g95
ssg76
g373
sg69
(lp385
S':'
asbag62
(g83
g64
NtRp386
(dp387
g67
(dp388
sg76
g373
sg69
(lp389
g62
(g63
g64
NtRp390
(dp391
g67
(dp392
g75
I3
ssg76
g386
sg69
(lp393
S''
asbasbasbag62
(g78
g64
NtRp394
(dp395
g67
(dp396
sg76
g264
sg69
(lp397
g62
(g83
g64
NtRp398
(dp399
g67
(dp400
g87
g88
ssg76
g394
sg69
(lp401
S'secure'
p402
asbag62
(g83
g64
NtRp403
(dp404
g67
(dp405
g94
g95
ssg76
g394
sg69
(lp406
S':'
asbag62
(g83
g64
NtRp407
(dp408
g67
(dp409
sg76
g394
sg69
(lp410
g62
(g63
g64
NtRp411
(dp412
g67
(dp413
g75
I3
ssg76
g407
sg69
(lp414
S''
asbasbasbag62
(g78
g64
NtRp415
(dp416
g67
(dp417
sg76
g264
sg69
(lp418
g62
(g83
g64
NtRp419
(dp420
g67
(dp421
g87
g88
ssg76
g415
sg69
(lp422
S'version'
p423
asbag62
(g83
g64
NtRp424
(dp425
g67
(dp426
g94
g95
ssg76
g415
sg69
(lp427
S':'
asbag62
(g83
g64
NtRp428
(dp429
g67
(dp430
sg76
g415
sg69
(lp431
g62
(g63
g64
NtRp432
(dp433
g67
(dp434
g75
I3
ssg76
g428
sg69
(lp435
S''
asbasbasbasbasbasbasbasbasbasbasbag62
(g78
g64
NtRp436
(dp437
g67
(dp438
sg76
g72
sg69
(lp439
g62
(g83
g64
NtRp440
(dp441
g67
(dp442
g87
g88
ssg76
g436
sg69
(lp443
S'env'
p444
asbag62
(g83
g64
NtRp445
(dp446
g67
(dp447
g94
g95
ssg76
g436
sg69
(lp448
S':'
asbag62
(g83
g64
NtRp449
(dp450
g67
(dp451
sg76
g436
sg69
(lp452
g62
(g63
g64
NtRp453
(dp454
g67
(dp455
g75
I5
ssg76
g449
sg69
(lp456
g62
(g71
g64
NtRp457
(dp458
g67
(dp459
g75
I4
ssg76
Nsg69
(lp460
g62
(g78
g64
NtRp461
(dp462
g67
(dp463
sg76
g457
sg69
(lp464
g62
(g83
g64
NtRp465
(dp466
g67
(dp467
g87
g88
ssg76
g461
sg69
(lp468
S'app_folders'
p469
asbag62
(g83
g64
NtRp470
(dp471
g67
(dp472
g94
g95
ssg76
g461
sg69
(lp473
S':'
asbag62
(g83
g64
NtRp474
(dp475
g67
(dp476
sg76
g461
sg69
(lp477
g62
(g63
g64
NtRp478
(dp479
g67
(dp480
g75
I4
ssg76
g474
sg69
(lp481
S"set(['/home/prateek/web2py/applications/phyloShiny/', '/home/prateek/web2py/applications/welcome/'])"
p482
asbasbasbag62
(g78
g64
NtRp483
(dp484
g67
(dp485
sg76
g457
sg69
(lp486
g62
(g83
g64
NtRp487
(dp488
g67
(dp489
g87
g88
ssg76
g483
sg69
(lp490
S'applications_parent'
p491
asbag62
(g83
g64
NtRp492
(dp493
g67
(dp494
g94
g95
ssg76
g483
sg69
(lp495
S':'
asbag62
(g83
g64
NtRp496
(dp497
g67
(dp498
sg76
g483
sg69
(lp499
g62
(g63
g64
NtRp500
(dp501
g67
(dp502
g75
I4
ssg76
g496
sg69
(lp503
S'/home/prateek/web2py'
p504
asbasbasbag62
(g78
g64
NtRp505
(dp506
g67
(dp507
sg76
g457
sg69
(lp508
g62
(g83
g64
NtRp509
(dp510
g67
(dp511
g87
g88
ssg76
g505
sg69
(lp512
S'cmd_args'
p513
asbag62
(g83
g64
NtRp514
(dp515
g67
(dp516
g94
g95
ssg76
g505
sg69
(lp517
S':'
asbag62
(g83
g64
NtRp518
(dp519
g67
(dp520
sg76
g505
sg69
(lp521
g62
(g63
g64
NtRp522
(dp523
g67
(dp524
g75
I4
ssg76
g518
sg69
(lp525
g62
(g71
g64
NtRp526
(dp527
g67
(dp528
g75
I3
ssg76
Nsg69
(lp529
sbasbasbasbag62
(g78
g64
NtRp530
(dp531
g67
(dp532
sg76
g457
sg69
(lp533
g62
(g83
g64
NtRp534
(dp535
g67
(dp536
g87
g88
ssg76
g530
sg69
(lp537
S'cmd_options'
p538
asbag62
(g83
g64
NtRp539
(dp540
g67
(dp541
g94
g95
ssg76
g530
sg69
(lp542
S':'
asbag62
(g83
g64
NtRp543
(dp544
g67
(dp545
sg76
g530
sg69
(lp546
g62
(g63
g64
NtRp547
(dp548
g67
(dp549
g75
I4
ssg76
g543
sg69
(lp550
S"<Values at 0x8e875ec: {'verbose': False, 'ip': '127.0.0.1', 'shutdown_timeout': 5, 'taskbar': False, 'port': 8000, 'maxthreads': None, 'softcron': False, 'server_name': 'prateek-Inspiron-N5110', 'bpython': False, 'nogui': False, 'nocron': False, 'extcron': False, 'debuglevel': 30, 'test': None, 'folder': '/home/prateek/web2py', 'config': '', 'import_models': False, 'winservice': '', 'shell': None, 'run': '', 'log_filename': 'httpserver.log', 'args': [''], 'socket_timeout': 1, 'profiler_filename': None, 'ssl_private_key': '', 'password': '<ask>', 'request_queue_size': 5, 'ssl_certificate': '', 'cronjob': False, 'plain': False, 'quiet': False, 'interfaces': None, 'minthreads': None, 'timeout': 10, 'numthreads': None, 'nobanner': False, 'pid_filename': 'httpserver.pid'}>"
p551
asbasbasbag62
(g78
g64
NtRp552
(dp553
g67
(dp554
sg76
g457
sg69
(lp555
g62
(g83
g64
NtRp556
(dp557
g67
(dp558
g87
g88
ssg76
g552
sg69
(lp559
S'db_sessions'
p560
asbag62
(g83
g64
NtRp561
(dp562
g67
(dp563
g94
g95
ssg76
g552
sg69
(lp564
S':'
asbag62
(g83
g64
NtRp565
(dp566
g67
(dp567
sg76
g552
sg69
(lp568
g62
(g63
g64
NtRp569
(dp570
g67
(dp571
g75
I4
ssg76
g565
sg69
(lp572
S'set([])'
p573
asbasbasbag62
(g78
g64
NtRp574
(dp575
g67
(dp576
sg76
g457
sg69
(lp577
g62
(g83
g64
NtRp578
(dp579
g67
(dp580
g87
g88
ssg76
g574
sg69
(lp581
S'debugging'
p582
asbag62
(g83
g64
NtRp583
(dp584
g67
(dp585
g94
g95
ssg76
g574
sg69
(lp586
S':'
asbag62
(g83
g64
NtRp587
(dp588
g67
(dp589
sg76
g574
sg69
(lp590
g62
(g63
g64
NtRp591
(dp592
g67
(dp593
g75
I4
ssg76
g587
sg69
(lp594
S'False'
p595
asbasbasbag62
(g78
g64
NtRp596
(dp597
g67
(dp598
sg76
g457
sg69
(lp599
g62
(g83
g64
NtRp600
(dp601
g67
(dp602
g87
g88
ssg76
g596
sg69
(lp603
S'gluon_parent'
p604
asbag62
(g83
g64
NtRp605
(dp606
g67
(dp607
g94
g95
ssg76
g596
sg69
(lp608
S':'
asbag62
(g83
g64
NtRp609
(dp610
g67
(dp611
sg76
g596
sg69
(lp612
g62
(g63
g64
NtRp613
(dp614
g67
(dp615
g75
I4
ssg76
g609
sg69
(lp616
S'/usr/share/web2py'
p617
asbasbasbag62
(g78
g64
NtRp618
(dp619
g67
(dp620
sg76
g457
sg69
(lp621
g62
(g83
g64
NtRp622
(dp623
g67
(dp624
g87
g88
ssg76
g618
sg69
(lp625
S'http_accept'
p626
asbag62
(g83
g64
NtRp627
(dp628
g67
(dp629
g94
g95
ssg76
g618
sg69
(lp630
S':'
asbag62
(g83
g64
NtRp631
(dp632
g67
(dp633
sg76
g618
sg69
(lp634
g62
(g63
g64
NtRp635
(dp636
g67
(dp637
g75
I4
ssg76
g631
sg69
(lp638
S'*/*'
p639
asbasbasbag62
(g78
g64
NtRp640
(dp641
g67
(dp642
sg76
g457
sg69
(lp643
g62
(g83
g64
NtRp644
(dp645
g67
(dp646
g87
g88
ssg76
g640
sg69
(lp647
S'http_accept_encoding'
p648
asbag62
(g83
g64
NtRp649
(dp650
g67
(dp651
g94
g95
ssg76
g640
sg69
(lp652
S':'
asbag62
(g83
g64
NtRp653
(dp654
g67
(dp655
sg76
g640
sg69
(lp656
g62
(g63
g64
NtRp657
(dp658
g67
(dp659
g75
I4
ssg76
g653
sg69
(lp660
S'gzip, deflate'
p661
asbasbasbag62
(g78
g64
NtRp662
(dp663
g67
(dp664
sg76
g457
sg69
(lp665
g62
(g83
g64
NtRp666
(dp667
g67
(dp668
g87
g88
ssg76
g662
sg69
(lp669
S'http_accept_language'
p670
asbag62
(g83
g64
NtRp671
(dp672
g67
(dp673
g94
g95
ssg76
g662
sg69
(lp674
S':'
asbag62
(g83
g64
NtRp675
(dp676
g67
(dp677
sg76
g662
sg69
(lp678
g62
(g63
g64
NtRp679
(dp680
g67
(dp681
g75
I4
ssg76
g675
sg69
(lp682
S'en-US,en;q=0.5'
p683
asbasbasbag62
(g78
g64
NtRp684
(dp685
g67
(dp686
sg76
g457
sg69
(lp687
g62
(g83
g64
NtRp688
(dp689
g67
(dp690
g87
g88
ssg76
g684
sg69
(lp691
S'http_connection'
p692
asbag62
(g83
g64
NtRp693
(dp694
g67
(dp695
g94
g95
ssg76
g684
sg69
(lp696
S':'
asbag62
(g83
g64
NtRp697
(dp698
g67
(dp699
sg76
g684
sg69
(lp700
g62
(g63
g64
NtRp701
(dp702
g67
(dp703
g75
I4
ssg76
g697
sg69
(lp704
S'keep-alive'
p705
asbasbasbag62
(g78
g64
NtRp706
(dp707
g67
(dp708
sg76
g457
sg69
(lp709
g62
(g83
g64
NtRp710
(dp711
g67
(dp712
g87
g88
ssg76
g706
sg69
(lp713
S'http_cookie'
p714
asbag62
(g83
g64
NtRp715
(dp716
g67
(dp717
g94
g95
ssg76
g706
sg69
(lp718
S':'
asbag62
(g83
g64
NtRp719
(dp720
g67
(dp721
sg76
g706
sg69
(lp722
g62
(g63
g64
NtRp723
(dp724
g67
(dp725
g75
I4
ssg76
g719
sg69
(lp726
S'session_id_phyloshiny=127.0.0.1-28d5ab0c-c079-4175-bd77-eebaa7daff32'
p727
asbasbasbag62
(g78
g64
NtRp728
(dp729
g67
(dp730
sg76
g457
sg69
(lp731
g62
(g83
g64
NtRp732
(dp733
g67
(dp734
g87
g88
ssg76
g728
sg69
(lp735
S'http_host'
p736
asbag62
(g83
g64
NtRp737
(dp738
g67
(dp739
g94
g95
ssg76
g728
sg69
(lp740
S':'
asbag62
(g83
g64
NtRp741
(dp742
g67
(dp743
sg76
g728
sg69
(lp744
g62
(g63
g64
NtRp745
(dp746
g67
(dp747
g75
I4
ssg76
g741
sg69
(lp748
S'127.0.0.1:8000'
p749
asbasbasbag62
(g78
g64
NtRp750
(dp751
g67
(dp752
sg76
g457
sg69
(lp753
g62
(g83
g64
NtRp754
(dp755
g67
(dp756
g87
g88
ssg76
g750
sg69
(lp757
S'http_referer'
p758
asbag62
(g83
g64
NtRp759
(dp760
g67
(dp761
g94
g95
ssg76
g750
sg69
(lp762
S':'
asbag62
(g83
g64
NtRp763
(dp764
g67
(dp765
sg76
g750
sg69
(lp766
g62
(g63
g64
NtRp767
(dp768
g67
(dp769
g75
I4
ssg76
g763
sg69
(lp770
S'http://127.0.0.1:8000/phyloShiny/reconciliotastic/index'
p771
asbasbasbag62
(g78
g64
NtRp772
(dp773
g67
(dp774
sg76
g457
sg69
(lp775
g62
(g83
g64
NtRp776
(dp777
g67
(dp778
g87
g88
ssg76
g772
sg69
(lp779
S'http_user_agent'
p780
asbag62
(g83
g64
NtRp781
(dp782
g67
(dp783
g94
g95
ssg76
g772
sg69
(lp784
S':'
asbag62
(g83
g64
NtRp785
(dp786
g67
(dp787
sg76
g772
sg69
(lp788
g62
(g63
g64
NtRp789
(dp790
g67
(dp791
g75
I4
ssg76
g785
sg69
(lp792
S'Mozilla/5.0 (X11; Ubuntu; Linux i686; rv:20.0) Gecko/20100101 Firefox/20.0'
p793
asbasbasbag62
(g78
g64
NtRp794
(dp795
g67
(dp796
sg76
g457
sg69
(lp797
g62
(g83
g64
NtRp798
(dp799
g67
(dp800
g87
g88
ssg76
g794
sg69
(lp801
S'http_x_requested_with'
p802
asbag62
(g83
g64
NtRp803
(dp804
g67
(dp805
g94
g95
ssg76
g794
sg69
(lp806
S':'
asbag62
(g83
g64
NtRp807
(dp808
g67
(dp809
sg76
g794
sg69
(lp810
g62
(g63
g64
NtRp811
(dp812
g67
(dp813
g75
I4
ssg76
g807
sg69
(lp814
S'XMLHttpRequest'
p815
asbasbasbag62
(g78
g64
NtRp816
(dp817
g67
(dp818
sg76
g457
sg69
(lp819
g62
(g83
g64
NtRp820
(dp821
g67
(dp822
g87
g88
ssg76
g816
sg69
(lp823
S'is_jython'
p824
asbag62
(g83
g64
NtRp825
(dp826
g67
(dp827
g94
g95
ssg76
g816
sg69
(lp828
S':'
asbag62
(g83
g64
NtRp829
(dp830
g67
(dp831
sg76
g816
sg69
(lp832
g62
(g63
g64
NtRp833
(dp834
g67
(dp835
g75
I4
ssg76
g829
sg69
(lp836
g595
asbasbasbag62
(g78
g64
NtRp837
(dp838
g67
(dp839
sg76
g457
sg69
(lp840
g62
(g83
g64
NtRp841
(dp842
g67
(dp843
g87
g88
ssg76
g837
sg69
(lp844
S'is_pypy'
p845
asbag62
(g83
g64
NtRp846
(dp847
g67
(dp848
g94
g95
ssg76
g837
sg69
(lp849
S':'
asbag62
(g83
g64
NtRp850
(dp851
g67
(dp852
sg76
g837
sg69
(lp853
g62
(g63
g64
NtRp854
(dp855
g67
(dp856
g75
I4
ssg76
g850
sg69
(lp857
g595
asbasbasbag62
(g78
g64
NtRp858
(dp859
g67
(dp860
sg76
g457
sg69
(lp861
g62
(g83
g64
NtRp862
(dp863
g67
(dp864
g87
g88
ssg76
g858
sg69
(lp865
S'path_info'
p866
asbag62
(g83
g64
NtRp867
(dp868
g67
(dp869
g94
g95
ssg76
g858
sg69
(lp870
S':'
asbag62
(g83
g64
NtRp871
(dp872
g67
(dp873
sg76
g858
sg69
(lp874
g62
(g63
g64
NtRp875
(dp876
g67
(dp877
g75
I4
ssg76
g871
sg69
(lp878
S'/phyloShiny/reconciliotastic/getPhylotasticTree'
p879
asbasbasbag62
(g78
g64
NtRp880
(dp881
g67
(dp882
sg76
g457
sg69
(lp883
g62
(g83
g64
NtRp884
(dp885
g67
(dp886
g87
g88
ssg76
g880
sg69
(lp887
S'query_string'
p888
asbag62
(g83
g64
NtRp889
(dp890
g67
(dp891
g94
g95
ssg76
g880
sg69
(lp892
S':'
asbag62
(g83
g64
NtRp893
(dp894
g67
(dp895
sg76
g880
sg69
(lp896
g62
(g63
g64
NtRp897
(dp898
g67
(dp899
g75
I4
ssg76
g893
sg69
(lp900
S'treeFileName=static%2Fsample_data%2Fdemo_Mammal_Hemoglobin_Pruned%2Finput_genetree.nwk.txt'
p901
asbasbasbag62
(g78
g64
NtRp902
(dp903
g67
(dp904
sg76
g457
sg69
(lp905
g62
(g83
g64
NtRp906
(dp907
g67
(dp908
g87
g88
ssg76
g902
sg69
(lp909
S'remote_addr'
p910
asbag62
(g83
g64
NtRp911
(dp912
g67
(dp913
g94
g95
ssg76
g902
sg69
(lp914
S':'
asbag62
(g83
g64
NtRp915
(dp916
g67
(dp917
sg76
g902
sg69
(lp918
g62
(g63
g64
NtRp919
(dp920
g67
(dp921
g75
I4
ssg76
g915
sg69
(lp922
g195
asbasbasbag62
(g78
g64
NtRp923
(dp924
g67
(dp925
sg76
g457
sg69
(lp926
g62
(g83
g64
NtRp927
(dp928
g67
(dp929
g87
g88
ssg76
g923
sg69
(lp930
S'remote_port'
p931
asbag62
(g83
g64
NtRp932
(dp933
g67
(dp934
g94
g95
ssg76
g923
sg69
(lp935
S':'
asbag62
(g83
g64
NtRp936
(dp937
g67
(dp938
sg76
g923
sg69
(lp939
g62
(g63
g64
NtRp940
(dp941
g67
(dp942
g75
I4
ssg76
g936
sg69
(lp943
S'38346'
p944
asbasbasbag62
(g78
g64
NtRp945
(dp946
g67
(dp947
sg76
g457
sg69
(lp948
g62
(g83
g64
NtRp949
(dp950
g67
(dp951
g87
g88
ssg76
g945
sg69
(lp952
S'request_method'
p953
asbag62
(g83
g64
NtRp954
(dp955
g67
(dp956
g94
g95
ssg76
g945
sg69
(lp957
S':'
asbag62
(g83
g64
NtRp958
(dp959
g67
(dp960
sg76
g945
sg69
(lp961
g62
(g63
g64
NtRp962
(dp963
g67
(dp964
g75
I4
ssg76
g958
sg69
(lp965
S'GET'
p966
asbasbasbag62
(g78
g64
NtRp967
(dp968
g67
(dp969
sg76
g457
sg69
(lp970
g62
(g83
g64
NtRp971
(dp972
g67
(dp973
g87
g88
ssg76
g967
sg69
(lp974
S'script_name'
p975
asbag62
(g83
g64
NtRp976
(dp977
g67
(dp978
g94
g95
ssg76
g967
sg69
(lp979
S':'
asbag62
(g83
g64
NtRp980
(dp981
g67
(dp982
sg76
g967
sg69
(lp983
g62
(g63
g64
NtRp984
(dp985
g67
(dp986
g75
I4
ssg76
g980
sg69
(lp987
S''
asbasbasbag62
(g78
g64
NtRp988
(dp989
g67
(dp990
sg76
g457
sg69
(lp991
g62
(g83
g64
NtRp992
(dp993
g67
(dp994
g87
g88
ssg76
g988
sg69
(lp995
S'server_name'
p996
asbag62
(g83
g64
NtRp997
(dp998
g67
(dp999
g94
g95
ssg76
g988
sg69
(lp1000
S':'
asbag62
(g83
g64
NtRp1001
(dp1002
g67
(dp1003
sg76
g988
sg69
(lp1004
g62
(g63
g64
NtRp1005
(dp1006
g67
(dp1007
g75
I4
ssg76
g1001
sg69
(lp1008
S'prateek-Inspiron-N5110'
p1009
asbasbasbag62
(g78
g64
NtRp1010
(dp1011
g67
(dp1012
sg76
g457
sg69
(lp1013
g62
(g83
g64
NtRp1014
(dp1015
g67
(dp1016
g87
g88
ssg76
g1010
sg69
(lp1017
S'server_port'
p1018
asbag62
(g83
g64
NtRp1019
(dp1020
g67
(dp1021
g94
g95
ssg76
g1010
sg69
(lp1022
S':'
asbag62
(g83
g64
NtRp1023
(dp1024
g67
(dp1025
sg76
g1010
sg69
(lp1026
g62
(g63
g64
NtRp1027
(dp1028
g67
(dp1029
g75
I4
ssg76
g1023
sg69
(lp1030
S'8000'
p1031
asbasbasbag62
(g78
g64
NtRp1032
(dp1033
g67
(dp1034
sg76
g457
sg69
(lp1035
g62
(g83
g64
NtRp1036
(dp1037
g67
(dp1038
g87
g88
ssg76
g1032
sg69
(lp1039
S'server_protocol'
p1040
asbag62
(g83
g64
NtRp1041
(dp1042
g67
(dp1043
g94
g95
ssg76
g1032
sg69
(lp1044
S':'
asbag62
(g83
g64
NtRp1045
(dp1046
g67
(dp1047
sg76
g1032
sg69
(lp1048
g62
(g63
g64
NtRp1049
(dp1050
g67
(dp1051
g75
I4
ssg76
g1045
sg69
(lp1052
S'HTTP/1.1'
p1053
asbasbasbag62
(g78
g64
NtRp1054
(dp1055
g67
(dp1056
sg76
g457
sg69
(lp1057
g62
(g83
g64
NtRp1058
(dp1059
g67
(dp1060
g87
g88
ssg76
g1054
sg69
(lp1061
S'server_software'
p1062
asbag62
(g83
g64
NtRp1063
(dp1064
g67
(dp1065
g94
g95
ssg76
g1054
sg69
(lp1066
S':'
asbag62
(g83
g64
NtRp1067
(dp1068
g67
(dp1069
sg76
g1054
sg69
(lp1070
g62
(g63
g64
NtRp1071
(dp1072
g67
(dp1073
g75
I4
ssg76
g1067
sg69
(lp1074
S'Rocket 1.2.4'
p1075
asbasbasbag62
(g78
g64
NtRp1076
(dp1077
g67
(dp1078
sg76
g457
sg69
(lp1079
g62
(g83
g64
NtRp1080
(dp1081
g67
(dp1082
g87
g88
ssg76
g1076
sg69
(lp1083
S'web2py_crontype'
p1084
asbag62
(g83
g64
NtRp1085
(dp1086
g67
(dp1087
g94
g95
ssg76
g1076
sg69
(lp1088
S':'
asbag62
(g83
g64
NtRp1089
(dp1090
g67
(dp1091
sg76
g1076
sg69
(lp1092
g62
(g63
g64
NtRp1093
(dp1094
g67
(dp1095
g75
I4
ssg76
g1089
sg69
(lp1096
S'hard'
p1097
asbasbasbag62
(g78
g64
NtRp1098
(dp1099
g67
(dp1100
sg76
g457
sg69
(lp1101
g62
(g83
g64
NtRp1102
(dp1103
g67
(dp1104
g87
g88
ssg76
g1098
sg69
(lp1105
S'web2py_path'
p1106
asbag62
(g83
g64
NtRp1107
(dp1108
g67
(dp1109
g94
g95
ssg76
g1098
sg69
(lp1110
S':'
asbag62
(g83
g64
NtRp1111
(dp1112
g67
(dp1113
sg76
g1098
sg69
(lp1114
g62
(g63
g64
NtRp1115
(dp1116
g67
(dp1117
g75
I4
ssg76
g1111
sg69
(lp1118
g504
asbasbasbag62
(g78
g64
NtRp1119
(dp1120
g67
(dp1121
sg76
g457
sg69
(lp1122
g62
(g83
g64
NtRp1123
(dp1124
g67
(dp1125
g87
g88
ssg76
g1119
sg69
(lp1126
S'web2py_version'
p1127
asbag62
(g83
g64
NtRp1128
(dp1129
g67
(dp1130
g94
g95
ssg76
g1119
sg69
(lp1131
S':'
asbag62
(g83
g64
NtRp1132
(dp1133
g67
(dp1134
sg76
g1119
sg69
(lp1135
g62
(g63
g64
NtRp1136
(dp1137
g67
(dp1138
g75
I4
ssg76
g1132
sg69
(lp1139
g62
(g71
g64
NtRp1140
(dp1141
g67
(dp1142
g75
I3
ssg76
Nsg69
(lp1143
g62
(g78
g64
NtRp1144
(dp1145
g67
(dp1146
sg76
g1140
sg69
(lp1147
g62
(g83
g64
NtRp1148
(dp1149
g67
(dp1150
sg76
g1144
sg69
(lp1151
g62
(g63
g64
NtRp1152
(dp1153
g67
(dp1154
g75
I3
ssg76
g1148
sg69
(lp1155
S'1'
asbasbasbag62
(g78
g64
NtRp1156
(dp1157
g67
(dp1158
sg76
g1140
sg69
(lp1159
g62
(g83
g64
NtRp1160
(dp1161
g67
(dp1162
sg76
g1156
sg69
(lp1163
g62
(g63
g64
NtRp1164
(dp1165
g67
(dp1166
g75
I3
ssg76
g1160
sg69
(lp1167
S'99'
p1168
asbasbasbag62
(g78
g64
NtRp1169
(dp1170
g67
(dp1171
sg76
g1140
sg69
(lp1172
g62
(g83
g64
NtRp1173
(dp1174
g67
(dp1175
sg76
g1169
sg69
(lp1176
g62
(g63
g64
NtRp1177
(dp1178
g67
(dp1179
g75
I3
ssg76
g1173
sg69
(lp1180
S'4'
asbasbasbag62
(g78
g64
NtRp1181
(dp1182
g67
(dp1183
sg76
g1140
sg69
(lp1184
g62
(g83
g64
NtRp1185
(dp1186
g67
(dp1187
sg76
g1181
sg69
(lp1188
g62
(g63
g64
NtRp1189
(dp1190
g67
(dp1191
g75
I3
ssg76
g1185
sg69
(lp1192
S'datetime.datetime(2011, 12, 14, 14, 46, 14)'
p1193
asbasbasbag62
(g78
g64
NtRp1194
(dp1195
g67
(dp1196
sg76
g1140
sg69
(lp1197
g62
(g83
g64
NtRp1198
(dp1199
g67
(dp1200
sg76
g1194
sg69
(lp1201
g62
(g63
g64
NtRp1202
(dp1203
g67
(dp1204
g75
I3
ssg76
g1198
sg69
(lp1205
S'stable'
p1206
asbasbasbasbasbasbasbag62
(g78
g64
NtRp1207
(dp1208
g67
(dp1209
sg76
g457
sg69
(lp1210
g62
(g83
g64
NtRp1211
(dp1212
g67
(dp1213
g87
g88
ssg76
g1207
sg69
(lp1214
S'wsgi_errors'
p1215
asbag62
(g83
g64
NtRp1216
(dp1217
g67
(dp1218
g94
g95
ssg76
g1207
sg69
(lp1219
S':'
asbag62
(g83
g64
NtRp1220
(dp1221
g67
(dp1222
sg76
g1207
sg69
(lp1223
g62
(g63
g64
NtRp1224
(dp1225
g67
(dp1226
g75
I4
ssg76
g1220
sg69
(lp1227
S"<open file '<stderr>', mode 'w' at 0xb73210d0>"
p1228
asbasbasbag62
(g78
g64
NtRp1229
(dp1230
g67
(dp1231
sg76
g457
sg69
(lp1232
g62
(g83
g64
NtRp1233
(dp1234
g67
(dp1235
g87
g88
ssg76
g1229
sg69
(lp1236
S'wsgi_file_wrapper'
p1237
asbag62
(g83
g64
NtRp1238
(dp1239
g67
(dp1240
g94
g95
ssg76
g1229
sg69
(lp1241
S':'
asbag62
(g83
g64
NtRp1242
(dp1243
g67
(dp1244
sg76
g1229
sg69
(lp1245
g62
(g63
g64
NtRp1246
(dp1247
g67
(dp1248
g75
I4
ssg76
g1242
sg69
(lp1249
S'<class wsgiref.util.FileWrapper at 0x8c4f23c>'
p1250
asbasbasbag62
(g78
g64
NtRp1251
(dp1252
g67
(dp1253
sg76
g457
sg69
(lp1254
g62
(g83
g64
NtRp1255
(dp1256
g67
(dp1257
g87
g88
ssg76
g1251
sg69
(lp1258
S'wsgi_input'
p1259
asbag62
(g83
g64
NtRp1260
(dp1261
g67
(dp1262
g94
g95
ssg76
g1251
sg69
(lp1263
S':'
asbag62
(g83
g64
NtRp1264
(dp1265
g67
(dp1266
sg76
g1251
sg69
(lp1267
g62
(g63
g64
NtRp1268
(dp1269
g67
(dp1270
g75
I4
ssg76
g1264
sg69
(lp1271
S'<socket._fileobject object at 0x92d9a6c>'
p1272
asbasbasbag62
(g78
g64
NtRp1273
(dp1274
g67
(dp1275
sg76
g457
sg69
(lp1276
g62
(g83
g64
NtRp1277
(dp1278
g67
(dp1279
g87
g88
ssg76
g1273
sg69
(lp1280
S'wsgi_multiprocess'
p1281
asbag62
(g83
g64
NtRp1282
(dp1283
g67
(dp1284
g94
g95
ssg76
g1273
sg69
(lp1285
S':'
asbag62
(g83
g64
NtRp1286
(dp1287
g67
(dp1288
sg76
g1273
sg69
(lp1289
g62
(g63
g64
NtRp1290
(dp1291
g67
(dp1292
g75
I4
ssg76
g1286
sg69
(lp1293
g595
asbasbasbag62
(g78
g64
NtRp1294
(dp1295
g67
(dp1296
sg76
g457
sg69
(lp1297
g62
(g83
g64
NtRp1298
(dp1299
g67
(dp1300
g87
g88
ssg76
g1294
sg69
(lp1301
S'wsgi_multithread'
p1302
asbag62
(g83
g64
NtRp1303
(dp1304
g67
(dp1305
g94
g95
ssg76
g1294
sg69
(lp1306
S':'
asbag62
(g83
g64
NtRp1307
(dp1308
g67
(dp1309
sg76
g1294
sg69
(lp1310
g62
(g63
g64
NtRp1311
(dp1312
g67
(dp1313
g75
I4
ssg76
g1307
sg69
(lp1314
g105
asbasbasbag62
(g78
g64
NtRp1315
(dp1316
g67
(dp1317
sg76
g457
sg69
(lp1318
g62
(g83
g64
NtRp1319
(dp1320
g67
(dp1321
g87
g88
ssg76
g1315
sg69
(lp1322
S'wsgi_run_once'
p1323
asbag62
(g83
g64
NtRp1324
(dp1325
g67
(dp1326
g94
g95
ssg76
g1315
sg69
(lp1327
S':'
asbag62
(g83
g64
NtRp1328
(dp1329
g67
(dp1330
sg76
g1315
sg69
(lp1331
g62
(g63
g64
NtRp1332
(dp1333
g67
(dp1334
g75
I4
ssg76
g1328
sg69
(lp1335
g595
asbasbasbag62
(g78
g64
NtRp1336
(dp1337
g67
(dp1338
sg76
g457
sg69
(lp1339
g62
(g83
g64
NtRp1340
(dp1341
g67
(dp1342
g87
g88
ssg76
g1336
sg69
(lp1343
S'wsgi_url_scheme'
p1344
asbag62
(g83
g64
NtRp1345
(dp1346
g67
(dp1347
g94
g95
ssg76
g1336
sg69
(lp1348
S':'
asbag62
(g83
g64
NtRp1349
(dp1350
g67
(dp1351
sg76
g1336
sg69
(lp1352
g62
(g63
g64
NtRp1353
(dp1354
g67
(dp1355
g75
I4
ssg76
g1349
sg69
(lp1356
S'http'
p1357
asbasbasbag62
(g78
g64
NtRp1358
(dp1359
g67
(dp1360
sg76
g457
sg69
(lp1361
g62
(g83
g64
NtRp1362
(dp1363
g67
(dp1364
g87
g88
ssg76
g1358
sg69
(lp1365
S'wsgi_version'
p1366
asbag62
(g83
g64
NtRp1367
(dp1368
g67
(dp1369
g94
g95
ssg76
g1358
sg69
(lp1370
S':'
asbag62
(g83
g64
NtRp1371
(dp1372
g67
(dp1373
sg76
g1358
sg69
(lp1374
g62
(g63
g64
NtRp1375
(dp1376
g67
(dp1377
g75
I4
ssg76
g1371
sg69
(lp1378
g62
(g71
g64
NtRp1379
(dp1380
g67
(dp1381
g75
I3
ssg76
Nsg69
(lp1382
g62
(g78
g64
NtRp1383
(dp1384
g67
(dp1385
sg76
g1379
sg69
(lp1386
g62
(g83
g64
NtRp1387
(dp1388
g67
(dp1389
sg76
g1383
sg69
(lp1390
g62
(g63
g64
NtRp1391
(dp1392
g67
(dp1393
g75
I3
ssg76
g1387
sg69
(lp1394
S'1'
asbasbasbag62
(g78
g64
NtRp1395
(dp1396
g67
(dp1397
sg76
g1379
sg69
(lp1398
g62
(g83
g64
NtRp1399
(dp1400
g67
(dp1401
sg76
g1395
sg69
(lp1402
g62
(g63
g64
NtRp1403
(dp1404
g67
(dp1405
g75
I3
ssg76
g1399
sg69
(lp1406
S'0'
asbasbasbasbasbasbasbasbasbasbasbag62
(g78
g64
NtRp1407
(dp1408
g67
(dp1409
sg76
g72
sg69
(lp1410
g62
(g83
g64
NtRp1411
(dp1412
g67
(dp1413
g87
g88
ssg76
g1407
sg69
(lp1414
S'extension'
p1415
asbag62
(g83
g64
NtRp1416
(dp1417
g67
(dp1418
g94
g95
ssg76
g1407
sg69
(lp1419
S':'
asbag62
(g83
g64
NtRp1420
(dp1421
g67
(dp1422
sg76
g1407
sg69
(lp1423
g62
(g63
g64
NtRp1424
(dp1425
g67
(dp1426
g75
I5
ssg76
g1420
sg69
(lp1427
S'html'
p1428
asbasbasbag62
(g78
g64
NtRp1429
(dp1430
g67
(dp1431
sg76
g72
sg69
(lp1432
g62
(g83
g64
NtRp1433
(dp1434
g67
(dp1435
g87
g88
ssg76
g1429
sg69
(lp1436
S'folder'
p1437
asbag62
(g83
g64
NtRp1438
(dp1439
g67
(dp1440
g94
g95
ssg76
g1429
sg69
(lp1441
S':'
asbag62
(g83
g64
NtRp1442
(dp1443
g67
(dp1444
sg76
g1429
sg69
(lp1445
g62
(g63
g64
NtRp1446
(dp1447
g67
(dp1448
g75
I5
ssg76
g1442
sg69
(lp1449
S'/home/prateek/web2py/applications/phyloShiny/'
p1450
asbasbasbag62
(g78
g64
NtRp1451
(dp1452
g67
(dp1453
sg76
g72
sg69
(lp1454
g62
(g83
g64
NtRp1455
(dp1456
g67
(dp1457
g87
g88
ssg76
g1451
sg69
(lp1458
S'function'
p1459
asbag62
(g83
g64
NtRp1460
(dp1461
g67
(dp1462
g94
g95
ssg76
g1451
sg69
(lp1463
S':'
asbag62
(g83
g64
NtRp1464
(dp1465
g67
(dp1466
sg76
g1451
sg69
(lp1467
g62
(g63
g64
NtRp1468
(dp1469
g67
(dp1470
g75
I5
ssg76
g1464
sg69
(lp1471
S'getPhylotasticTree'
p1472
asbasbasbag62
(g78
g64
NtRp1473
(dp1474
g67
(dp1475
sg76
g72
sg69
(lp1476
g62
(g83
g64
NtRp1477
(dp1478
g67
(dp1479
g87
g88
ssg76
g1473
sg69
(lp1480
S'get_vars'
p1481
asbag62
(g83
g64
NtRp1482
(dp1483
g67
(dp1484
g94
g95
ssg76
g1473
sg69
(lp1485
S':'
asbag62
(g83
g64
NtRp1486
(dp1487
g67
(dp1488
sg76
g1473
sg69
(lp1489
g62
(g63
g64
NtRp1490
(dp1491
g67
(dp1492
g75
I5
ssg76
g1486
sg69
(lp1493
g62
(g71
g64
NtRp1494
(dp1495
g67
(dp1496
g75
I4
ssg76
Nsg69
(lp1497
g62
(g78
g64
NtRp1498
(dp1499
g67
(dp1500
sg76
g1494
sg69
(lp1501
g62
(g83
g64
NtRp1502
(dp1503
g67
(dp1504
g87
g88
ssg76
g1498
sg69
(lp1505
S'treeFileName'
p1506
asbag62
(g83
g64
NtRp1507
(dp1508
g67
(dp1509
g94
g95
ssg76
g1498
sg69
(lp1510
S':'
asbag62
(g83
g64
NtRp1511
(dp1512
g67
(dp1513
sg76
g1498
sg69
(lp1514
g62
(g63
g64
NtRp1515
(dp1516
g67
(dp1517
g75
I4
ssg76
g1511
sg69
(lp1518
S'static/sample_data/demo_Mammal_Hemoglobin_Pruned/input_genetree.nwk.txt'
p1519
asbasbasbasbasbasbasbag62
(g78
g64
NtRp1520
(dp1521
g67
(dp1522
sg76
g72
sg69
(lp1523
g62
(g83
g64
NtRp1524
(dp1525
g67
(dp1526
g87
g88
ssg76
g1520
sg69
(lp1527
S'global_settings'
p1528
asbag62
(g83
g64
NtRp1529
(dp1530
g67
(dp1531
g94
g95
ssg76
g1520
sg69
(lp1532
S':'
asbag62
(g83
g64
NtRp1533
(dp1534
g67
(dp1535
sg76
g1520
sg69
(lp1536
g62
(g63
g64
NtRp1537
(dp1538
g67
(dp1539
g75
I5
ssg76
g1533
sg69
(lp1540
g62
(g71
g64
NtRp1541
(dp1542
g67
(dp1543
g75
I4
ssg76
Nsg69
(lp1544
g62
(g78
g64
NtRp1545
(dp1546
g67
(dp1547
sg76
g1541
sg69
(lp1548
g62
(g83
g64
NtRp1549
(dp1550
g67
(dp1551
g87
g88
ssg76
g1545
sg69
(lp1552
g469
asbag62
(g83
g64
NtRp1553
(dp1554
g67
(dp1555
g94
g95
ssg76
g1545
sg69
(lp1556
S':'
asbag62
(g83
g64
NtRp1557
(dp1558
g67
(dp1559
sg76
g1545
sg69
(lp1560
g62
(g63
g64
NtRp1561
(dp1562
g67
(dp1563
g75
I4
ssg76
g1557
sg69
(lp1564
S"set(['/home/prateek/web2py/applications/phyloShiny/', '/home/prateek/web2py/applications/welcome/'])"
p1565
asbasbasbag62
(g78
g64
NtRp1566
(dp1567
g67
(dp1568
sg76
g1541
sg69
(lp1569
g62
(g83
g64
NtRp1570
(dp1571
g67
(dp1572
g87
g88
ssg76
g1566
sg69
(lp1573
g491
asbag62
(g83
g64
NtRp1574
(dp1575
g67
(dp1576
g94
g95
ssg76
g1566
sg69
(lp1577
S':'
asbag62
(g83
g64
NtRp1578
(dp1579
g67
(dp1580
sg76
g1566
sg69
(lp1581
g62
(g63
g64
NtRp1582
(dp1583
g67
(dp1584
g75
I4
ssg76
g1578
sg69
(lp1585
g504
asbasbasbag62
(g78
g64
NtRp1586
(dp1587
g67
(dp1588
sg76
g1541
sg69
(lp1589
g62
(g83
g64
NtRp1590
(dp1591
g67
(dp1592
g87
g88
ssg76
g1586
sg69
(lp1593
g513
asbag62
(g83
g64
NtRp1594
(dp1595
g67
(dp1596
g94
g95
ssg76
g1586
sg69
(lp1597
S':'
asbag62
(g83
g64
NtRp1598
(dp1599
g67
(dp1600
sg76
g1586
sg69
(lp1601
g62
(g63
g64
NtRp1602
(dp1603
g67
(dp1604
g75
I4
ssg76
g1598
sg69
(lp1605
g62
(g71
g64
NtRp1606
(dp1607
g67
(dp1608
g75
I3
ssg76
Nsg69
(lp1609
sbasbasbasbag62
(g78
g64
NtRp1610
(dp1611
g67
(dp1612
sg76
g1541
sg69
(lp1613
g62
(g83
g64
NtRp1614
(dp1615
g67
(dp1616
g87
g88
ssg76
g1610
sg69
(lp1617
g538
asbag62
(g83
g64
NtRp1618
(dp1619
g67
(dp1620
g94
g95
ssg76
g1610
sg69
(lp1621
S':'
asbag62
(g83
g64
NtRp1622
(dp1623
g67
(dp1624
sg76
g1610
sg69
(lp1625
g62
(g63
g64
NtRp1626
(dp1627
g67
(dp1628
g75
I4
ssg76
g1622
sg69
(lp1629
S"<Values at 0x8e875ec: {'verbose': False, 'ip': '127.0.0.1', 'shutdown_timeout': 5, 'taskbar': False, 'port': 8000, 'maxthreads': None, 'softcron': False, 'server_name': 'prateek-Inspiron-N5110', 'bpython': False, 'nogui': False, 'nocron': False, 'extcron': False, 'debuglevel': 30, 'test': None, 'folder': '/home/prateek/web2py', 'config': '', 'import_models': False, 'winservice': '', 'shell': None, 'run': '', 'log_filename': 'httpserver.log', 'args': [''], 'socket_timeout': 1, 'profiler_filename': None, 'ssl_private_key': '', 'password': '<ask>', 'request_queue_size': 5, 'ssl_certificate': '', 'cronjob': False, 'plain': False, 'quiet': False, 'interfaces': None, 'minthreads': None, 'timeout': 10, 'numthreads': None, 'nobanner': False, 'pid_filename': 'httpserver.pid'}>"
p1630
asbasbasbag62
(g78
g64
NtRp1631
(dp1632
g67
(dp1633
sg76
g1541
sg69
(lp1634
g62
(g83
g64
NtRp1635
(dp1636
g67
(dp1637
g87
g88
ssg76
g1631
sg69
(lp1638
g560
asbag62
(g83
g64
NtRp1639
(dp1640
g67
(dp1641
g94
g95
ssg76
g1631
sg69
(lp1642
S':'
asbag62
(g83
g64
NtRp1643
(dp1644
g67
(dp1645
sg76
g1631
sg69
(lp1646
g62
(g63
g64
NtRp1647
(dp1648
g67
(dp1649
g75
I4
ssg76
g1643
sg69
(lp1650
S'set([])'
p1651
asbasbasbag62
(g78
g64
NtRp1652
(dp1653
g67
(dp1654
sg76
g1541
sg69
(lp1655
g62
(g83
g64
NtRp1656
(dp1657
g67
(dp1658
g87
g88
ssg76
g1652
sg69
(lp1659
g582
asbag62
(g83
g64
NtRp1660
(dp1661
g67
(dp1662
g94
g95
ssg76
g1652
sg69
(lp1663
S':'
asbag62
(g83
g64
NtRp1664
(dp1665
g67
(dp1666
sg76
g1652
sg69
(lp1667
g62
(g63
g64
NtRp1668
(dp1669
g67
(dp1670
g75
I4
ssg76
g1664
sg69
(lp1671
g595
asbasbasbag62
(g78
g64
NtRp1672
(dp1673
g67
(dp1674
sg76
g1541
sg69
(lp1675
g62
(g83
g64
NtRp1676
(dp1677
g67
(dp1678
g87
g88
ssg76
g1672
sg69
(lp1679
g604
asbag62
(g83
g64
NtRp1680
(dp1681
g67
(dp1682
g94
g95
ssg76
g1672
sg69
(lp1683
S':'
asbag62
(g83
g64
NtRp1684
(dp1685
g67
(dp1686
sg76
g1672
sg69
(lp1687
g62
(g63
g64
NtRp1688
(dp1689
g67
(dp1690
g75
I4
ssg76
g1684
sg69
(lp1691
g617
asbasbasbag62
(g78
g64
NtRp1692
(dp1693
g67
(dp1694
sg76
g1541
sg69
(lp1695
g62
(g83
g64
NtRp1696
(dp1697
g67
(dp1698
g87
g88
ssg76
g1692
sg69
(lp1699
g824
asbag62
(g83
g64
NtRp1700
(dp1701
g67
(dp1702
g94
g95
ssg76
g1692
sg69
(lp1703
S':'
asbag62
(g83
g64
NtRp1704
(dp1705
g67
(dp1706
sg76
g1692
sg69
(lp1707
g62
(g63
g64
NtRp1708
(dp1709
g67
(dp1710
g75
I4
ssg76
g1704
sg69
(lp1711
g595
asbasbasbag62
(g78
g64
NtRp1712
(dp1713
g67
(dp1714
sg76
g1541
sg69
(lp1715
g62
(g83
g64
NtRp1716
(dp1717
g67
(dp1718
g87
g88
ssg76
g1712
sg69
(lp1719
g845
asbag62
(g83
g64
NtRp1720
(dp1721
g67
(dp1722
g94
g95
ssg76
g1712
sg69
(lp1723
S':'
asbag62
(g83
g64
NtRp1724
(dp1725
g67
(dp1726
sg76
g1712
sg69
(lp1727
g62
(g63
g64
NtRp1728
(dp1729
g67
(dp1730
g75
I4
ssg76
g1724
sg69
(lp1731
g595
asbasbasbag62
(g78
g64
NtRp1732
(dp1733
g67
(dp1734
sg76
g1541
sg69
(lp1735
g62
(g83
g64
NtRp1736
(dp1737
g67
(dp1738
g87
g88
ssg76
g1732
sg69
(lp1739
g1084
asbag62
(g83
g64
NtRp1740
(dp1741
g67
(dp1742
g94
g95
ssg76
g1732
sg69
(lp1743
S':'
asbag62
(g83
g64
NtRp1744
(dp1745
g67
(dp1746
sg76
g1732
sg69
(lp1747
g62
(g63
g64
NtRp1748
(dp1749
g67
(dp1750
g75
I4
ssg76
g1744
sg69
(lp1751
g1097
asbasbasbag62
(g78
g64
NtRp1752
(dp1753
g67
(dp1754
sg76
g1541
sg69
(lp1755
g62
(g83
g64
NtRp1756
(dp1757
g67
(dp1758
g87
g88
ssg76
g1752
sg69
(lp1759
g1127
asbag62
(g83
g64
NtRp1760
(dp1761
g67
(dp1762
g94
g95
ssg76
g1752
sg69
(lp1763
S':'
asbag62
(g83
g64
NtRp1764
(dp1765
g67
(dp1766
sg76
g1752
sg69
(lp1767
g62
(g63
g64
NtRp1768
(dp1769
g67
(dp1770
g75
I4
ssg76
g1764
sg69
(lp1771
g62
(g71
g64
NtRp1772
(dp1773
g67
(dp1774
g75
I3
ssg76
Nsg69
(lp1775
g62
(g78
g64
NtRp1776
(dp1777
g67
(dp1778
sg76
g1772
sg69
(lp1779
g62
(g83
g64
NtRp1780
(dp1781
g67
(dp1782
sg76
g1776
sg69
(lp1783
g62
(g63
g64
NtRp1784
(dp1785
g67
(dp1786
g75
I3
ssg76
g1780
sg69
(lp1787
S'1'
asbasbasbag62
(g78
g64
NtRp1788
(dp1789
g67
(dp1790
sg76
g1772
sg69
(lp1791
g62
(g83
g64
NtRp1792
(dp1793
g67
(dp1794
sg76
g1788
sg69
(lp1795
g62
(g63
g64
NtRp1796
(dp1797
g67
(dp1798
g75
I3
ssg76
g1792
sg69
(lp1799
S'99'
p1800
asbasbasbag62
(g78
g64
NtRp1801
(dp1802
g67
(dp1803
sg76
g1772
sg69
(lp1804
g62
(g83
g64
NtRp1805
(dp1806
g67
(dp1807
sg76
g1801
sg69
(lp1808
g62
(g63
g64
NtRp1809
(dp1810
g67
(dp1811
g75
I3
ssg76
g1805
sg69
(lp1812
S'4'
asbasbasbag62
(g78
g64
NtRp1813
(dp1814
g67
(dp1815
sg76
g1772
sg69
(lp1816
g62
(g83
g64
NtRp1817
(dp1818
g67
(dp1819
sg76
g1813
sg69
(lp1820
g62
(g63
g64
NtRp1821
(dp1822
g67
(dp1823
g75
I3
ssg76
g1817
sg69
(lp1824
S'datetime.datetime(2011, 12, 14, 14, 46, 14)'
p1825
asbasbasbag62
(g78
g64
NtRp1826
(dp1827
g67
(dp1828
sg76
g1772
sg69
(lp1829
g62
(g83
g64
NtRp1830
(dp1831
g67
(dp1832
sg76
g1826
sg69
(lp1833
g62
(g63
g64
NtRp1834
(dp1835
g67
(dp1836
g75
I3
ssg76
g1830
sg69
(lp1837
g1206
asbasbasbasbasbasbasbasbasbasbasbag62
(g78
g64
NtRp1838
(dp1839
g67
(dp1840
sg76
g72
sg69
(lp1841
g62
(g83
g64
NtRp1842
(dp1843
g67
(dp1844
g87
g88
ssg76
g1838
sg69
(lp1845
S'is_https'
p1846
asbag62
(g83
g64
NtRp1847
(dp1848
g67
(dp1849
g94
g95
ssg76
g1838
sg69
(lp1850
S':'
asbag62
(g83
g64
NtRp1851
(dp1852
g67
(dp1853
sg76
g1838
sg69
(lp1854
g62
(g63
g64
NtRp1855
(dp1856
g67
(dp1857
g75
I5
ssg76
g1851
sg69
(lp1858
g595
asbasbasbag62
(g78
g64
NtRp1859
(dp1860
g67
(dp1861
sg76
g72
sg69
(lp1862
g62
(g83
g64
NtRp1863
(dp1864
g67
(dp1865
g87
g88
ssg76
g1859
sg69
(lp1866
S'is_local'
p1867
asbag62
(g83
g64
NtRp1868
(dp1869
g67
(dp1870
g94
g95
ssg76
g1859
sg69
(lp1871
S':'
asbag62
(g83
g64
NtRp1872
(dp1873
g67
(dp1874
sg76
g1859
sg69
(lp1875
g62
(g63
g64
NtRp1876
(dp1877
g67
(dp1878
g75
I5
ssg76
g1872
sg69
(lp1879
g105
asbasbasbag62
(g78
g64
NtRp1880
(dp1881
g67
(dp1882
sg76
g72
sg69
(lp1883
g62
(g83
g64
NtRp1884
(dp1885
g67
(dp1886
g87
g88
ssg76
g1880
sg69
(lp1887
S'is_restful'
p1888
asbag62
(g83
g64
NtRp1889
(dp1890
g67
(dp1891
g94
g95
ssg76
g1880
sg69
(lp1892
S':'
asbag62
(g83
g64
NtRp1893
(dp1894
g67
(dp1895
sg76
g1880
sg69
(lp1896
g62
(g63
g64
NtRp1897
(dp1898
g67
(dp1899
g75
I5
ssg76
g1893
sg69
(lp1900
g595
asbasbasbag62
(g78
g64
NtRp1901
(dp1902
g67
(dp1903
sg76
g72
sg69
(lp1904
g62
(g83
g64
NtRp1905
(dp1906
g67
(dp1907
g87
g88
ssg76
g1901
sg69
(lp1908
S'now'
p1909
asbag62
(g83
g64
NtRp1910
(dp1911
g67
(dp1912
g94
g95
ssg76
g1901
sg69
(lp1913
S':'
asbag62
(g83
g64
NtRp1914
(dp1915
g67
(dp1916
sg76
g1901
sg69
(lp1917
g62
(g63
g64
NtRp1918
(dp1919
g67
(dp1920
g75
I5
ssg76
g1914
sg69
(lp1921
S'datetime.datetime(2013, 5, 16, 13, 2, 49, 395831)'
p1922
asbasbasbag62
(g78
g64
NtRp1923
(dp1924
g67
(dp1925
sg76
g72
sg69
(lp1926
g62
(g83
g64
NtRp1927
(dp1928
g67
(dp1929
g87
g88
ssg76
g1923
sg69
(lp1930
S'post_vars'
p1931
asbag62
(g83
g64
NtRp1932
(dp1933
g67
(dp1934
g94
g95
ssg76
g1923
sg69
(lp1935
S':'
asbag62
(g83
g64
NtRp1936
(dp1937
g67
(dp1938
sg76
g1923
sg69
(lp1939
g62
(g63
g64
NtRp1940
(dp1941
g67
(dp1942
g75
I5
ssg76
g1936
sg69
(lp1943
g62
(g71
g64
NtRp1944
(dp1945
g67
(dp1946
g75
I4
ssg76
Nsg69
(lp1947
sbasbasbasbag62
(g78
g64
NtRp1948
(dp1949
g67
(dp1950
sg76
g72
sg69
(lp1951
g62
(g83
g64
NtRp1952
(dp1953
g67
(dp1954
g87
g88
ssg76
g1948
sg69
(lp1955
S'url'
p1956
asbag62
(g83
g64
NtRp1957
(dp1958
g67
(dp1959
g94
g95
ssg76
g1948
sg69
(lp1960
S':'
asbag62
(g83
g64
NtRp1961
(dp1962
g67
(dp1963
sg76
g1948
sg69
(lp1964
g62
(g63
g64
NtRp1965
(dp1966
g67
(dp1967
g75
I5
ssg76
g1961
sg69
(lp1968
S'/phyloShiny/reconciliotastic/getPhylotasticTree'
p1969
asbasbasbag62
(g78
g64
NtRp1970
(dp1971
g67
(dp1972
sg76
g72
sg69
(lp1973
g62
(g83
g64
NtRp1974
(dp1975
g67
(dp1976
g87
g88
ssg76
g1970
sg69
(lp1977
S'utcnow'
p1978
asbag62
(g83
g64
NtRp1979
(dp1980
g67
(dp1981
g94
g95
ssg76
g1970
sg69
(lp1982
S':'
asbag62
(g83
g64
NtRp1983
(dp1984
g67
(dp1985
sg76
g1970
sg69
(lp1986
g62
(g63
g64
NtRp1987
(dp1988
g67
(dp1989
g75
I5
ssg76
g1983
sg69
(lp1990
S'datetime.datetime(2013, 5, 16, 7, 32, 49, 395884)'
p1991
asbasbasbag62
(g78
g64
NtRp1992
(dp1993
g67
(dp1994
sg76
g72
sg69
(lp1995
g62
(g83
g64
NtRp1996
(dp1997
g67
(dp1998
g87
g88
ssg76
g1992
sg69
(lp1999
S'uuid'
p2000
asbag62
(g83
g64
NtRp2001
(dp2002
g67
(dp2003
g94
g95
ssg76
g1992
sg69
(lp2004
S':'
asbag62
(g83
g64
NtRp2005
(dp2006
g67
(dp2007
sg76
g1992
sg69
(lp2008
g62
(g63
g64
NtRp2009
(dp2010
g67
(dp2011
g75
I5
ssg76
g2005
sg69
(lp2012
S'phyloShiny/127.0.0.1.2013-05-16.13-02-49.985ee2d5-80f3-42d6-8df2-eb9c9a81822b'
p2013
asbasbasbag62
(g78
g64
NtRp2014
(dp2015
g67
(dp2016
sg76
g72
sg69
(lp2017
g62
(g83
g64
NtRp2018
(dp2019
g67
(dp2020
g87
g88
ssg76
g2014
sg69
(lp2021
S'vars'
p2022
asbag62
(g83
g64
NtRp2023
(dp2024
g67
(dp2025
g94
g95
ssg76
g2014
sg69
(lp2026
S':'
asbag62
(g83
g64
NtRp2027
(dp2028
g67
(dp2029
sg76
g2014
sg69
(lp2030
g62
(g63
g64
NtRp2031
(dp2032
g67
(dp2033
g75
I5
ssg76
g2027
sg69
(lp2034
g62
(g71
g64
NtRp2035
(dp2036
g67
(dp2037
g75
I4
ssg76
Nsg69
(lp2038
g62
(g78
g64
NtRp2039
(dp2040
g67
(dp2041
sg76
g2035
sg69
(lp2042
g62
(g83
g64
NtRp2043
(dp2044
g67
(dp2045
g87
g88
ssg76
g2039
sg69
(lp2046
g1506
asbag62
(g83
g64
NtRp2047
(dp2048
g67
(dp2049
g94
g95
ssg76
g2039
sg69
(lp2050
S':'
asbag62
(g83
g64
NtRp2051
(dp2052
g67
(dp2053
sg76
g2039
sg69
(lp2054
g62
(g63
g64
NtRp2055
(dp2056
g67
(dp2057
g75
I4
ssg76
g2051
sg69
(lp2058
g1519
asbasbasbasbasbasbasbag62
(g78
g64
NtRp2059
(dp2060
g67
(dp2061
sg76
g72
sg69
(lp2062
g62
(g83
g64
NtRp2063
(dp2064
g67
(dp2065
g87
g88
ssg76
g2059
sg69
(lp2066
S'wsgi'
p2067
asbag62
(g83
g64
NtRp2068
(dp2069
g67
(dp2070
g94
g95
ssg76
g2059
sg69
(lp2071
S':'
asbag62
(g83
g64
NtRp2072
(dp2073
g67
(dp2074
sg76
g2059
sg69
(lp2075
g62
(g63
g64
NtRp2076
(dp2077
g67
(dp2078
g75
I5
ssg76
g2072
sg69
(lp2079
g62
(g71
g64
NtRp2080
(dp2081
g67
(dp2082
g75
I4
ssg76
Nsg69
(lp2083
g62
(g78
g64
NtRp2084
(dp2085
g67
(dp2086
sg76
g2080
sg69
(lp2087
g62
(g83
g64
NtRp2088
(dp2089
g67
(dp2090
g87
g88
ssg76
g2084
sg69
(lp2091
S'environ'
p2092
asbag62
(g83
g64
NtRp2093
(dp2094
g67
(dp2095
g94
g95
ssg76
g2084
sg69
(lp2096
S':'
asbag62
(g83
g64
NtRp2097
(dp2098
g67
(dp2099
sg76
g2084
sg69
(lp2100
g62
(g63
g64
NtRp2101
(dp2102
g67
(dp2103
g75
I4
ssg76
g2097
sg69
(lp2104
g62
(g71
g64
NtRp2105
(dp2106
g67
(dp2107
g75
I3
ssg76
Nsg69
(lp2108
g62
(g78
g64
NtRp2109
(dp2110
g67
(dp2111
sg76
g2105
sg69
(lp2112
g62
(g83
g64
NtRp2113
(dp2114
g67
(dp2115
g87
g88
ssg76
g2109
sg69
(lp2116
S'HTTP_ACCEPT'
p2117
asbag62
(g83
g64
NtRp2118
(dp2119
g67
(dp2120
g94
g95
ssg76
g2109
sg69
(lp2121
S':'
asbag62
(g83
g64
NtRp2122
(dp2123
g67
(dp2124
sg76
g2109
sg69
(lp2125
g62
(g63
g64
NtRp2126
(dp2127
g67
(dp2128
g75
I3
ssg76
g2122
sg69
(lp2129
g639
asbasbasbag62
(g78
g64
NtRp2130
(dp2131
g67
(dp2132
sg76
g2105
sg69
(lp2133
g62
(g83
g64
NtRp2134
(dp2135
g67
(dp2136
g87
g88
ssg76
g2130
sg69
(lp2137
S'HTTP_ACCEPT_ENCODING'
p2138
asbag62
(g83
g64
NtRp2139
(dp2140
g67
(dp2141
g94
g95
ssg76
g2130
sg69
(lp2142
S':'
asbag62
(g83
g64
NtRp2143
(dp2144
g67
(dp2145
sg76
g2130
sg69
(lp2146
g62
(g63
g64
NtRp2147
(dp2148
g67
(dp2149
g75
I3
ssg76
g2143
sg69
(lp2150
g661
asbasbasbag62
(g78
g64
NtRp2151
(dp2152
g67
(dp2153
sg76
g2105
sg69
(lp2154
g62
(g83
g64
NtRp2155
(dp2156
g67
(dp2157
g87
g88
ssg76
g2151
sg69
(lp2158
S'HTTP_ACCEPT_LANGUAGE'
p2159
asbag62
(g83
g64
NtRp2160
(dp2161
g67
(dp2162
g94
g95
ssg76
g2151
sg69
(lp2163
S':'
asbag62
(g83
g64
NtRp2164
(dp2165
g67
(dp2166
sg76
g2151
sg69
(lp2167
g62
(g63
g64
NtRp2168
(dp2169
g67
(dp2170
g75
I3
ssg76
g2164
sg69
(lp2171
g683
asbasbasbag62
(g78
g64
NtRp2172
(dp2173
g67
(dp2174
sg76
g2105
sg69
(lp2175
g62
(g83
g64
NtRp2176
(dp2177
g67
(dp2178
g87
g88
ssg76
g2172
sg69
(lp2179
S'HTTP_CONNECTION'
p2180
asbag62
(g83
g64
NtRp2181
(dp2182
g67
(dp2183
g94
g95
ssg76
g2172
sg69
(lp2184
S':'
asbag62
(g83
g64
NtRp2185
(dp2186
g67
(dp2187
sg76
g2172
sg69
(lp2188
g62
(g63
g64
NtRp2189
(dp2190
g67
(dp2191
g75
I3
ssg76
g2185
sg69
(lp2192
g705
asbasbasbag62
(g78
g64
NtRp2193
(dp2194
g67
(dp2195
sg76
g2105
sg69
(lp2196
g62
(g83
g64
NtRp2197
(dp2198
g67
(dp2199
g87
g88
ssg76
g2193
sg69
(lp2200
S'HTTP_COOKIE'
p2201
asbag62
(g83
g64
NtRp2202
(dp2203
g67
(dp2204
g94
g95
ssg76
g2193
sg69
(lp2205
S':'
asbag62
(g83
g64
NtRp2206
(dp2207
g67
(dp2208
sg76
g2193
sg69
(lp2209
g62
(g63
g64
NtRp2210
(dp2211
g67
(dp2212
g75
I3
ssg76
g2206
sg69
(lp2213
g727
asbasbasbag62
(g78
g64
NtRp2214
(dp2215
g67
(dp2216
sg76
g2105
sg69
(lp2217
g62
(g83
g64
NtRp2218
(dp2219
g67
(dp2220
g87
g88
ssg76
g2214
sg69
(lp2221
S'HTTP_HOST'
p2222
asbag62
(g83
g64
NtRp2223
(dp2224
g67
(dp2225
g94
g95
ssg76
g2214
sg69
(lp2226
S':'
asbag62
(g83
g64
NtRp2227
(dp2228
g67
(dp2229
sg76
g2214
sg69
(lp2230
g62
(g63
g64
NtRp2231
(dp2232
g67
(dp2233
g75
I3
ssg76
g2227
sg69
(lp2234
g749
asbasbasbag62
(g78
g64
NtRp2235
(dp2236
g67
(dp2237
sg76
g2105
sg69
(lp2238
g62
(g83
g64
NtRp2239
(dp2240
g67
(dp2241
g87
g88
ssg76
g2235
sg69
(lp2242
S'HTTP_REFERER'
p2243
asbag62
(g83
g64
NtRp2244
(dp2245
g67
(dp2246
g94
g95
ssg76
g2235
sg69
(lp2247
S':'
asbag62
(g83
g64
NtRp2248
(dp2249
g67
(dp2250
sg76
g2235
sg69
(lp2251
g62
(g63
g64
NtRp2252
(dp2253
g67
(dp2254
g75
I3
ssg76
g2248
sg69
(lp2255
g771
asbasbasbag62
(g78
g64
NtRp2256
(dp2257
g67
(dp2258
sg76
g2105
sg69
(lp2259
g62
(g83
g64
NtRp2260
(dp2261
g67
(dp2262
g87
g88
ssg76
g2256
sg69
(lp2263
S'HTTP_USER_AGENT'
p2264
asbag62
(g83
g64
NtRp2265
(dp2266
g67
(dp2267
g94
g95
ssg76
g2256
sg69
(lp2268
S':'
asbag62
(g83
g64
NtRp2269
(dp2270
g67
(dp2271
sg76
g2256
sg69
(lp2272
g62
(g63
g64
NtRp2273
(dp2274
g67
(dp2275
g75
I3
ssg76
g2269
sg69
(lp2276
g793
asbasbasbag62
(g78
g64
NtRp2277
(dp2278
g67
(dp2279
sg76
g2105
sg69
(lp2280
g62
(g83
g64
NtRp2281
(dp2282
g67
(dp2283
g87
g88
ssg76
g2277
sg69
(lp2284
S'HTTP_X_REQUESTED_WITH'
p2285
asbag62
(g83
g64
NtRp2286
(dp2287
g67
(dp2288
g94
g95
ssg76
g2277
sg69
(lp2289
S':'
asbag62
(g83
g64
NtRp2290
(dp2291
g67
(dp2292
sg76
g2277
sg69
(lp2293
g62
(g63
g64
NtRp2294
(dp2295
g67
(dp2296
g75
I3
ssg76
g2290
sg69
(lp2297
g815
asbasbasbag62
(g78
g64
NtRp2298
(dp2299
g67
(dp2300
sg76
g2105
sg69
(lp2301
g62
(g83
g64
NtRp2302
(dp2303
g67
(dp2304
g87
g88
ssg76
g2298
sg69
(lp2305
S'PATH_INFO'
p2306
asbag62
(g83
g64
NtRp2307
(dp2308
g67
(dp2309
g94
g95
ssg76
g2298
sg69
(lp2310
S':'
asbag62
(g83
g64
NtRp2311
(dp2312
g67
(dp2313
sg76
g2298
sg69
(lp2314
g62
(g63
g64
NtRp2315
(dp2316
g67
(dp2317
g75
I3
ssg76
g2311
sg69
(lp2318
g879
asbasbasbag62
(g78
g64
NtRp2319
(dp2320
g67
(dp2321
sg76
g2105
sg69
(lp2322
g62
(g83
g64
NtRp2323
(dp2324
g67
(dp2325
g87
g88
ssg76
g2319
sg69
(lp2326
S'QUERY_STRING'
p2327
asbag62
(g83
g64
NtRp2328
(dp2329
g67
(dp2330
g94
g95
ssg76
g2319
sg69
(lp2331
S':'
asbag62
(g83
g64
NtRp2332
(dp2333
g67
(dp2334
sg76
g2319
sg69
(lp2335
g62
(g63
g64
NtRp2336
(dp2337
g67
(dp2338
g75
I3
ssg76
g2332
sg69
(lp2339
g901
asbasbasbag62
(g78
g64
NtRp2340
(dp2341
g67
(dp2342
sg76
g2105
sg69
(lp2343
g62
(g83
g64
NtRp2344
(dp2345
g67
(dp2346
g87
g88
ssg76
g2340
sg69
(lp2347
S'REMOTE_ADDR'
p2348
asbag62
(g83
g64
NtRp2349
(dp2350
g67
(dp2351
g94
g95
ssg76
g2340
sg69
(lp2352
S':'
asbag62
(g83
g64
NtRp2353
(dp2354
g67
(dp2355
sg76
g2340
sg69
(lp2356
g62
(g63
g64
NtRp2357
(dp2358
g67
(dp2359
g75
I3
ssg76
g2353
sg69
(lp2360
g195
asbasbasbag62
(g78
g64
NtRp2361
(dp2362
g67
(dp2363
sg76
g2105
sg69
(lp2364
g62
(g83
g64
NtRp2365
(dp2366
g67
(dp2367
g87
g88
ssg76
g2361
sg69
(lp2368
S'REMOTE_PORT'
p2369
asbag62
(g83
g64
NtRp2370
(dp2371
g67
(dp2372
g94
g95
ssg76
g2361
sg69
(lp2373
S':'
asbag62
(g83
g64
NtRp2374
(dp2375
g67
(dp2376
sg76
g2361
sg69
(lp2377
g62
(g63
g64
NtRp2378
(dp2379
g67
(dp2380
g75
I3
ssg76
g2374
sg69
(lp2381
g944
asbasbasbag62
(g78
g64
NtRp2382
(dp2383
g67
(dp2384
sg76
g2105
sg69
(lp2385
g62
(g83
g64
NtRp2386
(dp2387
g67
(dp2388
g87
g88
ssg76
g2382
sg69
(lp2389
S'REQUEST_METHOD'
p2390
asbag62
(g83
g64
NtRp2391
(dp2392
g67
(dp2393
g94
g95
ssg76
g2382
sg69
(lp2394
S':'
asbag62
(g83
g64
NtRp2395
(dp2396
g67
(dp2397
sg76
g2382
sg69
(lp2398
g62
(g63
g64
NtRp2399
(dp2400
g67
(dp2401
g75
I3
ssg76
g2395
sg69
(lp2402
g966
asbasbasbag62
(g78
g64
NtRp2403
(dp2404
g67
(dp2405
sg76
g2105
sg69
(lp2406
g62
(g83
g64
NtRp2407
(dp2408
g67
(dp2409
g87
g88
ssg76
g2403
sg69
(lp2410
S'SCRIPT_NAME'
p2411
asbag62
(g83
g64
NtRp2412
(dp2413
g67
(dp2414
g94
g95
ssg76
g2403
sg69
(lp2415
S':'
asbag62
(g83
g64
NtRp2416
(dp2417
g67
(dp2418
sg76
g2403
sg69
(lp2419
g62
(g63
g64
NtRp2420
(dp2421
g67
(dp2422
g75
I3
ssg76
g2416
sg69
(lp2423
S''
asbasbasbag62
(g78
g64
NtRp2424
(dp2425
g67
(dp2426
sg76
g2105
sg69
(lp2427
g62
(g83
g64
NtRp2428
(dp2429
g67
(dp2430
g87
g88
ssg76
g2424
sg69
(lp2431
S'SERVER_NAME'
p2432
asbag62
(g83
g64
NtRp2433
(dp2434
g67
(dp2435
g94
g95
ssg76
g2424
sg69
(lp2436
S':'
asbag62
(g83
g64
NtRp2437
(dp2438
g67
(dp2439
sg76
g2424
sg69
(lp2440
g62
(g63
g64
NtRp2441
(dp2442
g67
(dp2443
g75
I3
ssg76
g2437
sg69
(lp2444
g1009
asbasbasbag62
(g78
g64
NtRp2445
(dp2446
g67
(dp2447
sg76
g2105
sg69
(lp2448
g62
(g83
g64
NtRp2449
(dp2450
g67
(dp2451
g87
g88
ssg76
g2445
sg69
(lp2452
S'SERVER_PORT'
p2453
asbag62
(g83
g64
NtRp2454
(dp2455
g67
(dp2456
g94
g95
ssg76
g2445
sg69
(lp2457
S':'
asbag62
(g83
g64
NtRp2458
(dp2459
g67
(dp2460
sg76
g2445
sg69
(lp2461
g62
(g63
g64
NtRp2462
(dp2463
g67
(dp2464
g75
I3
ssg76
g2458
sg69
(lp2465
g1031
asbasbasbag62
(g78
g64
NtRp2466
(dp2467
g67
(dp2468
sg76
g2105
sg69
(lp2469
g62
(g83
g64
NtRp2470
(dp2471
g67
(dp2472
g87
g88
ssg76
g2466
sg69
(lp2473
S'SERVER_PROTOCOL'
p2474
asbag62
(g83
g64
NtRp2475
(dp2476
g67
(dp2477
g94
g95
ssg76
g2466
sg69
(lp2478
S':'
asbag62
(g83
g64
NtRp2479
(dp2480
g67
(dp2481
sg76
g2466
sg69
(lp2482
g62
(g63
g64
NtRp2483
(dp2484
g67
(dp2485
g75
I3
ssg76
g2479
sg69
(lp2486
g1053
asbasbasbag62
(g78
g64
NtRp2487
(dp2488
g67
(dp2489
sg76
g2105
sg69
(lp2490
g62
(g83
g64
NtRp2491
(dp2492
g67
(dp2493
g87
g88
ssg76
g2487
sg69
(lp2494
S'SERVER_SOFTWARE'
p2495
asbag62
(g83
g64
NtRp2496
(dp2497
g67
(dp2498
g94
g95
ssg76
g2487
sg69
(lp2499
S':'
asbag62
(g83
g64
NtRp2500
(dp2501
g67
(dp2502
sg76
g2487
sg69
(lp2503
g62
(g63
g64
NtRp2504
(dp2505
g67
(dp2506
g75
I3
ssg76
g2500
sg69
(lp2507
g1075
asbasbasbag62
(g78
g64
NtRp2508
(dp2509
g67
(dp2510
sg76
g2105
sg69
(lp2511
g62
(g83
g64
NtRp2512
(dp2513
g67
(dp2514
g87
g88
ssg76
g2508
sg69
(lp2515
S'wsgi.errors'
p2516
asbag62
(g83
g64
NtRp2517
(dp2518
g67
(dp2519
g94
g95
ssg76
g2508
sg69
(lp2520
S':'
asbag62
(g83
g64
NtRp2521
(dp2522
g67
(dp2523
sg76
g2508
sg69
(lp2524
g62
(g63
g64
NtRp2525
(dp2526
g67
(dp2527
g75
I3
ssg76
g2521
sg69
(lp2528
S"<open file '<stderr>', mode 'w' at 0xb73210d0>"
p2529
asbasbasbag62
(g78
g64
NtRp2530
(dp2531
g67
(dp2532
sg76
g2105
sg69
(lp2533
g62
(g83
g64
NtRp2534
(dp2535
g67
(dp2536
g87
g88
ssg76
g2530
sg69
(lp2537
S'wsgi.file_wrapper'
p2538
asbag62
(g83
g64
NtRp2539
(dp2540
g67
(dp2541
g94
g95
ssg76
g2530
sg69
(lp2542
S':'
asbag62
(g83
g64
NtRp2543
(dp2544
g67
(dp2545
sg76
g2530
sg69
(lp2546
g62
(g63
g64
NtRp2547
(dp2548
g67
(dp2549
g75
I3
ssg76
g2543
sg69
(lp2550
S'<class wsgiref.util.FileWrapper at 0x8c4f23c>'
p2551
asbasbasbag62
(g78
g64
NtRp2552
(dp2553
g67
(dp2554
sg76
g2105
sg69
(lp2555
g62
(g83
g64
NtRp2556
(dp2557
g67
(dp2558
g87
g88
ssg76
g2552
sg69
(lp2559
S'wsgi.input'
p2560
asbag62
(g83
g64
NtRp2561
(dp2562
g67
(dp2563
g94
g95
ssg76
g2552
sg69
(lp2564
S':'
asbag62
(g83
g64
NtRp2565
(dp2566
g67
(dp2567
sg76
g2552
sg69
(lp2568
g62
(g63
g64
NtRp2569
(dp2570
g67
(dp2571
g75
I3
ssg76
g2565
sg69
(lp2572
S'<cStringIO.StringO object at 0xab565540>'
p2573
asbasbasbag62
(g78
g64
NtRp2574
(dp2575
g67
(dp2576
sg76
g2105
sg69
(lp2577
g62
(g83
g64
NtRp2578
(dp2579
g67
(dp2580
g87
g88
ssg76
g2574
sg69
(lp2581
S'wsgi.multiprocess'
p2582
asbag62
(g83
g64
NtRp2583
(dp2584
g67
(dp2585
g94
g95
ssg76
g2574
sg69
(lp2586
S':'
asbag62
(g83
g64
NtRp2587
(dp2588
g67
(dp2589
sg76
g2574
sg69
(lp2590
g62
(g63
g64
NtRp2591
(dp2592
g67
(dp2593
g75
I3
ssg76
g2587
sg69
(lp2594
g595
asbasbasbag62
(g78
g64
NtRp2595
(dp2596
g67
(dp2597
sg76
g2105
sg69
(lp2598
g62
(g83
g64
NtRp2599
(dp2600
g67
(dp2601
g87
g88
ssg76
g2595
sg69
(lp2602
S'wsgi.multithread'
p2603
asbag62
(g83
g64
NtRp2604
(dp2605
g67
(dp2606
g94
g95
ssg76
g2595
sg69
(lp2607
S':'
asbag62
(g83
g64
NtRp2608
(dp2609
g67
(dp2610
sg76
g2595
sg69
(lp2611
g62
(g63
g64
NtRp2612
(dp2613
g67
(dp2614
g75
I3
ssg76
g2608
sg69
(lp2615
g105
asbasbasbag62
(g78
g64
NtRp2616
(dp2617
g67
(dp2618
sg76
g2105
sg69
(lp2619
g62
(g83
g64
NtRp2620
(dp2621
g67
(dp2622
g87
g88
ssg76
g2616
sg69
(lp2623
S'wsgi.run_once'
p2624
asbag62
(g83
g64
NtRp2625
(dp2626
g67
(dp2627
g94
g95
ssg76
g2616
sg69
(lp2628
S':'
asbag62
(g83
g64
NtRp2629
(dp2630
g67
(dp2631
sg76
g2616
sg69
(lp2632
g62
(g63
g64
NtRp2633
(dp2634
g67
(dp2635
g75
I3
ssg76
g2629
sg69
(lp2636
g595
asbasbasbag62
(g78
g64
NtRp2637
(dp2638
g67
(dp2639
sg76
g2105
sg69
(lp2640
g62
(g83
g64
NtRp2641
(dp2642
g67
(dp2643
g87
g88
ssg76
g2637
sg69
(lp2644
S'wsgi.url_scheme'
p2645
asbag62
(g83
g64
NtRp2646
(dp2647
g67
(dp2648
g94
g95
ssg76
g2637
sg69
(lp2649
S':'
asbag62
(g83
g64
NtRp2650
(dp2651
g67
(dp2652
sg76
g2637
sg69
(lp2653
g62
(g63
g64
NtRp2654
(dp2655
g67
(dp2656
g75
I3
ssg76
g2650
sg69
(lp2657
g1357
asbasbasbag62
(g78
g64
NtRp2658
(dp2659
g67
(dp2660
sg76
g2105
sg69
(lp2661
g62
(g83
g64
NtRp2662
(dp2663
g67
(dp2664
g87
g88
ssg76
g2658
sg69
(lp2665
S'wsgi.version'
p2666
asbag62
(g83
g64
NtRp2667
(dp2668
g67
(dp2669
g94
g95
ssg76
g2658
sg69
(lp2670
S':'
asbag62
(g83
g64
NtRp2671
(dp2672
g67
(dp2673
sg76
g2658
sg69
(lp2674
g62
(g63
g64
NtRp2675
(dp2676
g67
(dp2677
g75
I3
ssg76
g2671
sg69
(lp2678
S'1'
asbasbasbasbasbasbasbasbasbasbasbasbasbsS'frames'
p2679
(lp2680
(dp2681
S'file'
p2682
S'/usr/lib/pymodules/python2.7/gluon/restricted.py'
p2683
sS'dump'
p2684
(dp2685
S'environment'
p2686
S"{'A': <class 'gluon.html.A'>, 'Auth': <class 'gluon.tools.Auth'>, 'B': <class 'gluon.html.B'>, 'BEAUTIFY': <class 'gluon.html.BEAUTIFY'>, 'BODY': <class 'gluon.html.BODY'>, 'BR': <class 'gluon.html.BR'>, 'BUTTON': <class 'gluon.html.BUTTON'>, 'CAT': <class 'gluon.html.CAT'>, 'CENTER': <class 'gluon.html.CENTER'>, 'CLEANUP': <class 'gluon.validators.CLEANUP'>, ...}"
p2687
sS'ccode'
p2688
S'<code object <module> at 0x92fb218, file "/home/...oShiny/controllers/reconciliotastic.py", line 11>'
p2689
ssS'lnum'
p2690
I204
sS'lines'
p2691
(dp2692
I199
S'    try:'
p2693
sI200
S'        if type(code) == types.CodeType:'
p2694
sI201
S'            ccode = code'
p2695
sI202
S'        else:'
p2696
sI203
S'            ccode = compile2(code,layer)'
p2697
sI204
S'        exec ccode in environment'
p2698
sI205
S'    except HTTP:'
p2699
sI206
S'        raise'
p2700
sI207
S'    except RestrictedError:'
p2701
sI208
S'        # do not encapsulate (obfuscate) the original RestrictedError'
p2702
ssS'call'
p2703
S"(code='# -*- coding: utf-8 -*-\\n# this file is released ...ponse._vars=response._caller(getPhylotasticTree)\\n', environment={'A': <class 'gluon.html.A'>, 'Auth': <class 'gluon.tools.Auth'>, 'B': <class 'gluon.html.B'>, 'BEAUTIFY': <class 'gluon.html.BEAUTIFY'>, 'BODY': <class 'gluon.html.BODY'>, 'BR': <class 'gluon.html.BR'>, 'BUTTON': <class 'gluon.html.BUTTON'>, 'CAT': <class 'gluon.html.CAT'>, 'CENTER': <class 'gluon.html.CENTER'>, 'CLEANUP': <class 'gluon.validators.CLEANUP'>, ...}, layer='/home/prateek/web2py/applications/phyloShiny/controllers/reconciliotastic.py')"
p2704
sS'func'
p2705
S'restricted'
p2706
sa(dp2707
g2682
S'/home/prateek/web2py/applications/phyloShiny/controllers/reconciliotastic.py'
p2708
sg2684
(dp2709
sg2690
I169
sg2691
(dp2710
I160
S''
sI161
S'    os.system(shellCall)'
p2711
sI162
S''
sI163
S"    reconciledTreeWebFile = getRelativeWebPath('_preprocessed_gene_tree.phylo_gsdi_out.phylo.xml')"
p2712
sI164
S''
sI165
S'    return response.json( dict(vizFile = reconciledTreeWebFile,'
p2713
sI166
S'                               vizLabel = "Reconciled Tree (red=duplication, green=speciation)"'
p2714
sI167
S'                               ) )'
p2715
sI158
S'    shellCall += geneTreeFile'
p2716
sI159
S"    shellCall += ' '+speciesTreeFile"
p2717
ssg2703
S'()'
p2718
sg2705
S'<module>'
p2719
sa(dp2720
g2682
S'/usr/lib/pymodules/python2.7/gluon/globals.py'
p2721
sg2684
(dp2722
S'self'
p2723
S'undefined'
p2724
sS'f'
S'<function getPhylotasticTree>'
p2725
ssg2690
I172
sg2691
(dp2726
I167
S'        self.meta = Storage()      # used by web2py_ajax.html'
p2727
sI168
S'        self.menu = []             # used by the default view layout'
p2728
sI169
S'        self.files = []            # used by web2py_ajax.html'
p2729
sI170
S'        self.generic_patterns = [] # patterns to allow generic views'
p2730
sI171
S'        self._vars = None'
p2731
sI172
S'        self._caller = lambda f: f()'
p2732
sI173
S'        self._view_environment = None'
p2733
sI174
S'        self._custom_commit = None'
p2734
sI175
S'        self._custom_rollback = None'
p2735
sI176
S''
ssg2703
S'(f=<function getPhylotasticTree>)'
p2736
sg2705
S'<lambda>'
p2737
sa(dp2738
g2682
S'/home/prateek/web2py/applications/phyloShiny/controllers/reconciliotastic.py'
p2739
sg2684
(dp2740
S'got_nodes'
p2741
g2724
sS'global countnodes'
p2742
S'<function countnodes>'
p2743
ssg2690
I125
sg2691
(dp2744
I128
S''
sI129
S"    speciesTreeWebFile = getRelativeWebPath('_species_tree.txt')"
p2745
sI120
S'    # the returned species tree, so we can let users know if PTastic'
p2746
sI121
S'    # found everything we searched for. This would require parsing the'
p2747
sI122
S'    # Newick and counting nodes, probably using something like'
p2748
sI123
S'    # BioPython rather than making an external call to Java again.'
p2749
sI124
S''
sI125
S'    got_nodes=countnodes()'
p2750
sI126
S'    #no. of non-terminal nodes received in got_nodes.Now can be printed or checked with user input value to test if all species received.'
p2751
sI127
S'    #then further we can maintain a textview in the frontend indicating the number of nodes(i.e. the number of species)'
p2752
ssg2703
S'()'
p2753
sg2705
S'getPhylotasticTree'
p2754
sa(dp2755
g2682
S'/home/prateek/web2py/applications/phyloShiny/controllers/reconciliotastic.py'
p2756
sg2684
(dp2757
S'global Phylo'
p2758
S"<module 'Bio.Phylo' from '/usr/local/lib/python2.7/dist-packages/Bio/Phylo/__init__.pyc'>"
p2759
sS'tree'
p2760
g2724
sS'Phylo.read'
p2761
S'<function read>'
p2762
ssg2690
I141
sg2691
(dp2763
I136
S''
sI137
S'    #setting a counter for counting nodes i.e.number of species in the species newick tree.'
p2764
sI138
S'    #I have referenced the link http://biopython.org/DIST/docs/tutorial/Tutorial.html#htoc182 to know the get_terminals() function'
p2765
sI139
S''
sI140
S'    count=0\t\t\t\t\t\t\t\t\t#global counter to keep the count of the nodes'
p2766
sI141
S'    tree = Phylo.read("speciesTreeFilename", "newick")\t\t\t\t#tree reads the species labels in newick format'
p2767
sI142
S'    for node in tree.get_terminals(): \t\t\t\t\t#loop to traverse through these nodes'
p2768
sI143
S'    \tcount+=1\t\t\t\t\t\t\t\t\t#updating counter value'
p2769
sI144
S'    return count\t\t\t\t\t\t\t\t#counter value return'
p2770
sI145
S''
ssg2703
S'()'
p2771
sg2705
S'countnodes'
p2772
sa(dp2773
g2682
S'/usr/local/lib/python2.7/dist-packages/Bio/Phylo/_io.py'
p2774
sg2684
(dp2775
S'tree_gen.next'
p2776
S"<method-wrapper 'next' of generator object>"
p2777
sS'tree'
p2778
g2724
sS'tree_gen'
p2779
S'<generator object parse>'
p2780
ssg2690
I64
sg2691
(dp2781
I64
S'        tree = tree_gen.next()'
p2782
sI65
S'    except StopIteration:'
p2783
sI66
S'        raise ValueError("There are no trees in this file.")'
p2784
sI67
S'    try:'
p2785
sI68
S'        tree_gen.next()'
p2786
sI59
S'    Raises a `ValueError` if there are zero or multiple trees -- if this occurs,'
p2787
sI60
S'    use `parse` instead to get the complete sequence of trees.'
p2788
sI61
S'    """'
p2789
sI62
S'    try:'
p2790
sI63
S'        tree_gen = parse(file, format, **kwargs)'
p2791
ssg2703
S"(file='speciesTreeFilename', format='newick', **kwargs={})"
p2792
sg2705
S'read'
p2793
sa(dp2794
g2682
S'/usr/local/lib/python2.7/dist-packages/Bio/Phylo/_io.py'
p2795
sg2684
(dp2796
S'fp'
p2797
g2724
sS'global File'
p2798
S"<module 'Bio.File' from '/usr/local/lib/python2.7/dist-packages/Bio/File.pyc'>"
p2799
sS'file'
p2800
S"'speciesTreeFilename'"
p2801
sS'File.as_handle'
p2802
S'<function as_handle>'
p2803
ssg2690
I51
sg2691
(dp2804
I46
S"    >>> trees = parse('../../Tests/PhyloXML/apaf.xml', 'phyloxml')"
p2805
sI47
S'    >>> for tree in trees:'
p2806
sI48
S'    ...     print tree.rooted'
p2807
sI49
S'    True'
p2808
sI50
S'    """'
p2809
sI51
S"    with File.as_handle(file, 'r') as fp:"
p2810
sI52
S"        for tree in getattr(supported_formats[format], 'parse')(fp, **kwargs):"
p2811
sI53
S'            yield tree'
p2812
sI54
S''
sI55
S''
ssg2703
S"(file='speciesTreeFilename', format='newick', **kwargs={})"
p2813
sg2705
S'parse'
p2814
sa(dp2815
g2682
S'/usr/lib/python2.7/contextlib.py'
p2816
sg2684
(dp2817
S'self'
p2818
S'<contextlib.GeneratorContextManager object>'
p2819
sS'self.gen'
p2820
S'<generator object as_handle>'
p2821
sS'self.gen.next'
p2822
S"<method-wrapper 'next' of generator object>"
p2823
ssg2690
I17
sg2691
(dp2824
I12
S'    def __init__(self, gen):'
p2825
sI13
S'        self.gen = gen'
p2826
sI14
S''
sI15
S'    def __enter__(self):'
p2827
sI16
S'        try:'
p2828
sI17
S'            return self.gen.next()'
p2829
sI18
S'        except StopIteration:'
p2830
sI19
S'            raise RuntimeError("generator didn\'t yield")'
p2831
sI20
S''
sI21
S'    def __exit__(self, type, value, traceback):'
p2832
ssg2703
S'(self=<contextlib.GeneratorContextManager object>)'
p2833
sg2705
S'__enter__'
p2834
sa(dp2835
g2682
S'/usr/local/lib/python2.7/dist-packages/Bio/File.py'
p2836
sg2684
(dp2837
S'fp'
p2838
g2724
sS'builtinopen'
p2839
S'<built-in function open>'
p2840
sS'handleish'
p2841
S"'speciesTreeFilename'"
p2842
sS'mode'
p2843
S"'r'"
p2844
sS'kwargs'
p2845
g19
ssg2690
I77
sg2691
(dp2846
I72
S'    if isinstance(handleish, basestring):'
p2847
sI73
S"        if 'encoding' in kwargs:"
p2848
sI74
S'            with codecs.open(handleish, mode, **kwargs) as fp:'
p2849
sI75
S'                yield fp'
p2850
sI76
S'        else:'
p2851
sI77
S'            with open(handleish, mode, **kwargs) as fp:'
p2852
sI78
S'                yield fp'
p2853
sI79
S'    else:'
p2854
sI80
S'        yield handleish'
p2855
sI81
S''
ssg2703
S"(handleish='speciesTreeFilename', mode='r', **kwargs={})"
p2856
sg2705
S'as_handle'
p2857
sasS'pyver'
p2858
S'Python 2.7.3: /usr/bin/python'
p2859
sS'session'
p2860
g62
(g63
g64
NtRp2861
(dp2862
g67
(dp2863
sg69
(lp2864
g62
(g71
g64
NtRp2865
(dp2866
g67
(dp2867
g75
I5
ssg76
Nsg69
(lp2868
sbasbsS'etype'
p2869
S"<type 'exceptions.IOError'>"
p2870
sS'date'
p2871
S'Thu May 16 13:02:58 2013'
p2872
sS'response'
p2873
g62
(g63
g64
NtRp2874
(dp2875
g67
(dp2876
sg69
(lp2877
g62
(g71
g64
NtRp2878
(dp2879
g67
(dp2880
g75
I5
ssg76
Nsg69
(lp2881
g62
(g78
g64
NtRp2882
(dp2883
g67
(dp2884
sg76
g2878
sg69
(lp2885
g62
(g83
g64
NtRp2886
(dp2887
g67
(dp2888
g87
g88
ssg76
g2882
sg69
(lp2889
g160
asbag62
(g83
g64
NtRp2890
(dp2891
g67
(dp2892
g94
g95
ssg76
g2882
sg69
(lp2893
S':'
asbag62
(g83
g64
NtRp2894
(dp2895
g67
(dp2896
sg76
g2882
sg69
(lp2897
g62
(g63
g64
NtRp2898
(dp2899
g67
(dp2900
g75
I5
ssg76
g2894
sg69
(lp2901
S'<cStringIO.StringO object at 0x92e64c0>'
p2902
asbasbasbag62
(g78
g64
NtRp2903
(dp2904
g67
(dp2905
sg76
g2878
sg69
(lp2906
g62
(g83
g64
NtRp2907
(dp2908
g67
(dp2909
g87
g88
ssg76
g2903
sg69
(lp2910
g226
asbag62
(g83
g64
NtRp2911
(dp2912
g67
(dp2913
g94
g95
ssg76
g2903
sg69
(lp2914
S':'
asbag62
(g83
g64
NtRp2915
(dp2916
g67
(dp2917
sg76
g2903
sg69
(lp2918
g62
(g63
g64
NtRp2919
(dp2920
g67
(dp2921
g75
I5
ssg76
g2915
sg69
(lp2922
g62
(g71
g64
NtRp2923
(dp2924
g67
(dp2925
g75
I4
ssg76
Nsg69
(lp2926
g62
(g78
g64
NtRp2927
(dp2928
g67
(dp2929
sg76
g2923
sg69
(lp2930
g62
(g83
g64
NtRp2931
(dp2932
g67
(dp2933
g87
g88
ssg76
g2927
sg69
(lp2934
S'session_id_phyloshiny'
p2935
asbag62
(g83
g64
NtRp2936
(dp2937
g67
(dp2938
g94
g95
ssg76
g2927
sg69
(lp2939
S':'
asbag62
(g83
g64
NtRp2940
(dp2941
g67
(dp2942
sg76
g2927
sg69
(lp2943
g62
(g63
g64
NtRp2944
(dp2945
g67
(dp2946
g75
I4
ssg76
g2940
sg69
(lp2947
g62
(g71
g64
NtRp2948
(dp2949
g67
(dp2950
g75
I3
ssg76
Nsg69
(lp2951
g62
(g78
g64
NtRp2952
(dp2953
g67
(dp2954
sg76
g2948
sg69
(lp2955
g62
(g83
g64
NtRp2956
(dp2957
g67
(dp2958
g87
g88
ssg76
g2952
sg69
(lp2959
g276
asbag62
(g83
g64
NtRp2960
(dp2961
g67
(dp2962
g94
g95
ssg76
g2952
sg69
(lp2963
S':'
asbag62
(g83
g64
NtRp2964
(dp2965
g67
(dp2966
sg76
g2952
sg69
(lp2967
g62
(g63
g64
NtRp2968
(dp2969
g67
(dp2970
g75
I3
ssg76
g2964
sg69
(lp2971
S''
asbasbasbag62
(g78
g64
NtRp2972
(dp2973
g67
(dp2974
sg76
g2948
sg69
(lp2975
g62
(g83
g64
NtRp2976
(dp2977
g67
(dp2978
g87
g88
ssg76
g2972
sg69
(lp2979
g297
asbag62
(g83
g64
NtRp2980
(dp2981
g67
(dp2982
g94
g95
ssg76
g2972
sg69
(lp2983
S':'
asbag62
(g83
g64
NtRp2984
(dp2985
g67
(dp2986
sg76
g2972
sg69
(lp2987
g62
(g63
g64
NtRp2988
(dp2989
g67
(dp2990
g75
I3
ssg76
g2984
sg69
(lp2991
S''
asbasbasbag62
(g78
g64
NtRp2992
(dp2993
g67
(dp2994
sg76
g2948
sg69
(lp2995
g62
(g83
g64
NtRp2996
(dp2997
g67
(dp2998
g87
g88
ssg76
g2992
sg69
(lp2999
g318
asbag62
(g83
g64
NtRp3000
(dp3001
g67
(dp3002
g94
g95
ssg76
g2992
sg69
(lp3003
S':'
asbag62
(g83
g64
NtRp3004
(dp3005
g67
(dp3006
sg76
g2992
sg69
(lp3007
g62
(g63
g64
NtRp3008
(dp3009
g67
(dp3010
g75
I3
ssg76
g3004
sg69
(lp3011
S''
asbasbasbag62
(g78
g64
NtRp3012
(dp3013
g67
(dp3014
sg76
g2948
sg69
(lp3015
g62
(g83
g64
NtRp3016
(dp3017
g67
(dp3018
g87
g88
ssg76
g3012
sg69
(lp3019
g339
asbag62
(g83
g64
NtRp3020
(dp3021
g67
(dp3022
g94
g95
ssg76
g3012
sg69
(lp3023
S':'
asbag62
(g83
g64
NtRp3024
(dp3025
g67
(dp3026
sg76
g3012
sg69
(lp3027
g62
(g63
g64
NtRp3028
(dp3029
g67
(dp3030
g75
I3
ssg76
g3024
sg69
(lp3031
S''
asbasbasbag62
(g78
g64
NtRp3032
(dp3033
g67
(dp3034
sg76
g2948
sg69
(lp3035
g62
(g83
g64
NtRp3036
(dp3037
g67
(dp3038
g87
g88
ssg76
g3032
sg69
(lp3039
g360
asbag62
(g83
g64
NtRp3040
(dp3041
g67
(dp3042
g94
g95
ssg76
g3032
sg69
(lp3043
S':'
asbag62
(g83
g64
NtRp3044
(dp3045
g67
(dp3046
sg76
g3032
sg69
(lp3047
g62
(g63
g64
NtRp3048
(dp3049
g67
(dp3050
g75
I3
ssg76
g3044
sg69
(lp3051
S''
asbasbasbag62
(g78
g64
NtRp3052
(dp3053
g67
(dp3054
sg76
g2948
sg69
(lp3055
g62
(g83
g64
NtRp3056
(dp3057
g67
(dp3058
g87
g88
ssg76
g3052
sg69
(lp3059
g381
asbag62
(g83
g64
NtRp3060
(dp3061
g67
(dp3062
g94
g95
ssg76
g3052
sg69
(lp3063
S':'
asbag62
(g83
g64
NtRp3064
(dp3065
g67
(dp3066
sg76
g3052
sg69
(lp3067
g62
(g63
g64
NtRp3068
(dp3069
g67
(dp3070
g75
I3
ssg76
g3064
sg69
(lp3071
S'/'
asbasbasbag62
(g78
g64
NtRp3072
(dp3073
g67
(dp3074
sg76
g2948
sg69
(lp3075
g62
(g83
g64
NtRp3076
(dp3077
g67
(dp3078
g87
g88
ssg76
g3072
sg69
(lp3079
g402
asbag62
(g83
g64
NtRp3080
(dp3081
g67
(dp3082
g94
g95
ssg76
g3072
sg69
(lp3083
S':'
asbag62
(g83
g64
NtRp3084
(dp3085
g67
(dp3086
sg76
g3072
sg69
(lp3087
g62
(g63
g64
NtRp3088
(dp3089
g67
(dp3090
g75
I3
ssg76
g3084
sg69
(lp3091
S''
asbasbasbag62
(g78
g64
NtRp3092
(dp3093
g67
(dp3094
sg76
g2948
sg69
(lp3095
g62
(g83
g64
NtRp3096
(dp3097
g67
(dp3098
g87
g88
ssg76
g3092
sg69
(lp3099
g423
asbag62
(g83
g64
NtRp3100
(dp3101
g67
(dp3102
g94
g95
ssg76
g3092
sg69
(lp3103
S':'
asbag62
(g83
g64
NtRp3104
(dp3105
g67
(dp3106
sg76
g3092
sg69
(lp3107
g62
(g63
g64
NtRp3108
(dp3109
g67
(dp3110
g75
I3
ssg76
g3104
sg69
(lp3111
S''
asbasbasbasbasbasbasbasbasbasbasbag62
(g78
g64
NtRp3112
(dp3113
g67
(dp3114
sg76
g2878
sg69
(lp3115
g62
(g83
g64
NtRp3116
(dp3117
g67
(dp3118
g87
g88
ssg76
g3112
sg69
(lp3119
S'files'
p3120
asbag62
(g83
g64
NtRp3121
(dp3122
g67
(dp3123
g94
g95
ssg76
g3112
sg69
(lp3124
S':'
asbag62
(g83
g64
NtRp3125
(dp3126
g67
(dp3127
sg76
g3112
sg69
(lp3128
g62
(g63
g64
NtRp3129
(dp3130
g67
(dp3131
g75
I5
ssg76
g3125
sg69
(lp3132
g62
(g71
g64
NtRp3133
(dp3134
g67
(dp3135
g75
I4
ssg76
Nsg69
(lp3136
sbasbasbasbag62
(g78
g64
NtRp3137
(dp3138
g67
(dp3139
sg76
g2878
sg69
(lp3140
g62
(g83
g64
NtRp3141
(dp3142
g67
(dp3143
g87
g88
ssg76
g3137
sg69
(lp3144
S'flash'
p3145
asbag62
(g83
g64
NtRp3146
(dp3147
g67
(dp3148
g94
g95
ssg76
g3137
sg69
(lp3149
S':'
asbag62
(g83
g64
NtRp3150
(dp3151
g67
(dp3152
sg76
g3137
sg69
(lp3153
g62
(g63
g64
NtRp3154
(dp3155
g67
(dp3156
g75
I5
ssg76
g3150
sg69
(lp3157
S''
asbasbasbag62
(g78
g64
NtRp3158
(dp3159
g67
(dp3160
sg76
g2878
sg69
(lp3161
g62
(g83
g64
NtRp3162
(dp3163
g67
(dp3164
g87
g88
ssg76
g3158
sg69
(lp3165
S'generic_patterns'
p3166
asbag62
(g83
g64
NtRp3167
(dp3168
g67
(dp3169
g94
g95
ssg76
g3158
sg69
(lp3170
S':'
asbag62
(g83
g64
NtRp3171
(dp3172
g67
(dp3173
sg76
g3158
sg69
(lp3174
g62
(g63
g64
NtRp3175
(dp3176
g67
(dp3177
g75
I5
ssg76
g3171
sg69
(lp3178
g62
(g71
g64
NtRp3179
(dp3180
g67
(dp3181
g75
I4
ssg76
Nsg69
(lp3182
g62
(g78
g64
NtRp3183
(dp3184
g67
(dp3185
sg76
g3179
sg69
(lp3186
g62
(g83
g64
NtRp3187
(dp3188
g67
(dp3189
sg76
g3183
sg69
(lp3190
g62
(g63
g64
NtRp3191
(dp3192
g67
(dp3193
g75
I4
ssg76
g3187
sg69
(lp3194
S'*'
asbasbasbasbasbasbasbag62
(g78
g64
NtRp3195
(dp3196
g67
(dp3197
sg76
g2878
sg69
(lp3198
g62
(g83
g64
NtRp3199
(dp3200
g67
(dp3201
g87
g88
ssg76
g3195
sg69
(lp3202
S'headers'
p3203
asbag62
(g83
g64
NtRp3204
(dp3205
g67
(dp3206
g94
g95
ssg76
g3195
sg69
(lp3207
S':'
asbag62
(g83
g64
NtRp3208
(dp3209
g67
(dp3210
sg76
g3195
sg69
(lp3211
g62
(g63
g64
NtRp3212
(dp3213
g67
(dp3214
g75
I5
ssg76
g3208
sg69
(lp3215
g62
(g71
g64
NtRp3216
(dp3217
g67
(dp3218
g75
I4
ssg76
Nsg69
(lp3219
g62
(g78
g64
NtRp3220
(dp3221
g67
(dp3222
sg76
g3216
sg69
(lp3223
g62
(g83
g64
NtRp3224
(dp3225
g67
(dp3226
g87
g88
ssg76
g3220
sg69
(lp3227
S'Cache-Control'
p3228
asbag62
(g83
g64
NtRp3229
(dp3230
g67
(dp3231
g94
g95
ssg76
g3220
sg69
(lp3232
S':'
asbag62
(g83
g64
NtRp3233
(dp3234
g67
(dp3235
sg76
g3220
sg69
(lp3236
g62
(g63
g64
NtRp3237
(dp3238
g67
(dp3239
g75
I4
ssg76
g3233
sg69
(lp3240
S'no-store, no-cache, must-revalidate, post-check=0, pre-check=0'
p3241
asbasbasbag62
(g78
g64
NtRp3242
(dp3243
g67
(dp3244
sg76
g3216
sg69
(lp3245
g62
(g83
g64
NtRp3246
(dp3247
g67
(dp3248
g87
g88
ssg76
g3242
sg69
(lp3249
S'Content-Type'
p3250
asbag62
(g83
g64
NtRp3251
(dp3252
g67
(dp3253
g94
g95
ssg76
g3242
sg69
(lp3254
S':'
asbag62
(g83
g64
NtRp3255
(dp3256
g67
(dp3257
sg76
g3242
sg69
(lp3258
g62
(g63
g64
NtRp3259
(dp3260
g67
(dp3261
g75
I4
ssg76
g3255
sg69
(lp3262
S'text/html; charset=utf-8'
p3263
asbasbasbag62
(g78
g64
NtRp3264
(dp3265
g67
(dp3266
sg76
g3216
sg69
(lp3267
g62
(g83
g64
NtRp3268
(dp3269
g67
(dp3270
g87
g88
ssg76
g3264
sg69
(lp3271
S'Expires'
p3272
asbag62
(g83
g64
NtRp3273
(dp3274
g67
(dp3275
g94
g95
ssg76
g3264
sg69
(lp3276
S':'
asbag62
(g83
g64
NtRp3277
(dp3278
g67
(dp3279
sg76
g3264
sg69
(lp3280
g62
(g63
g64
NtRp3281
(dp3282
g67
(dp3283
g75
I4
ssg76
g3277
sg69
(lp3284
S'Thu, 16 May 2013 07:32:49 GMT'
p3285
asbasbasbag62
(g78
g64
NtRp3286
(dp3287
g67
(dp3288
sg76
g3216
sg69
(lp3289
g62
(g83
g64
NtRp3290
(dp3291
g67
(dp3292
g87
g88
ssg76
g3286
sg69
(lp3293
S'Pragma'
p3294
asbag62
(g83
g64
NtRp3295
(dp3296
g67
(dp3297
g94
g95
ssg76
g3286
sg69
(lp3298
S':'
asbag62
(g83
g64
NtRp3299
(dp3300
g67
(dp3301
sg76
g3286
sg69
(lp3302
g62
(g63
g64
NtRp3303
(dp3304
g67
(dp3305
g75
I4
ssg76
g3299
sg69
(lp3306
S'no-cache'
p3307
asbasbasbag62
(g78
g64
NtRp3308
(dp3309
g67
(dp3310
sg76
g3216
sg69
(lp3311
g62
(g83
g64
NtRp3312
(dp3313
g67
(dp3314
g87
g88
ssg76
g3308
sg69
(lp3315
S'X-Powered-By'
p3316
asbag62
(g83
g64
NtRp3317
(dp3318
g67
(dp3319
g94
g95
ssg76
g3308
sg69
(lp3320
S':'
asbag62
(g83
g64
NtRp3321
(dp3322
g67
(dp3323
sg76
g3308
sg69
(lp3324
g62
(g63
g64
NtRp3325
(dp3326
g67
(dp3327
g75
I4
ssg76
g3321
sg69
(lp3328
S'web2py'
p3329
asbasbasbasbasbasbasbag62
(g78
g64
NtRp3330
(dp3331
g67
(dp3332
sg76
g2878
sg69
(lp3333
g62
(g83
g64
NtRp3334
(dp3335
g67
(dp3336
g87
g88
ssg76
g3330
sg69
(lp3337
S'menu'
p3338
asbag62
(g83
g64
NtRp3339
(dp3340
g67
(dp3341
g94
g95
ssg76
g3330
sg69
(lp3342
S':'
asbag62
(g83
g64
NtRp3343
(dp3344
g67
(dp3345
sg76
g3330
sg69
(lp3346
g62
(g63
g64
NtRp3347
(dp3348
g67
(dp3349
g75
I5
ssg76
g3343
sg69
(lp3350
g62
(g71
g64
NtRp3351
(dp3352
g67
(dp3353
g75
I4
ssg76
Nsg69
(lp3354
g62
(g78
g64
NtRp3355
(dp3356
g67
(dp3357
sg76
g3351
sg69
(lp3358
g62
(g83
g64
NtRp3359
(dp3360
g67
(dp3361
sg76
g3355
sg69
(lp3362
g62
(g63
g64
NtRp3363
(dp3364
g67
(dp3365
g75
I4
ssg76
g3359
sg69
(lp3366
g62
(g71
g64
NtRp3367
(dp3368
g67
(dp3369
g75
I3
ssg76
Nsg69
(lp3370
g62
(g78
g64
NtRp3371
(dp3372
g67
(dp3373
sg76
g3367
sg69
(lp3374
g62
(g83
g64
NtRp3375
(dp3376
g67
(dp3377
sg76
g3371
sg69
(lp3378
g62
(g63
g64
NtRp3379
(dp3380
g67
(dp3381
g75
I3
ssg76
g3375
sg69
(lp3382
cgluon.languages
lazyT_unpickle
p3383
(S't\x04\x00\x00\x00Home'
tRp3384
asbasbasbag62
(g78
g64
NtRp3385
(dp3386
g67
(dp3387
sg76
g3367
sg69
(lp3388
g62
(g83
g64
NtRp3389
(dp3390
g67
(dp3391
sg76
g3385
sg69
(lp3392
g62
(g63
g64
NtRp3393
(dp3394
g67
(dp3395
g75
I3
ssg76
g3389
sg69
(lp3396
g595
asbasbasbag62
(g78
g64
NtRp3397
(dp3398
g67
(dp3399
sg76
g3367
sg69
(lp3400
g62
(g83
g64
NtRp3401
(dp3402
g67
(dp3403
sg76
g3397
sg69
(lp3404
g62
(g63
g64
NtRp3405
(dp3406
g67
(dp3407
g75
I3
ssg76
g3401
sg69
(lp3408
S'/phyloShiny/default/index'
p3409
asbasbasbag62
(g78
g64
NtRp3410
(dp3411
g67
(dp3412
sg76
g3367
sg69
(lp3413
g62
(g83
g64
NtRp3414
(dp3415
g67
(dp3416
sg76
g3410
sg69
(lp3417
g62
(g63
g64
NtRp3418
(dp3419
g67
(dp3420
g75
I3
ssg76
g3414
sg69
(lp3421
g62
(g71
g64
NtRp3422
(dp3423
g67
(dp3424
g75
I2
ssg76
Nsg69
(lp3425
sbasbasbasbasbasbasbasbag62
(g78
g64
NtRp3426
(dp3427
g67
(dp3428
sg76
g3351
sg69
(lp3429
g62
(g83
g64
NtRp3430
(dp3431
g67
(dp3432
sg76
g3426
sg69
(lp3433
g62
(g63
g64
NtRp3434
(dp3435
g67
(dp3436
g75
I4
ssg76
g3430
sg69
(lp3437
g62
(g71
g64
NtRp3438
(dp3439
g67
(dp3440
g75
I3
ssg76
Nsg69
(lp3441
g62
(g78
g64
NtRp3442
(dp3443
g67
(dp3444
sg76
g3438
sg69
(lp3445
g62
(g83
g64
NtRp3446
(dp3447
g67
(dp3448
sg76
g3442
sg69
(lp3449
g62
(g63
g64
NtRp3450
(dp3451
g67
(dp3452
g75
I3
ssg76
g3446
sg69
(lp3453
g62
(cgluon.html
SPAN
p3454
g64
NtRp3455
(dp3456
g67
(dp3457
g87
S'color:yellow'
p3458
ssg76
Nsg69
(lp3459
g3329
asbasbasbasbag62
(g78
g64
NtRp3460
(dp3461
g67
(dp3462
sg76
g3438
sg69
(lp3463
g62
(g83
g64
NtRp3464
(dp3465
g67
(dp3466
sg76
g3460
sg69
(lp3467
g62
(g63
g64
NtRp3468
(dp3469
g67
(dp3470
g75
I3
ssg76
g3464
sg69
(lp3471
g595
asbasbasbag62
(g78
g64
NtRp3472
(dp3473
g67
(dp3474
sg76
g3438
sg69
(lp3475
g62
(g83
g64
NtRp3476
(dp3477
g67
(dp3478
sg76
g3472
sg69
(lp3479
g62
(g63
g64
NtRp3480
(dp3481
g67
(dp3482
g75
I3
ssg76
g3476
sg69
(lp3483
S'None'
p3484
asbasbasbag62
(g78
g64
NtRp3485
(dp3486
g67
(dp3487
sg76
g3438
sg69
(lp3488
g62
(g83
g64
NtRp3489
(dp3490
g67
(dp3491
sg76
g3485
sg69
(lp3492
g62
(g63
g64
NtRp3493
(dp3494
g67
(dp3495
g75
I3
ssg76
g3489
sg69
(lp3496
g62
(g71
g64
NtRp3497
(dp3498
g67
(dp3499
g75
I2
ssg76
Nsg69
(lp3500
g62
(g78
g64
NtRp3501
(dp3502
g67
(dp3503
sg76
g3497
sg69
(lp3504
g62
(g83
g64
NtRp3505
(dp3506
g67
(dp3507
sg76
g3501
sg69
(lp3508
g62
(g63
g64
NtRp3509
(dp3510
g67
(dp3511
g75
I2
ssg76
g3505
sg69
(lp3512
g62
(g71
g64
NtRp3513
(dp3514
g67
(dp3515
g75
I1
ssg76
Nsg69
(lp3516
g62
(g78
g64
NtRp3517
(dp3518
g67
(dp3519
sg76
g3513
sg69
(lp3520
g62
(g83
g64
NtRp3521
(dp3522
g67
(dp3523
sg76
g3517
sg69
(lp3524
g62
(g63
g64
NtRp3525
(dp3526
g67
(dp3527
g75
I1
ssg76
g3521
sg69
(lp3528
g3383
(S's\x08\x00\x00\x00My Sites'
tRp3529
asbasbasbag62
(g78
g64
NtRp3530
(dp3531
g67
(dp3532
sg76
g3513
sg69
(lp3533
g62
(g83
g64
NtRp3534
(dp3535
g67
(dp3536
sg76
g3530
sg69
(lp3537
g62
(g63
g64
NtRp3538
(dp3539
g67
(dp3540
g75
I1
ssg76
g3534
sg69
(lp3541
I00
asbasbasbag62
(g78
g64
NtRp3542
(dp3543
g67
(dp3544
sg76
g3513
sg69
(lp3545
g62
(g83
g64
NtRp3546
(dp3547
g67
(dp3548
sg76
g3542
sg69
(lp3549
g62
(g63
g64
NtRp3550
(dp3551
g67
(dp3552
g75
I1
ssg76
g3546
sg69
(lp3553
S'/admin/default/site'
p3554
asbasbasbasbasbasbasbag62
(g78
g64
NtRp3555
(dp3556
g67
(dp3557
sg76
g3497
sg69
(lp3558
g62
(g83
g64
NtRp3559
(dp3560
g67
(dp3561
sg76
g3555
sg69
(lp3562
g62
(g63
g64
NtRp3563
(dp3564
g67
(dp3565
g75
I2
ssg76
g3559
sg69
(lp3566
g62
(g71
g64
NtRp3567
(dp3568
g67
(dp3569
g75
I1
ssg76
Nsg69
(lp3570
g62
(g78
g64
NtRp3571
(dp3572
g67
(dp3573
sg76
g3567
sg69
(lp3574
g62
(g83
g64
NtRp3575
(dp3576
g67
(dp3577
sg76
g3571
sg69
(lp3578
g62
(g63
g64
NtRp3579
(dp3580
g67
(dp3581
g75
I1
ssg76
g3575
sg69
(lp3582
g3383
(S's\x08\x00\x00\x00This App'
tRp3583
asbasbasbag62
(g78
g64
NtRp3584
(dp3585
g67
(dp3586
sg76
g3567
sg69
(lp3587
g62
(g83
g64
NtRp3588
(dp3589
g67
(dp3590
sg76
g3584
sg69
(lp3591
g62
(g63
g64
NtRp3592
(dp3593
g67
(dp3594
g75
I1
ssg76
g3588
sg69
(lp3595
I00
asbasbasbag62
(g78
g64
NtRp3596
(dp3597
g67
(dp3598
sg76
g3567
sg69
(lp3599
g62
(g83
g64
NtRp3600
(dp3601
g67
(dp3602
sg76
g3596
sg69
(lp3603
g62
(g63
g64
NtRp3604
(dp3605
g67
(dp3606
g75
I1
ssg76
g3600
sg69
(lp3607
S'/admin/default/design/phyloShiny'
p3608
asbasbasbag62
(g78
g64
NtRp3609
(dp3610
g67
(dp3611
sg76
g3567
sg69
(lp3612
g62
(g83
g64
NtRp3613
(dp3614
g67
(dp3615
sg76
g3609
sg69
(lp3616
g62
(g63
g64
NtRp3617
(dp3618
g67
(dp3619
g75
I1
ssg76
g3613
sg69
(lp3620
(lp3621
(g3383
(S't\n\x00\x00\x00Controller'
tRp3622
I00
S'/admin/default/edit/phyloShiny/controllers/reconciliotastic.py'
tp3623
a(g3383
(S't\x04\x00\x00\x00View'
tRp3624
I00
S'/admin/default/edit/phyloShiny/views/reconciliotastic/getPhylotasticTree.html'
tp3625
a(g3383
(S't\x06\x00\x00\x00Layout'
tRp3626
I00
S'/admin/default/edit/phyloShiny/views/layout.html'
tp3627
a(g3383
(S't\n\x00\x00\x00Stylesheet'
tRp3628
I00
S'/admin/default/edit/phyloShiny/static/css/web2py.css'
tp3629
a(g3383
(S's\x08\x00\x00\x00DB Model'
tRp3630
I00
S'/admin/default/edit/phyloShiny/models/db.py'
tp3631
a(g3383
(S's\n\x00\x00\x00Menu Model'
tRp3632
I00
S'/admin/default/edit/phyloShiny/models/menu.py'
tp3633
a(g3383
(S't\x08\x00\x00\x00Database'
tRp3634
I00
S'/phyloShiny/appadmin/index'
tp3635
a(g3383
(S't\x06\x00\x00\x00Errors'
tRp3636
I00
S'/admin/default/errors/phyloShiny'
tp3637
a(g3383
(S't\x05\x00\x00\x00About'
tRp3638
I00
S'/admin/default/about/phyloShiny'
tp3639
aasbasbasbasbasbasbasbag62
(g78
g64
NtRp3640
(dp3641
g67
(dp3642
sg76
g3497
sg69
(lp3643
g62
(g83
g64
NtRp3644
(dp3645
g67
(dp3646
sg76
g3640
sg69
(lp3647
g62
(g63
g64
NtRp3648
(dp3649
g67
(dp3650
g75
I2
ssg76
g3644
sg69
(lp3651
g62
(g71
g64
NtRp3652
(dp3653
g67
(dp3654
g75
I1
ssg76
Nsg69
(lp3655
g62
(g78
g64
NtRp3656
(dp3657
g67
(dp3658
sg76
g3652
sg69
(lp3659
g62
(g83
g64
NtRp3660
(dp3661
g67
(dp3662
sg76
g3656
sg69
(lp3663
g62
(g63
g64
NtRp3664
(dp3665
g67
(dp3666
g75
I1
ssg76
g3660
sg69
(lp3667
S'web2py.com'
p3668
asbasbasbag62
(g78
g64
NtRp3669
(dp3670
g67
(dp3671
sg76
g3652
sg69
(lp3672
g62
(g83
g64
NtRp3673
(dp3674
g67
(dp3675
sg76
g3669
sg69
(lp3676
g62
(g63
g64
NtRp3677
(dp3678
g67
(dp3679
g75
I1
ssg76
g3673
sg69
(lp3680
I00
asbasbasbag62
(g78
g64
NtRp3681
(dp3682
g67
(dp3683
sg76
g3652
sg69
(lp3684
g62
(g83
g64
NtRp3685
(dp3686
g67
(dp3687
sg76
g3681
sg69
(lp3688
g62
(g63
g64
NtRp3689
(dp3690
g67
(dp3691
g75
I1
ssg76
g3685
sg69
(lp3692
S'http://www.web2py.com'
p3693
asbasbasbag62
(g78
g64
NtRp3694
(dp3695
g67
(dp3696
sg76
g3652
sg69
(lp3697
g62
(g83
g64
NtRp3698
(dp3699
g67
(dp3700
sg76
g3694
sg69
(lp3701
g62
(g63
g64
NtRp3702
(dp3703
g67
(dp3704
g75
I1
ssg76
g3698
sg69
(lp3705
(lp3706
(g3383
(S't\x08\x00\x00\x00Download'
tRp3707
I00
S'http://www.web2py.com/examples/default/download'
p3708
tp3709
a(g3383
(S't\x07\x00\x00\x00Support'
tRp3710
I00
S'http://www.web2py.com/examples/default/support'
p3711
tp3712
a(g3383
(S't\x04\x00\x00\x00Demo'
tRp3713
I00
S'http://web2py.com/demo_admin'
p3714
tp3715
a(g3383
(S's\x0e\x00\x00\x00Quick Examples'
tRp3716
I00
S'http://web2py.com/examples/default/examples'
p3717
tp3718
a(g3383
(S't\x03\x00\x00\x00FAQ'
tRp3719
I00
S'http://web2py.com/AlterEgo'
p3720
tp3721
a(g3383
(S't\x06\x00\x00\x00Videos'
tRp3722
I00
S'http://www.web2py.com/examples/default/videos/'
p3723
tp3724
a(g3383
(S's\x11\x00\x00\x00Free Applications'
tRp3725
I00
S'http://web2py.com/appliances'
p3726
tp3727
a(g3383
(S't\x07\x00\x00\x00Plugins'
tRp3728
I00
S'http://web2py.com/plugins'
p3729
tp3730
a(g3383
(S't\x07\x00\x00\x00Layouts'
tRp3731
I00
S'http://web2py.com/layouts'
p3732
tp3733
a(g3383
(S't\x07\x00\x00\x00Recipes'
tRp3734
I00
S'http://web2pyslices.com/'
p3735
tp3736
a(g3383
(S't\x08\x00\x00\x00Semantic'
tRp3737
I00
S'http://web2py.com/semantic'
p3738
tp3739
aasbasbasbasbasbasbasbag62
(g78
g64
NtRp3740
(dp3741
g67
(dp3742
sg76
g3497
sg69
(lp3743
g62
(g83
g64
NtRp3744
(dp3745
g67
(dp3746
sg76
g3740
sg69
(lp3747
g62
(g63
g64
NtRp3748
(dp3749
g67
(dp3750
g75
I2
ssg76
g3744
sg69
(lp3751
g62
(g71
g64
NtRp3752
(dp3753
g67
(dp3754
g75
I1
ssg76
Nsg69
(lp3755
g62
(g78
g64
NtRp3756
(dp3757
g67
(dp3758
sg76
g3752
sg69
(lp3759
g62
(g83
g64
NtRp3760
(dp3761
g67
(dp3762
sg76
g3756
sg69
(lp3763
g62
(g63
g64
NtRp3764
(dp3765
g67
(dp3766
g75
I1
ssg76
g3760
sg69
(lp3767
g3383
(S't\r\x00\x00\x00Documentation'
tRp3768
asbasbasbag62
(g78
g64
NtRp3769
(dp3770
g67
(dp3771
sg76
g3752
sg69
(lp3772
g62
(g83
g64
NtRp3773
(dp3774
g67
(dp3775
sg76
g3769
sg69
(lp3776
g62
(g63
g64
NtRp3777
(dp3778
g67
(dp3779
g75
I1
ssg76
g3773
sg69
(lp3780
I00
asbasbasbag62
(g78
g64
NtRp3781
(dp3782
g67
(dp3783
sg76
g3752
sg69
(lp3784
g62
(g83
g64
NtRp3785
(dp3786
g67
(dp3787
sg76
g3781
sg69
(lp3788
g62
(g63
g64
NtRp3789
(dp3790
g67
(dp3791
g75
I1
ssg76
g3785
sg69
(lp3792
S'http://www.web2py.com/book'
p3793
asbasbasbag62
(g78
g64
NtRp3794
(dp3795
g67
(dp3796
sg76
g3752
sg69
(lp3797
g62
(g83
g64
NtRp3798
(dp3799
g67
(dp3800
sg76
g3794
sg69
(lp3801
g62
(g63
g64
NtRp3802
(dp3803
g67
(dp3804
g75
I1
ssg76
g3798
sg69
(lp3805
(lp3806
(g3383
(S't\x07\x00\x00\x00Preface'
tRp3807
I00
S'http://www.web2py.com/book/default/chapter/00'
p3808
tp3809
a(g3383
(S't\x0c\x00\x00\x00Introduction'
tRp3810
I00
S'http://www.web2py.com/book/default/chapter/01'
p3811
tp3812
a(g3383
(S't\x06\x00\x00\x00Python'
tRp3813
I00
S'http://www.web2py.com/book/default/chapter/02'
p3814
tp3815
a(g3383
(S't\x08\x00\x00\x00Overview'
tRp3816
I00
S'http://www.web2py.com/book/default/chapter/03'
p3817
tp3818
a(g3383
(S's\x08\x00\x00\x00The Core'
tRp3819
I00
S'http://www.web2py.com/book/default/chapter/04'
p3820
tp3821
a(g3383
(S's\t\x00\x00\x00The Views'
tRp3822
I00
S'http://www.web2py.com/book/default/chapter/05'
p3823
tp3824
a(g3383
(S't\x08\x00\x00\x00Database'
tRp3825
I00
S'http://www.web2py.com/book/default/chapter/06'
p3826
tp3827
a(g3383
(S's\x14\x00\x00\x00Forms and Validators'
tRp3828
I00
S'http://www.web2py.com/book/default/chapter/07'
p3829
tp3830
a(g3383
(S's\r\x00\x00\x00Email and SMS'
tRp3831
I00
S'http://www.web2py.com/book/default/chapter/08'
p3832
tp3833
a(g3383
(S's\x0e\x00\x00\x00Access Control'
tRp3834
I00
S'http://www.web2py.com/book/default/chapter/09'
p3835
tp3836
a(g3383
(S't\x08\x00\x00\x00Services'
tRp3837
I00
S'http://www.web2py.com/book/default/chapter/10'
p3838
tp3839
a(g3383
(S's\x0c\x00\x00\x00Ajax Recipes'
tRp3840
I00
S'http://www.web2py.com/book/default/chapter/11'
p3841
tp3842
a(g3383
(S's\x16\x00\x00\x00Components and Plugins'
tRp3843
I00
S'http://www.web2py.com/book/default/chapter/12'
p3844
tp3845
a(g3383
(S's\x12\x00\x00\x00Deployment Recipes'
tRp3846
I00
S'http://www.web2py.com/book/default/chapter/13'
p3847
tp3848
a(g3383
(S's\r\x00\x00\x00Other Recipes'
tRp3849
I00
S'http://www.web2py.com/book/default/chapter/14'
p3850
tp3851
a(g3383
(S's\r\x00\x00\x00Buy this book'
tRp3852
I00
S'http://stores.lulu.com/web2py'
p3853
tp3854
aasbasbasbasbasbasbasbag62
(g78
g64
NtRp3855
(dp3856
g67
(dp3857
sg76
g3497
sg69
(lp3858
g62
(g83
g64
NtRp3859
(dp3860
g67
(dp3861
sg76
g3855
sg69
(lp3862
g62
(g63
g64
NtRp3863
(dp3864
g67
(dp3865
g75
I2
ssg76
g3859
sg69
(lp3866
g62
(g71
g64
NtRp3867
(dp3868
g67
(dp3869
g75
I1
ssg76
Nsg69
(lp3870
g62
(g78
g64
NtRp3871
(dp3872
g67
(dp3873
sg76
g3867
sg69
(lp3874
g62
(g83
g64
NtRp3875
(dp3876
g67
(dp3877
sg76
g3871
sg69
(lp3878
g62
(g63
g64
NtRp3879
(dp3880
g67
(dp3881
g75
I1
ssg76
g3875
sg69
(lp3882
g3383
(S't\t\x00\x00\x00Community'
tRp3883
asbasbasbag62
(g78
g64
NtRp3884
(dp3885
g67
(dp3886
sg76
g3867
sg69
(lp3887
g62
(g83
g64
NtRp3888
(dp3889
g67
(dp3890
sg76
g3884
sg69
(lp3891
g62
(g63
g64
NtRp3892
(dp3893
g67
(dp3894
g75
I1
ssg76
g3888
sg69
(lp3895
I00
asbasbasbag62
(g78
g64
NtRp3896
(dp3897
g67
(dp3898
sg76
g3867
sg69
(lp3899
g62
(g83
g64
NtRp3900
(dp3901
g67
(dp3902
sg76
g3896
sg69
(lp3903
g62
(g63
g64
NtRp3904
(dp3905
g67
(dp3906
g75
I1
ssg76
g3900
sg69
(lp3907
Nasbasbasbag62
(g78
g64
NtRp3908
(dp3909
g67
(dp3910
sg76
g3867
sg69
(lp3911
g62
(g83
g64
NtRp3912
(dp3913
g67
(dp3914
sg76
g3908
sg69
(lp3915
g62
(g63
g64
NtRp3916
(dp3917
g67
(dp3918
g75
I1
ssg76
g3912
sg69
(lp3919
(lp3920
(g3383
(S't\x06\x00\x00\x00Groups'
tRp3921
I00
S'http://www.web2py.com/examples/default/usergroups'
p3922
tp3923
a(g3383
(S't\x07\x00\x00\x00Twitter'
tRp3924
I00
S'http://twitter.com/web2py'
p3925
tp3926
a(g3383
(S's\t\x00\x00\x00Live Chat'
tRp3927
I00
S'http://webchat.freenode.net/?channels=web2py'
p3928
tp3929
aasbasbasbasbasbasbasbag62
(g78
g64
NtRp3930
(dp3931
g67
(dp3932
sg76
g3497
sg69
(lp3933
g62
(g83
g64
NtRp3934
(dp3935
g67
(dp3936
sg76
g3930
sg69
(lp3937
g62
(g63
g64
NtRp3938
(dp3939
g67
(dp3940
g75
I2
ssg76
g3934
sg69
(lp3941
g62
(g71
g64
NtRp3942
(dp3943
g67
(dp3944
g75
I1
ssg76
Nsg69
(lp3945
g62
(g78
g64
NtRp3946
(dp3947
g67
(dp3948
sg76
g3942
sg69
(lp3949
g62
(g83
g64
NtRp3950
(dp3951
g67
(dp3952
sg76
g3946
sg69
(lp3953
g62
(g63
g64
NtRp3954
(dp3955
g67
(dp3956
g75
I1
ssg76
g3950
sg69
(lp3957
g3383
(S't\x07\x00\x00\x00Plugins'
tRp3958
asbasbasbag62
(g78
g64
NtRp3959
(dp3960
g67
(dp3961
sg76
g3942
sg69
(lp3962
g62
(g83
g64
NtRp3963
(dp3964
g67
(dp3965
sg76
g3959
sg69
(lp3966
g62
(g63
g64
NtRp3967
(dp3968
g67
(dp3969
g75
I1
ssg76
g3963
sg69
(lp3970
I00
asbasbasbag62
(g78
g64
NtRp3971
(dp3972
g67
(dp3973
sg76
g3942
sg69
(lp3974
g62
(g83
g64
NtRp3975
(dp3976
g67
(dp3977
sg76
g3971
sg69
(lp3978
g62
(g63
g64
NtRp3979
(dp3980
g67
(dp3981
g75
I1
ssg76
g3975
sg69
(lp3982
Nasbasbasbag62
(g78
g64
NtRp3983
(dp3984
g67
(dp3985
sg76
g3942
sg69
(lp3986
g62
(g83
g64
NtRp3987
(dp3988
g67
(dp3989
sg76
g3983
sg69
(lp3990
g62
(g63
g64
NtRp3991
(dp3992
g67
(dp3993
g75
I1
ssg76
g3987
sg69
(lp3994
(lp3995
(S'plugin_wiki'
p3996
I00
S'http://web2py.com/examples/default/download'
p3997
tp3998
a(g3383
(S's\r\x00\x00\x00Other Plugins'
tRp3999
I00
g3729
tp4000
a(g3383
(S's\x0e\x00\x00\x00Layout Plugins'
tRp4001
I00
g3732
tp4002
aasbasbasbasbasbasbasbasbasbasbasbasbasbasbasbasbasbasbasbag62
(g78
g64
NtRp4003
(dp4004
g67
(dp4005
sg76
g2878
sg69
(lp4006
g62
(g83
g64
NtRp4007
(dp4008
g67
(dp4009
g87
g88
ssg76
g4003
sg69
(lp4010
S'meta'
p4011
asbag62
(g83
g64
NtRp4012
(dp4013
g67
(dp4014
g94
g95
ssg76
g4003
sg69
(lp4015
S':'
asbag62
(g83
g64
NtRp4016
(dp4017
g67
(dp4018
sg76
g4003
sg69
(lp4019
g62
(g63
g64
NtRp4020
(dp4021
g67
(dp4022
g75
I5
ssg76
g4016
sg69
(lp4023
g62
(g71
g64
NtRp4024
(dp4025
g67
(dp4026
g75
I4
ssg76
Nsg69
(lp4027
g62
(g78
g64
NtRp4028
(dp4029
g67
(dp4030
sg76
g4024
sg69
(lp4031
g62
(g83
g64
NtRp4032
(dp4033
g67
(dp4034
g87
g88
ssg76
g4028
sg69
(lp4035
S'author'
p4036
asbag62
(g83
g64
NtRp4037
(dp4038
g67
(dp4039
g94
g95
ssg76
g4028
sg69
(lp4040
S':'
asbag62
(g83
g64
NtRp4041
(dp4042
g67
(dp4043
sg76
g4028
sg69
(lp4044
g62
(g63
g64
NtRp4045
(dp4046
g67
(dp4047
g75
I4
ssg76
g4041
sg69
(lp4048
S'Your Name <you@example.com>'
p4049
asbasbasbag62
(g78
g64
NtRp4050
(dp4051
g67
(dp4052
sg76
g4024
sg69
(lp4053
g62
(g83
g64
NtRp4054
(dp4055
g67
(dp4056
g87
g88
ssg76
g4050
sg69
(lp4057
S'copyright'
p4058
asbag62
(g83
g64
NtRp4059
(dp4060
g67
(dp4061
g94
g95
ssg76
g4050
sg69
(lp4062
S':'
asbag62
(g83
g64
NtRp4063
(dp4064
g67
(dp4065
sg76
g4050
sg69
(lp4066
g62
(g63
g64
NtRp4067
(dp4068
g67
(dp4069
g75
I4
ssg76
g4063
sg69
(lp4070
S'Copyright 2011'
p4071
asbasbasbag62
(g78
g64
NtRp4072
(dp4073
g67
(dp4074
sg76
g4024
sg69
(lp4075
g62
(g83
g64
NtRp4076
(dp4077
g67
(dp4078
g87
g88
ssg76
g4072
sg69
(lp4079
S'description'
p4080
asbag62
(g83
g64
NtRp4081
(dp4082
g67
(dp4083
g94
g95
ssg76
g4072
sg69
(lp4084
S':'
asbag62
(g83
g64
NtRp4085
(dp4086
g67
(dp4087
sg76
g4072
sg69
(lp4088
g62
(g63
g64
NtRp4089
(dp4090
g67
(dp4091
g75
I4
ssg76
g4085
sg69
(lp4092
S'a cool new app'
p4093
asbasbasbag62
(g78
g64
NtRp4094
(dp4095
g67
(dp4096
sg76
g4024
sg69
(lp4097
g62
(g83
g64
NtRp4098
(dp4099
g67
(dp4100
g87
g88
ssg76
g4094
sg69
(lp4101
S'generator'
p4102
asbag62
(g83
g64
NtRp4103
(dp4104
g67
(dp4105
g94
g95
ssg76
g4094
sg69
(lp4106
S':'
asbag62
(g83
g64
NtRp4107
(dp4108
g67
(dp4109
sg76
g4094
sg69
(lp4110
g62
(g63
g64
NtRp4111
(dp4112
g67
(dp4113
g75
I4
ssg76
g4107
sg69
(lp4114
S'Web2py Web Framework'
p4115
asbasbasbag62
(g78
g64
NtRp4116
(dp4117
g67
(dp4118
sg76
g4024
sg69
(lp4119
g62
(g83
g64
NtRp4120
(dp4121
g67
(dp4122
g87
g88
ssg76
g4116
sg69
(lp4123
S'keywords'
p4124
asbag62
(g83
g64
NtRp4125
(dp4126
g67
(dp4127
g94
g95
ssg76
g4116
sg69
(lp4128
S':'
asbag62
(g83
g64
NtRp4129
(dp4130
g67
(dp4131
sg76
g4116
sg69
(lp4132
g62
(g63
g64
NtRp4133
(dp4134
g67
(dp4135
g75
I4
ssg76
g4129
sg69
(lp4136
S'web2py, python, framework'
p4137
asbasbasbasbasbasbasbag62
(g78
g64
NtRp4138
(dp4139
g67
(dp4140
sg76
g2878
sg69
(lp4141
g62
(g83
g64
NtRp4142
(dp4143
g67
(dp4144
g87
g88
ssg76
g4138
sg69
(lp4145
S'postprocessing'
p4146
asbag62
(g83
g64
NtRp4147
(dp4148
g67
(dp4149
g94
g95
ssg76
g4138
sg69
(lp4150
S':'
asbag62
(g83
g64
NtRp4151
(dp4152
g67
(dp4153
sg76
g4138
sg69
(lp4154
g62
(g63
g64
NtRp4155
(dp4156
g67
(dp4157
g75
I5
ssg76
g4151
sg69
(lp4158
g62
(g71
g64
NtRp4159
(dp4160
g67
(dp4161
g75
I4
ssg76
Nsg69
(lp4162
sbasbasbasbag62
(g78
g64
NtRp4163
(dp4164
g67
(dp4165
sg76
g2878
sg69
(lp4166
g62
(g83
g64
NtRp4167
(dp4168
g67
(dp4169
g87
g88
ssg76
g4163
sg69
(lp4170
S'session_filename'
p4171
asbag62
(g83
g64
NtRp4172
(dp4173
g67
(dp4174
g94
g95
ssg76
g4163
sg69
(lp4175
S':'
asbag62
(g83
g64
NtRp4176
(dp4177
g67
(dp4178
sg76
g4163
sg69
(lp4179
g62
(g63
g64
NtRp4180
(dp4181
g67
(dp4182
g75
I5
ssg76
g4176
sg69
(lp4183
S'/home/prateek/web2py/applications/phyloShiny/sessions/127.0.0.1-9af3e9a2-b1f8-4242-8a39-481fc6a95fdd'
p4184
asbasbasbag62
(g78
g64
NtRp4185
(dp4186
g67
(dp4187
sg76
g2878
sg69
(lp4188
g62
(g83
g64
NtRp4189
(dp4190
g67
(dp4191
g87
g88
ssg76
g4185
sg69
(lp4192
S'session_id'
p4193
asbag62
(g83
g64
NtRp4194
(dp4195
g67
(dp4196
g94
g95
ssg76
g4185
sg69
(lp4197
S':'
asbag62
(g83
g64
NtRp4198
(dp4199
g67
(dp4200
sg76
g4185
sg69
(lp4201
g62
(g63
g64
NtRp4202
(dp4203
g67
(dp4204
g75
I5
ssg76
g4198
sg69
(lp4205
S'127.0.0.1-9af3e9a2-b1f8-4242-8a39-481fc6a95fdd'
p4206
asbasbasbag62
(g78
g64
NtRp4207
(dp4208
g67
(dp4209
sg76
g2878
sg69
(lp4210
g62
(g83
g64
NtRp4211
(dp4212
g67
(dp4213
g87
g88
ssg76
g4207
sg69
(lp4214
S'session_id_name'
p4215
asbag62
(g83
g64
NtRp4216
(dp4217
g67
(dp4218
g94
g95
ssg76
g4207
sg69
(lp4219
S':'
asbag62
(g83
g64
NtRp4220
(dp4221
g67
(dp4222
sg76
g4207
sg69
(lp4223
g62
(g63
g64
NtRp4224
(dp4225
g67
(dp4226
g75
I5
ssg76
g4220
sg69
(lp4227
g2935
asbasbasbag62
(g78
g64
NtRp4228
(dp4229
g67
(dp4230
sg76
g2878
sg69
(lp4231
g62
(g83
g64
NtRp4232
(dp4233
g67
(dp4234
g87
g88
ssg76
g4228
sg69
(lp4235
S'session_new'
p4236
asbag62
(g83
g64
NtRp4237
(dp4238
g67
(dp4239
g94
g95
ssg76
g4228
sg69
(lp4240
S':'
asbag62
(g83
g64
NtRp4241
(dp4242
g67
(dp4243
sg76
g4228
sg69
(lp4244
g62
(g63
g64
NtRp4245
(dp4246
g67
(dp4247
g75
I5
ssg76
g4241
sg69
(lp4248
g105
asbasbasbag62
(g78
g64
NtRp4249
(dp4250
g67
(dp4251
sg76
g2878
sg69
(lp4252
g62
(g83
g64
NtRp4253
(dp4254
g67
(dp4255
g87
g88
ssg76
g4249
sg69
(lp4256
S'status'
p4257
asbag62
(g83
g64
NtRp4258
(dp4259
g67
(dp4260
g94
g95
ssg76
g4249
sg69
(lp4261
S':'
asbag62
(g83
g64
NtRp4262
(dp4263
g67
(dp4264
sg76
g4249
sg69
(lp4265
g62
(g63
g64
NtRp4266
(dp4267
g67
(dp4268
g75
I5
ssg76
g4262
sg69
(lp4269
S'200'
p4270
asbasbasbag62
(g78
g64
NtRp4271
(dp4272
g67
(dp4273
sg76
g2878
sg69
(lp4274
g62
(g83
g64
NtRp4275
(dp4276
g67
(dp4277
g87
g88
ssg76
g4271
sg69
(lp4278
S'subtitle'
p4279
asbag62
(g83
g64
NtRp4280
(dp4281
g67
(dp4282
g94
g95
ssg76
g4271
sg69
(lp4283
S':'
asbag62
(g83
g64
NtRp4284
(dp4285
g67
(dp4286
sg76
g4271
sg69
(lp4287
g62
(g63
g64
NtRp4288
(dp4289
g67
(dp4290
g75
I5
ssg76
g4284
sg69
(lp4291
g3383
(S's\r\x00\x00\x00customize me!'
tRp4292
asbasbasbag62
(g78
g64
NtRp4293
(dp4294
g67
(dp4295
sg76
g2878
sg69
(lp4296
g62
(g83
g64
NtRp4297
(dp4298
g67
(dp4299
g87
g88
ssg76
g4293
sg69
(lp4300
S'title'
p4301
asbag62
(g83
g64
NtRp4302
(dp4303
g67
(dp4304
g94
g95
ssg76
g4293
sg69
(lp4305
S':'
asbag62
(g83
g64
NtRp4306
(dp4307
g67
(dp4308
sg76
g4293
sg69
(lp4309
g62
(g63
g64
NtRp4310
(dp4311
g67
(dp4312
g75
I5
ssg76
g4306
sg69
(lp4313
S'Phyloshiny'
p4314
asbasbasbag62
(g78
g64
NtRp4315
(dp4316
g67
(dp4317
sg76
g2878
sg69
(lp4318
g62
(g83
g64
NtRp4319
(dp4320
g67
(dp4321
g87
g88
ssg76
g4315
sg69
(lp4322
g2000
asbag62
(g83
g64
NtRp4323
(dp4324
g67
(dp4325
g94
g95
ssg76
g4315
sg69
(lp4326
S':'
asbag62
(g83
g64
NtRp4327
(dp4328
g67
(dp4329
sg76
g4315
sg69
(lp4330
g62
(g63
g64
NtRp4331
(dp4332
g67
(dp4333
g75
I5
ssg76
g4327
sg69
(lp4334
g2013
asbasbasbag62
(g78
g64
NtRp4335
(dp4336
g67
(dp4337
sg76
g2878
sg69
(lp4338
g62
(g83
g64
NtRp4339
(dp4340
g67
(dp4341
g87
g88
ssg76
g4335
sg69
(lp4342
S'view'
p4343
asbag62
(g83
g64
NtRp4344
(dp4345
g67
(dp4346
g94
g95
ssg76
g4335
sg69
(lp4347
S':'
asbag62
(g83
g64
NtRp4348
(dp4349
g67
(dp4350
sg76
g4335
sg69
(lp4351
g62
(g63
g64
NtRp4352
(dp4353
g67
(dp4354
g75
I5
ssg76
g4348
sg69
(lp4355
S'reconciliotastic/getPhylotasticTree.html'
p4356
asbasbasbasbasbsS'locals'
p4357
(dp4358
S'handleish'
p4359
S"'speciesTreeFilename'"
p4360
sS'mode'
p4361
S"'r'"
p4362
sS'kwargs'
p4363
g19
sssS'traceback'
p4364
S'Traceback (most recent call last):\n  File "/usr/lib/pymodules/python2.7/gluon/restricted.py", line 204, in restricted\n    exec ccode in environment\n  File "/home/prateek/web2py/applications/phyloShiny/controllers/reconciliotastic.py", line 169, in <module>\n  File "/usr/lib/pymodules/python2.7/gluon/globals.py", line 172, in <lambda>\n    self._caller = lambda f: f()\n  File "/home/prateek/web2py/applications/phyloShiny/controllers/reconciliotastic.py", line 125, in getPhylotasticTree\n    got_nodes=countnodes()\n  File "/home/prateek/web2py/applications/phyloShiny/controllers/reconciliotastic.py", line 141, in countnodes\n    tree = Phylo.read("speciesTreeFilename", "newick")\t\t\t\t#tree reads the species labels in newick format\n  File "/usr/local/lib/python2.7/dist-packages/Bio/Phylo/_io.py", line 64, in read\n    tree = tree_gen.next()\n  File "/usr/local/lib/python2.7/dist-packages/Bio/Phylo/_io.py", line 51, in parse\n    with File.as_handle(file, \'r\') as fp:\n  File "/usr/lib/python2.7/contextlib.py", line 17, in __enter__\n    return self.gen.next()\n  File "/usr/local/lib/python2.7/dist-packages/Bio/File.py", line 77, in as_handle\n    with open(handleish, mode, **kwargs) as fp:\nIOError: [Errno 2] No such file or directory: \'speciesTreeFilename\'\n'
p4365
s.