(dp1
S'output'
p2
S"<class 'socket.error'> [Errno 104] Connection reset by peer"
p3
sS'layer'
p4
S'/home/prateek/web2py/applications/phyloShiny/controllers/reconciliotastic.py'
p5
sS'code'
p6
S'# -*- coding: utf-8 -*-\n# this file is released under public domain and you can use without limitations\n\n#########################################################################\n## This is a sample controller\n## - index is the default action of any application\n## - user is required for authentication and authorization\n## - download is for downloading files uploaded in the db (does streaming)\n## - call exposes all registered services (none by default)\n#########################################################################\nimport os\nimport socket\nimport urllib2\nfrom gluon import *\n##from Bio import Phylo\t\n##from Bio.Phylo import Newick\t\t\t\t\t \t\t#import biopython modules as per requirement \n\ndef index():\n    rootFolder = current.request.folder\n    folders = os.listdir(rootFolder+\'static/sample_data/\')\n\n    # Go through the subfolders within sample_data, only keep folders\n    # that match \'demo\'\n    folders = [x.split(\'_\',1)[1] for x in folders if x.split(\'_\')[0] == \'demo\']\n    folderLabels = [x.replace(\'_\', \' \') for x in folders]\n\n    # Return a list of tuples, like [ [\'Mammal_Hemoglobin\', \'Mammal Hemoglobin\'] , ... ]\n    # This lets us have nice display names in the <select> element in the view.\n    foldersAndLabels = zip(folders, folderLabels)\n    return dict(foldersAndLabels=foldersAndLabels)\n\ndef getFileName():\n    # Returns the absolute filename for the "input" gene tree\n    # file. Uses the treeFileName request parameter, as that\'s our\n    # main state-tracking value passed between the view and controller\n    # between each step.\n    rootFolder = current.request.folder\n    absoluteFileName = rootFolder+current.request.vars.treeFileName\n    return absoluteFileName\n\ndef getRelativeWebPath(suffix):\n    # Currently a no-op.\n    return suffix\n\ndef visualize():\n    # Visualize controller. Does some preprocessing before generating\n    # the HTML for viewing a given tree.\n\n    # Takes in the \'treeName\' and \'file\' params, and creates the URL\n    # which can be used to access / download the given tree file. This\n    # is only really necessary because the <applet> tag requires a\n    # parameter, which is then sent to Archaeopteryx, that requires\n    # the *entire* URL of the tree to load. With a non-applet based\n    # visualization this wouldn\'t be an issue.\n    treeFile = current.request.vars.treeName\n    suffix = current.request.vars.file\n\n    # Use the request http_host.\n    hostname = current.request.env.http_host\n\n    # Toggle to phylotastic URL if we detect a NESCENT socket host.\n    socket_hostname = socket.gethostname()\n    if \'phylotastic\' in socket_hostname.lower():\n        hostname = \'phylotastic.nescent.org\'\n\n    treeUrl = URL(\'static\', \'sample_data/demo_\'+treeFile+\'/input_genetree.nwk\'+suffix,\n                 scheme=\'http\', host=hostname)\n\n    return dict(treeUrl=treeUrl,\n                header=current.request.vars.header)\n\ndef getSpeciesList():\n    # Absolute file name of the input tree file.\n    absoluteFileName = getFileName()\n    # "Prefix", i.e. the input tree file without the ending\n    # \'.txt\'. This is used as the prefix for all generated output\n    # files\n    filePrefix = absoluteFileName[:-4]\n\n    shellCall = \'java -Xmx1024m -cp \'\n    shellCall += current.request.folder+\'static/lib/forester.jar \'\n    shellCall += \'org.forester.application.gene_tree_preprocess \'\n    shellCall += absoluteFileName\n    os.system(shellCall)\n\n    removedNodes = [l.strip() for l in open(filePrefix+\'_removed_nodes.txt\').readlines()]\n    keptNodes = [l.strip() for l in open(filePrefix+\'_species_present.txt\').readlines()]\n    \n    geneTreeFile = getRelativeWebPath(\'_preprocessed_gene_tree.phylo.xml\')\n\n    # Note: we always return the \'vizFile\' and \'vizLabel\' data values\n    # from each Ajax call, as they\'re used consistently by the\n    # front-end to generate visualization links.\n    return response.json( dict(vizFile = geneTreeFile,\n                               vizLabel = "Input Gene Tree",\n                               removedNodes = removedNodes, \n                               keptNodes = keptNodes))\n\ndef getPhylotasticTree():\n    absoluteFileName = getFileName()\n    filePrefix = absoluteFileName[:-4]\n\n    # Load the kept nodes and create the comma-delimited species\n    # string for sending to PTastic\n    speciesList = [l.strip() for l in open(filePrefix+\'_species_present.txt\').readlines()]\n    # Need underscores instead of spaces\n    speciesList = [x.replace(\' \', \'_\') for x in speciesList]\n    speciesString = \',\'.join(speciesList)\n\n    phylotasticUrlBase = \'http://phylotastic-wg.nescent.org/script/phylotastic.cgi?species=\'\n    speciesTreeUrl = phylotasticUrlBase+speciesString+\'&tree=mammals&format=newick\'\n    conn = urllib2.urlopen(speciesTreeUrl)\n    speciesTreeString = conn.read()\n    speciesTreeString = speciesTreeString.strip()\n\n    speciesTreeFilename = filePrefix+\'_species_tree.txt\'\n    open(speciesTreeFilename,\'w\').write(speciesTreeString)\n\n    # TODO: It would be nice here to count the number of species in\n    # the returned species tree, so we can let users know if PTastic\n    # found everything we searched for. This would require parsing the\n    # Newick and counting nodes, probably using something like\n    # BioPython rather than making an external call to Java again.\n    \n    got_nodes=countnodes()\n    #no. of non-terminal nodes received in got_nodes.Now can be printed or checked with user input value to test if all species received.\n    #then further we can maintain a textview in the frontend indicating the number of nodes(i.e. the number of species)\n\n    speciesTreeWebFile = getRelativeWebPath(\'_species_tree.txt\')\n\n    return response.json( dict(vizFile = speciesTreeWebFile,\n                               vizLabel = "Phylotastic Species Tree",\n\t\t\t       got_nodes=got_nodes\n                               ) )\n\ndef countnodes():\n\n    #setting a counter for counting nodes i.e.number of species in the species newick tree.\n    #I have referenced the link http://biopython.org/DIST/docs/tutorial/Tutorial.html#htoc182 to know the get_terminals() function\n\n    count=0\t\t\t\t\t\t\t\t\t#global counter to keep the count of the nodes\n##    tree = Phylo.read("speciesTreeFilename", "newick")\t\t\t\t#tree reads the species labels in newick format\n##    for node in tree.get_terminals(): \t\t\t\t\t#loop to traverse through these nodes\n    count+=1\t\t\t\t\t\t\t\t\t#updating counter value\n    return count\t\t\t\t\t\t\t\t#counter value return\n\n\ndef reconcileTrees():\n    absoluteFileName = getFileName()\n    filePrefix = absoluteFileName[:-4]\n\n    geneTreeFile = filePrefix+\'_preprocessed_gene_tree.phylo.xml\'\n    speciesTreeFile = filePrefix+\'_species_tree.txt\'\n\n    shellCall = \'java -Xmx1024m -cp \'\n    shellCall += current.request.folder+\'static/lib/forester.jar \'\n    shellCall += \'org.forester.application.gsdi \'\n    shellCall += \'-m -q \'\n    shellCall += geneTreeFile\n    shellCall += \' \'+speciesTreeFile\n\n    os.system(shellCall)\n    \n    reconciledTreeWebFile = getRelativeWebPath(\'_preprocessed_gene_tree.phylo_gsdi_out.phylo.xml\')\n    \n    return response.json( dict(vizFile = reconciledTreeWebFile,\n                               vizLabel = "Reconciled Tree (red=duplication, green=speciation)"\n                               ) )\n\nresponse._vars=response._caller(getPhylotasticTree)\n'
p7
sS'snapshot'
p8
(dp9
S'exception'
p10
(dp11
S'__module__'
p12
S"'socket'"
p13
sS'__getslice__'
p14
S"<method-wrapper '__getslice__' of error object>"
p15
sS'__str__'
p16
S"<method-wrapper '__str__' of error object>"
p17
sS'__reduce__'
p18
S'<built-in method __reduce__ of error object>'
p19
sS'__dict__'
p20
S'{}'
p21
sS'__sizeof__'
p22
S'<built-in method __sizeof__ of error object>'
p23
sS'__weakref__'
p24
S'None'
p25
sS'__init__'
p26
S"<method-wrapper '__init__' of error object>"
p27
sS'__setattr__'
p28
S"<method-wrapper '__setattr__' of error object>"
p29
sS'__reduce_ex__'
p30
S'<built-in method __reduce_ex__ of error object>'
p31
sS'__new__'
p32
S'<built-in method __new__ of type object>'
p33
sS'errno'
p34
S'104'
p35
sS'__format__'
p36
S'<built-in method __format__ of error object>'
p37
sS'__class__'
p38
S"<class 'socket.error'>"
p39
sS'filename'
p40
S'None'
p41
sS'__doc__'
p42
S'None'
p43
sS'__getitem__'
p44
S"<method-wrapper '__getitem__' of error object>"
p45
sS'__setstate__'
p46
S'<built-in method __setstate__ of error object>'
p47
sS'__getattribute__'
p48
S"<method-wrapper '__getattribute__' of error object>"
p49
sS'args'
p50
S"(104, 'Connection reset by peer')"
p51
sS'__subclasshook__'
p52
S'<built-in method __subclasshook__ of type object>'
p53
sS'__unicode__'
p54
S'<built-in method __unicode__ of error object>'
p55
sS'strerror'
p56
S"'Connection reset by peer'"
p57
sS'__delattr__'
p58
S"<method-wrapper '__delattr__' of error object>"
p59
sS'__repr__'
p60
S"<method-wrapper '__repr__' of error object>"
p61
sS'__hash__'
p62
S"<method-wrapper '__hash__' of error object>"
p63
ssS'evalue'
p64
S'[Errno 104] Connection reset by peer'
p65
sS'request'
p66
ccopy_reg
_reconstructor
p67
(cgluon.html
BEAUTIFY
p68
c__builtin__
object
p69
NtRp70
(dp71
S'attributes'
p72
(dp73
sS'components'
p74
(lp75
g67
(cgluon.html
TABLE
p76
g69
NtRp77
(dp78
g72
(dp79
S'level'
p80
I5
ssS'parent'
p81
Nsg74
(lp82
g67
(cgluon.html
TR
p83
g69
NtRp84
(dp85
g72
(dp86
sg81
g77
sg74
(lp87
g67
(cgluon.html
TD
p88
g69
NtRp89
(dp90
g72
(dp91
S'_style'
p92
S'font-weight:bold;vertical-align:top'
p93
ssg81
g84
sg74
(lp94
S'ajax'
p95
asbag67
(g88
g69
NtRp96
(dp97
g72
(dp98
S'_valign'
p99
S'top'
p100
ssg81
g84
sg74
(lp101
S':'
asbag67
(g88
g69
NtRp102
(dp103
g72
(dp104
sg81
g84
sg74
(lp105
g67
(g68
g69
NtRp106
(dp107
g72
(dp108
g80
I5
ssg81
g102
sg74
(lp109
S'True'
p110
asbasbasbag67
(g83
g69
NtRp111
(dp112
g72
(dp113
sg81
g77
sg74
(lp114
g67
(g88
g69
NtRp115
(dp116
g72
(dp117
g92
g93
ssg81
g111
sg74
(lp118
S'application'
p119
asbag67
(g88
g69
NtRp120
(dp121
g72
(dp122
g99
g100
ssg81
g111
sg74
(lp123
S':'
asbag67
(g88
g69
NtRp124
(dp125
g72
(dp126
sg81
g111
sg74
(lp127
g67
(g68
g69
NtRp128
(dp129
g72
(dp130
g80
I5
ssg81
g124
sg74
(lp131
S'phyloShiny'
p132
asbasbasbag67
(g83
g69
NtRp133
(dp134
g72
(dp135
sg81
g77
sg74
(lp136
g67
(g88
g69
NtRp137
(dp138
g72
(dp139
g92
g93
ssg81
g133
sg74
(lp140
g50
asbag67
(g88
g69
NtRp141
(dp142
g72
(dp143
g99
g100
ssg81
g133
sg74
(lp144
S':'
asbag67
(g88
g69
NtRp145
(dp146
g72
(dp147
sg81
g133
sg74
(lp148
g67
(g68
g69
NtRp149
(dp150
g72
(dp151
g80
I5
ssg81
g145
sg74
(lp152
g67
(g76
g69
NtRp153
(dp154
g72
(dp155
g80
I4
ssg81
Nsg74
(lp156
sbasbasbasbag67
(g83
g69
NtRp157
(dp158
g72
(dp159
sg81
g77
sg74
(lp160
g67
(g88
g69
NtRp161
(dp162
g72
(dp163
g92
g93
ssg81
g157
sg74
(lp164
S'body'
p165
asbag67
(g88
g69
NtRp166
(dp167
g72
(dp168
g99
g100
ssg81
g157
sg74
(lp169
S':'
asbag67
(g88
g69
NtRp170
(dp171
g72
(dp172
sg81
g157
sg74
(lp173
g67
(g68
g69
NtRp174
(dp175
g72
(dp176
g80
I5
ssg81
g170
sg74
(lp177
S'<cStringIO.StringO object at 0xb33c38a0>'
p178
asbasbasbag67
(g83
g69
NtRp179
(dp180
g72
(dp181
sg81
g77
sg74
(lp182
g67
(g88
g69
NtRp183
(dp184
g72
(dp185
g92
g93
ssg81
g179
sg74
(lp186
S'client'
p187
asbag67
(g88
g69
NtRp188
(dp189
g72
(dp190
g99
g100
ssg81
g179
sg74
(lp191
S':'
asbag67
(g88
g69
NtRp192
(dp193
g72
(dp194
sg81
g179
sg74
(lp195
g67
(g68
g69
NtRp196
(dp197
g72
(dp198
g80
I5
ssg81
g192
sg74
(lp199
S'127.0.0.1'
p200
asbasbasbag67
(g83
g69
NtRp201
(dp202
g72
(dp203
sg81
g77
sg74
(lp204
g67
(g88
g69
NtRp205
(dp206
g72
(dp207
g92
g93
ssg81
g201
sg74
(lp208
S'controller'
p209
asbag67
(g88
g69
NtRp210
(dp211
g72
(dp212
g99
g100
ssg81
g201
sg74
(lp213
S':'
asbag67
(g88
g69
NtRp214
(dp215
g72
(dp216
sg81
g201
sg74
(lp217
g67
(g68
g69
NtRp218
(dp219
g72
(dp220
g80
I5
ssg81
g214
sg74
(lp221
S'reconciliotastic'
p222
asbasbasbag67
(g83
g69
NtRp223
(dp224
g72
(dp225
sg81
g77
sg74
(lp226
g67
(g88
g69
NtRp227
(dp228
g72
(dp229
g92
g93
ssg81
g223
sg74
(lp230
S'cookies'
p231
asbag67
(g88
g69
NtRp232
(dp233
g72
(dp234
g99
g100
ssg81
g223
sg74
(lp235
S':'
asbag67
(g88
g69
NtRp236
(dp237
g72
(dp238
sg81
g223
sg74
(lp239
g67
(g68
g69
NtRp240
(dp241
g72
(dp242
g80
I5
ssg81
g236
sg74
(lp243
g67
(g76
g69
NtRp244
(dp245
g72
(dp246
g80
I4
ssg81
Nsg74
(lp247
g67
(g83
g69
NtRp248
(dp249
g72
(dp250
sg81
g244
sg74
(lp251
g67
(g88
g69
NtRp252
(dp253
g72
(dp254
g92
g93
ssg81
g248
sg74
(lp255
S'session_id_admin'
p256
asbag67
(g88
g69
NtRp257
(dp258
g72
(dp259
g99
g100
ssg81
g248
sg74
(lp260
S':'
asbag67
(g88
g69
NtRp261
(dp262
g72
(dp263
sg81
g248
sg74
(lp264
g67
(g68
g69
NtRp265
(dp266
g72
(dp267
g80
I4
ssg81
g261
sg74
(lp268
g67
(g76
g69
NtRp269
(dp270
g72
(dp271
g80
I3
ssg81
Nsg74
(lp272
g67
(g83
g69
NtRp273
(dp274
g72
(dp275
sg81
g269
sg74
(lp276
g67
(g88
g69
NtRp277
(dp278
g72
(dp279
g92
g93
ssg81
g273
sg74
(lp280
S'comment'
p281
asbag67
(g88
g69
NtRp282
(dp283
g72
(dp284
g99
g100
ssg81
g273
sg74
(lp285
S':'
asbag67
(g88
g69
NtRp286
(dp287
g72
(dp288
sg81
g273
sg74
(lp289
g67
(g68
g69
NtRp290
(dp291
g72
(dp292
g80
I3
ssg81
g286
sg74
(lp293
S''
asbasbasbag67
(g83
g69
NtRp294
(dp295
g72
(dp296
sg81
g269
sg74
(lp297
g67
(g88
g69
NtRp298
(dp299
g72
(dp300
g92
g93
ssg81
g294
sg74
(lp301
S'domain'
p302
asbag67
(g88
g69
NtRp303
(dp304
g72
(dp305
g99
g100
ssg81
g294
sg74
(lp306
S':'
asbag67
(g88
g69
NtRp307
(dp308
g72
(dp309
sg81
g294
sg74
(lp310
g67
(g68
g69
NtRp311
(dp312
g72
(dp313
g80
I3
ssg81
g307
sg74
(lp314
S''
asbasbasbag67
(g83
g69
NtRp315
(dp316
g72
(dp317
sg81
g269
sg74
(lp318
g67
(g88
g69
NtRp319
(dp320
g72
(dp321
g92
g93
ssg81
g315
sg74
(lp322
S'expires'
p323
asbag67
(g88
g69
NtRp324
(dp325
g72
(dp326
g99
g100
ssg81
g315
sg74
(lp327
S':'
asbag67
(g88
g69
NtRp328
(dp329
g72
(dp330
sg81
g315
sg74
(lp331
g67
(g68
g69
NtRp332
(dp333
g72
(dp334
g80
I3
ssg81
g328
sg74
(lp335
S''
asbasbasbag67
(g83
g69
NtRp336
(dp337
g72
(dp338
sg81
g269
sg74
(lp339
g67
(g88
g69
NtRp340
(dp341
g72
(dp342
g92
g93
ssg81
g336
sg74
(lp343
S'httponly'
p344
asbag67
(g88
g69
NtRp345
(dp346
g72
(dp347
g99
g100
ssg81
g336
sg74
(lp348
S':'
asbag67
(g88
g69
NtRp349
(dp350
g72
(dp351
sg81
g336
sg74
(lp352
g67
(g68
g69
NtRp353
(dp354
g72
(dp355
g80
I3
ssg81
g349
sg74
(lp356
S''
asbasbasbag67
(g83
g69
NtRp357
(dp358
g72
(dp359
sg81
g269
sg74
(lp360
g67
(g88
g69
NtRp361
(dp362
g72
(dp363
g92
g93
ssg81
g357
sg74
(lp364
S'max-age'
p365
asbag67
(g88
g69
NtRp366
(dp367
g72
(dp368
g99
g100
ssg81
g357
sg74
(lp369
S':'
asbag67
(g88
g69
NtRp370
(dp371
g72
(dp372
sg81
g357
sg74
(lp373
g67
(g68
g69
NtRp374
(dp375
g72
(dp376
g80
I3
ssg81
g370
sg74
(lp377
S''
asbasbasbag67
(g83
g69
NtRp378
(dp379
g72
(dp380
sg81
g269
sg74
(lp381
g67
(g88
g69
NtRp382
(dp383
g72
(dp384
g92
g93
ssg81
g378
sg74
(lp385
S'path'
p386
asbag67
(g88
g69
NtRp387
(dp388
g72
(dp389
g99
g100
ssg81
g378
sg74
(lp390
S':'
asbag67
(g88
g69
NtRp391
(dp392
g72
(dp393
sg81
g378
sg74
(lp394
g67
(g68
g69
NtRp395
(dp396
g72
(dp397
g80
I3
ssg81
g391
sg74
(lp398
S''
asbasbasbag67
(g83
g69
NtRp399
(dp400
g72
(dp401
sg81
g269
sg74
(lp402
g67
(g88
g69
NtRp403
(dp404
g72
(dp405
g92
g93
ssg81
g399
sg74
(lp406
S'secure'
p407
asbag67
(g88
g69
NtRp408
(dp409
g72
(dp410
g99
g100
ssg81
g399
sg74
(lp411
S':'
asbag67
(g88
g69
NtRp412
(dp413
g72
(dp414
sg81
g399
sg74
(lp415
g67
(g68
g69
NtRp416
(dp417
g72
(dp418
g80
I3
ssg81
g412
sg74
(lp419
S''
asbasbasbag67
(g83
g69
NtRp420
(dp421
g72
(dp422
sg81
g269
sg74
(lp423
g67
(g88
g69
NtRp424
(dp425
g72
(dp426
g92
g93
ssg81
g420
sg74
(lp427
S'version'
p428
asbag67
(g88
g69
NtRp429
(dp430
g72
(dp431
g99
g100
ssg81
g420
sg74
(lp432
S':'
asbag67
(g88
g69
NtRp433
(dp434
g72
(dp435
sg81
g420
sg74
(lp436
g67
(g68
g69
NtRp437
(dp438
g72
(dp439
g80
I3
ssg81
g433
sg74
(lp440
S''
asbasbasbasbasbasbasbag67
(g83
g69
NtRp441
(dp442
g72
(dp443
sg81
g244
sg74
(lp444
g67
(g88
g69
NtRp445
(dp446
g72
(dp447
g92
g93
ssg81
g441
sg74
(lp448
S'session_id_phyloshiny'
p449
asbag67
(g88
g69
NtRp450
(dp451
g72
(dp452
g99
g100
ssg81
g441
sg74
(lp453
S':'
asbag67
(g88
g69
NtRp454
(dp455
g72
(dp456
sg81
g441
sg74
(lp457
g67
(g68
g69
NtRp458
(dp459
g72
(dp460
g80
I4
ssg81
g454
sg74
(lp461
g67
(g76
g69
NtRp462
(dp463
g72
(dp464
g80
I3
ssg81
Nsg74
(lp465
g67
(g83
g69
NtRp466
(dp467
g72
(dp468
sg81
g462
sg74
(lp469
g67
(g88
g69
NtRp470
(dp471
g72
(dp472
g92
g93
ssg81
g466
sg74
(lp473
g281
asbag67
(g88
g69
NtRp474
(dp475
g72
(dp476
g99
g100
ssg81
g466
sg74
(lp477
S':'
asbag67
(g88
g69
NtRp478
(dp479
g72
(dp480
sg81
g466
sg74
(lp481
g67
(g68
g69
NtRp482
(dp483
g72
(dp484
g80
I3
ssg81
g478
sg74
(lp485
S''
asbasbasbag67
(g83
g69
NtRp486
(dp487
g72
(dp488
sg81
g462
sg74
(lp489
g67
(g88
g69
NtRp490
(dp491
g72
(dp492
g92
g93
ssg81
g486
sg74
(lp493
g302
asbag67
(g88
g69
NtRp494
(dp495
g72
(dp496
g99
g100
ssg81
g486
sg74
(lp497
S':'
asbag67
(g88
g69
NtRp498
(dp499
g72
(dp500
sg81
g486
sg74
(lp501
g67
(g68
g69
NtRp502
(dp503
g72
(dp504
g80
I3
ssg81
g498
sg74
(lp505
S''
asbasbasbag67
(g83
g69
NtRp506
(dp507
g72
(dp508
sg81
g462
sg74
(lp509
g67
(g88
g69
NtRp510
(dp511
g72
(dp512
g92
g93
ssg81
g506
sg74
(lp513
g323
asbag67
(g88
g69
NtRp514
(dp515
g72
(dp516
g99
g100
ssg81
g506
sg74
(lp517
S':'
asbag67
(g88
g69
NtRp518
(dp519
g72
(dp520
sg81
g506
sg74
(lp521
g67
(g68
g69
NtRp522
(dp523
g72
(dp524
g80
I3
ssg81
g518
sg74
(lp525
S''
asbasbasbag67
(g83
g69
NtRp526
(dp527
g72
(dp528
sg81
g462
sg74
(lp529
g67
(g88
g69
NtRp530
(dp531
g72
(dp532
g92
g93
ssg81
g526
sg74
(lp533
g344
asbag67
(g88
g69
NtRp534
(dp535
g72
(dp536
g99
g100
ssg81
g526
sg74
(lp537
S':'
asbag67
(g88
g69
NtRp538
(dp539
g72
(dp540
sg81
g526
sg74
(lp541
g67
(g68
g69
NtRp542
(dp543
g72
(dp544
g80
I3
ssg81
g538
sg74
(lp545
S''
asbasbasbag67
(g83
g69
NtRp546
(dp547
g72
(dp548
sg81
g462
sg74
(lp549
g67
(g88
g69
NtRp550
(dp551
g72
(dp552
g92
g93
ssg81
g546
sg74
(lp553
g365
asbag67
(g88
g69
NtRp554
(dp555
g72
(dp556
g99
g100
ssg81
g546
sg74
(lp557
S':'
asbag67
(g88
g69
NtRp558
(dp559
g72
(dp560
sg81
g546
sg74
(lp561
g67
(g68
g69
NtRp562
(dp563
g72
(dp564
g80
I3
ssg81
g558
sg74
(lp565
S''
asbasbasbag67
(g83
g69
NtRp566
(dp567
g72
(dp568
sg81
g462
sg74
(lp569
g67
(g88
g69
NtRp570
(dp571
g72
(dp572
g92
g93
ssg81
g566
sg74
(lp573
g386
asbag67
(g88
g69
NtRp574
(dp575
g72
(dp576
g99
g100
ssg81
g566
sg74
(lp577
S':'
asbag67
(g88
g69
NtRp578
(dp579
g72
(dp580
sg81
g566
sg74
(lp581
g67
(g68
g69
NtRp582
(dp583
g72
(dp584
g80
I3
ssg81
g578
sg74
(lp585
S''
asbasbasbag67
(g83
g69
NtRp586
(dp587
g72
(dp588
sg81
g462
sg74
(lp589
g67
(g88
g69
NtRp590
(dp591
g72
(dp592
g92
g93
ssg81
g586
sg74
(lp593
g407
asbag67
(g88
g69
NtRp594
(dp595
g72
(dp596
g99
g100
ssg81
g586
sg74
(lp597
S':'
asbag67
(g88
g69
NtRp598
(dp599
g72
(dp600
sg81
g586
sg74
(lp601
g67
(g68
g69
NtRp602
(dp603
g72
(dp604
g80
I3
ssg81
g598
sg74
(lp605
S''
asbasbasbag67
(g83
g69
NtRp606
(dp607
g72
(dp608
sg81
g462
sg74
(lp609
g67
(g88
g69
NtRp610
(dp611
g72
(dp612
g92
g93
ssg81
g606
sg74
(lp613
g428
asbag67
(g88
g69
NtRp614
(dp615
g72
(dp616
g99
g100
ssg81
g606
sg74
(lp617
S':'
asbag67
(g88
g69
NtRp618
(dp619
g72
(dp620
sg81
g606
sg74
(lp621
g67
(g68
g69
NtRp622
(dp623
g72
(dp624
g80
I3
ssg81
g618
sg74
(lp625
S''
asbasbasbasbasbasbasbag67
(g83
g69
NtRp626
(dp627
g72
(dp628
sg81
g244
sg74
(lp629
g67
(g88
g69
NtRp630
(dp631
g72
(dp632
g92
g93
ssg81
g626
sg74
(lp633
S'session_id_welcome'
p634
asbag67
(g88
g69
NtRp635
(dp636
g72
(dp637
g99
g100
ssg81
g626
sg74
(lp638
S':'
asbag67
(g88
g69
NtRp639
(dp640
g72
(dp641
sg81
g626
sg74
(lp642
g67
(g68
g69
NtRp643
(dp644
g72
(dp645
g80
I4
ssg81
g639
sg74
(lp646
g67
(g76
g69
NtRp647
(dp648
g72
(dp649
g80
I3
ssg81
Nsg74
(lp650
g67
(g83
g69
NtRp651
(dp652
g72
(dp653
sg81
g647
sg74
(lp654
g67
(g88
g69
NtRp655
(dp656
g72
(dp657
g92
g93
ssg81
g651
sg74
(lp658
g281
asbag67
(g88
g69
NtRp659
(dp660
g72
(dp661
g99
g100
ssg81
g651
sg74
(lp662
S':'
asbag67
(g88
g69
NtRp663
(dp664
g72
(dp665
sg81
g651
sg74
(lp666
g67
(g68
g69
NtRp667
(dp668
g72
(dp669
g80
I3
ssg81
g663
sg74
(lp670
S''
asbasbasbag67
(g83
g69
NtRp671
(dp672
g72
(dp673
sg81
g647
sg74
(lp674
g67
(g88
g69
NtRp675
(dp676
g72
(dp677
g92
g93
ssg81
g671
sg74
(lp678
g302
asbag67
(g88
g69
NtRp679
(dp680
g72
(dp681
g99
g100
ssg81
g671
sg74
(lp682
S':'
asbag67
(g88
g69
NtRp683
(dp684
g72
(dp685
sg81
g671
sg74
(lp686
g67
(g68
g69
NtRp687
(dp688
g72
(dp689
g80
I3
ssg81
g683
sg74
(lp690
S''
asbasbasbag67
(g83
g69
NtRp691
(dp692
g72
(dp693
sg81
g647
sg74
(lp694
g67
(g88
g69
NtRp695
(dp696
g72
(dp697
g92
g93
ssg81
g691
sg74
(lp698
g323
asbag67
(g88
g69
NtRp699
(dp700
g72
(dp701
g99
g100
ssg81
g691
sg74
(lp702
S':'
asbag67
(g88
g69
NtRp703
(dp704
g72
(dp705
sg81
g691
sg74
(lp706
g67
(g68
g69
NtRp707
(dp708
g72
(dp709
g80
I3
ssg81
g703
sg74
(lp710
S''
asbasbasbag67
(g83
g69
NtRp711
(dp712
g72
(dp713
sg81
g647
sg74
(lp714
g67
(g88
g69
NtRp715
(dp716
g72
(dp717
g92
g93
ssg81
g711
sg74
(lp718
g344
asbag67
(g88
g69
NtRp719
(dp720
g72
(dp721
g99
g100
ssg81
g711
sg74
(lp722
S':'
asbag67
(g88
g69
NtRp723
(dp724
g72
(dp725
sg81
g711
sg74
(lp726
g67
(g68
g69
NtRp727
(dp728
g72
(dp729
g80
I3
ssg81
g723
sg74
(lp730
S''
asbasbasbag67
(g83
g69
NtRp731
(dp732
g72
(dp733
sg81
g647
sg74
(lp734
g67
(g88
g69
NtRp735
(dp736
g72
(dp737
g92
g93
ssg81
g731
sg74
(lp738
g365
asbag67
(g88
g69
NtRp739
(dp740
g72
(dp741
g99
g100
ssg81
g731
sg74
(lp742
S':'
asbag67
(g88
g69
NtRp743
(dp744
g72
(dp745
sg81
g731
sg74
(lp746
g67
(g68
g69
NtRp747
(dp748
g72
(dp749
g80
I3
ssg81
g743
sg74
(lp750
S''
asbasbasbag67
(g83
g69
NtRp751
(dp752
g72
(dp753
sg81
g647
sg74
(lp754
g67
(g88
g69
NtRp755
(dp756
g72
(dp757
g92
g93
ssg81
g751
sg74
(lp758
g386
asbag67
(g88
g69
NtRp759
(dp760
g72
(dp761
g99
g100
ssg81
g751
sg74
(lp762
S':'
asbag67
(g88
g69
NtRp763
(dp764
g72
(dp765
sg81
g751
sg74
(lp766
g67
(g68
g69
NtRp767
(dp768
g72
(dp769
g80
I3
ssg81
g763
sg74
(lp770
S''
asbasbasbag67
(g83
g69
NtRp771
(dp772
g72
(dp773
sg81
g647
sg74
(lp774
g67
(g88
g69
NtRp775
(dp776
g72
(dp777
g92
g93
ssg81
g771
sg74
(lp778
g407
asbag67
(g88
g69
NtRp779
(dp780
g72
(dp781
g99
g100
ssg81
g771
sg74
(lp782
S':'
asbag67
(g88
g69
NtRp783
(dp784
g72
(dp785
sg81
g771
sg74
(lp786
g67
(g68
g69
NtRp787
(dp788
g72
(dp789
g80
I3
ssg81
g783
sg74
(lp790
S''
asbasbasbag67
(g83
g69
NtRp791
(dp792
g72
(dp793
sg81
g647
sg74
(lp794
g67
(g88
g69
NtRp795
(dp796
g72
(dp797
g92
g93
ssg81
g791
sg74
(lp798
g428
asbag67
(g88
g69
NtRp799
(dp800
g72
(dp801
g99
g100
ssg81
g791
sg74
(lp802
S':'
asbag67
(g88
g69
NtRp803
(dp804
g72
(dp805
sg81
g791
sg74
(lp806
g67
(g68
g69
NtRp807
(dp808
g72
(dp809
g80
I3
ssg81
g803
sg74
(lp810
S''
asbasbasbasbasbasbasbasbasbasbasbag67
(g83
g69
NtRp811
(dp812
g72
(dp813
sg81
g77
sg74
(lp814
g67
(g88
g69
NtRp815
(dp816
g72
(dp817
g92
g93
ssg81
g811
sg74
(lp818
S'env'
p819
asbag67
(g88
g69
NtRp820
(dp821
g72
(dp822
g99
g100
ssg81
g811
sg74
(lp823
S':'
asbag67
(g88
g69
NtRp824
(dp825
g72
(dp826
sg81
g811
sg74
(lp827
g67
(g68
g69
NtRp828
(dp829
g72
(dp830
g80
I5
ssg81
g824
sg74
(lp831
g67
(g76
g69
NtRp832
(dp833
g72
(dp834
g80
I4
ssg81
Nsg74
(lp835
g67
(g83
g69
NtRp836
(dp837
g72
(dp838
sg81
g832
sg74
(lp839
g67
(g88
g69
NtRp840
(dp841
g72
(dp842
g92
g93
ssg81
g836
sg74
(lp843
S'app_folders'
p844
asbag67
(g88
g69
NtRp845
(dp846
g72
(dp847
g99
g100
ssg81
g836
sg74
(lp848
S':'
asbag67
(g88
g69
NtRp849
(dp850
g72
(dp851
sg81
g836
sg74
(lp852
g67
(g68
g69
NtRp853
(dp854
g72
(dp855
g80
I4
ssg81
g849
sg74
(lp856
S"set(['/home/prateek/web2py/applications/phyloShiny/', '/home/prateek/web2py/applications/welcome/'])"
p857
asbasbasbag67
(g83
g69
NtRp858
(dp859
g72
(dp860
sg81
g832
sg74
(lp861
g67
(g88
g69
NtRp862
(dp863
g72
(dp864
g92
g93
ssg81
g858
sg74
(lp865
S'applications_parent'
p866
asbag67
(g88
g69
NtRp867
(dp868
g72
(dp869
g99
g100
ssg81
g858
sg74
(lp870
S':'
asbag67
(g88
g69
NtRp871
(dp872
g72
(dp873
sg81
g858
sg74
(lp874
g67
(g68
g69
NtRp875
(dp876
g72
(dp877
g80
I4
ssg81
g871
sg74
(lp878
S'/home/prateek/web2py'
p879
asbasbasbag67
(g83
g69
NtRp880
(dp881
g72
(dp882
sg81
g832
sg74
(lp883
g67
(g88
g69
NtRp884
(dp885
g72
(dp886
g92
g93
ssg81
g880
sg74
(lp887
S'cmd_args'
p888
asbag67
(g88
g69
NtRp889
(dp890
g72
(dp891
g99
g100
ssg81
g880
sg74
(lp892
S':'
asbag67
(g88
g69
NtRp893
(dp894
g72
(dp895
sg81
g880
sg74
(lp896
g67
(g68
g69
NtRp897
(dp898
g72
(dp899
g80
I4
ssg81
g893
sg74
(lp900
g67
(g76
g69
NtRp901
(dp902
g72
(dp903
g80
I3
ssg81
Nsg74
(lp904
sbasbasbasbag67
(g83
g69
NtRp905
(dp906
g72
(dp907
sg81
g832
sg74
(lp908
g67
(g88
g69
NtRp909
(dp910
g72
(dp911
g92
g93
ssg81
g905
sg74
(lp912
S'cmd_options'
p913
asbag67
(g88
g69
NtRp914
(dp915
g72
(dp916
g99
g100
ssg81
g905
sg74
(lp917
S':'
asbag67
(g88
g69
NtRp918
(dp919
g72
(dp920
sg81
g905
sg74
(lp921
g67
(g68
g69
NtRp922
(dp923
g72
(dp924
g80
I4
ssg81
g918
sg74
(lp925
S"<Values at 0x926860c: {'verbose': False, 'ip': '127.0.0.1', 'shutdown_timeout': 5, 'taskbar': False, 'port': 8000, 'maxthreads': None, 'softcron': False, 'server_name': 'prateek-Inspiron-N5110', 'bpython': False, 'nogui': False, 'nocron': False, 'extcron': False, 'debuglevel': 30, 'test': None, 'folder': '/home/prateek/web2py', 'config': '', 'import_models': False, 'winservice': '', 'shell': None, 'run': '', 'log_filename': 'httpserver.log', 'args': [''], 'socket_timeout': 1, 'profiler_filename': None, 'ssl_private_key': '', 'password': '<ask>', 'request_queue_size': 5, 'ssl_certificate': '', 'cronjob': False, 'plain': False, 'quiet': False, 'interfaces': None, 'minthreads': None, 'timeout': 10, 'numthreads': None, 'nobanner': False, 'pid_filename': 'httpserver.pid'}>"
p926
asbasbasbag67
(g83
g69
NtRp927
(dp928
g72
(dp929
sg81
g832
sg74
(lp930
g67
(g88
g69
NtRp931
(dp932
g72
(dp933
g92
g93
ssg81
g927
sg74
(lp934
S'db_sessions'
p935
asbag67
(g88
g69
NtRp936
(dp937
g72
(dp938
g99
g100
ssg81
g927
sg74
(lp939
S':'
asbag67
(g88
g69
NtRp940
(dp941
g72
(dp942
sg81
g927
sg74
(lp943
g67
(g68
g69
NtRp944
(dp945
g72
(dp946
g80
I4
ssg81
g940
sg74
(lp947
S'set([])'
p948
asbasbasbag67
(g83
g69
NtRp949
(dp950
g72
(dp951
sg81
g832
sg74
(lp952
g67
(g88
g69
NtRp953
(dp954
g72
(dp955
g92
g93
ssg81
g949
sg74
(lp956
S'debugging'
p957
asbag67
(g88
g69
NtRp958
(dp959
g72
(dp960
g99
g100
ssg81
g949
sg74
(lp961
S':'
asbag67
(g88
g69
NtRp962
(dp963
g72
(dp964
sg81
g949
sg74
(lp965
g67
(g68
g69
NtRp966
(dp967
g72
(dp968
g80
I4
ssg81
g962
sg74
(lp969
S'False'
p970
asbasbasbag67
(g83
g69
NtRp971
(dp972
g72
(dp973
sg81
g832
sg74
(lp974
g67
(g88
g69
NtRp975
(dp976
g72
(dp977
g92
g93
ssg81
g971
sg74
(lp978
S'gluon_parent'
p979
asbag67
(g88
g69
NtRp980
(dp981
g72
(dp982
g99
g100
ssg81
g971
sg74
(lp983
S':'
asbag67
(g88
g69
NtRp984
(dp985
g72
(dp986
sg81
g971
sg74
(lp987
g67
(g68
g69
NtRp988
(dp989
g72
(dp990
g80
I4
ssg81
g984
sg74
(lp991
S'/usr/share/web2py'
p992
asbasbasbag67
(g83
g69
NtRp993
(dp994
g72
(dp995
sg81
g832
sg74
(lp996
g67
(g88
g69
NtRp997
(dp998
g72
(dp999
g92
g93
ssg81
g993
sg74
(lp1000
S'http_accept'
p1001
asbag67
(g88
g69
NtRp1002
(dp1003
g72
(dp1004
g99
g100
ssg81
g993
sg74
(lp1005
S':'
asbag67
(g88
g69
NtRp1006
(dp1007
g72
(dp1008
sg81
g993
sg74
(lp1009
g67
(g68
g69
NtRp1010
(dp1011
g72
(dp1012
g80
I4
ssg81
g1006
sg74
(lp1013
S'*/*'
p1014
asbasbasbag67
(g83
g69
NtRp1015
(dp1016
g72
(dp1017
sg81
g832
sg74
(lp1018
g67
(g88
g69
NtRp1019
(dp1020
g72
(dp1021
g92
g93
ssg81
g1015
sg74
(lp1022
S'http_accept_encoding'
p1023
asbag67
(g88
g69
NtRp1024
(dp1025
g72
(dp1026
g99
g100
ssg81
g1015
sg74
(lp1027
S':'
asbag67
(g88
g69
NtRp1028
(dp1029
g72
(dp1030
sg81
g1015
sg74
(lp1031
g67
(g68
g69
NtRp1032
(dp1033
g72
(dp1034
g80
I4
ssg81
g1028
sg74
(lp1035
S'gzip, deflate'
p1036
asbasbasbag67
(g83
g69
NtRp1037
(dp1038
g72
(dp1039
sg81
g832
sg74
(lp1040
g67
(g88
g69
NtRp1041
(dp1042
g72
(dp1043
g92
g93
ssg81
g1037
sg74
(lp1044
S'http_accept_language'
p1045
asbag67
(g88
g69
NtRp1046
(dp1047
g72
(dp1048
g99
g100
ssg81
g1037
sg74
(lp1049
S':'
asbag67
(g88
g69
NtRp1050
(dp1051
g72
(dp1052
sg81
g1037
sg74
(lp1053
g67
(g68
g69
NtRp1054
(dp1055
g72
(dp1056
g80
I4
ssg81
g1050
sg74
(lp1057
S'en-US,en;q=0.5'
p1058
asbasbasbag67
(g83
g69
NtRp1059
(dp1060
g72
(dp1061
sg81
g832
sg74
(lp1062
g67
(g88
g69
NtRp1063
(dp1064
g72
(dp1065
g92
g93
ssg81
g1059
sg74
(lp1066
S'http_connection'
p1067
asbag67
(g88
g69
NtRp1068
(dp1069
g72
(dp1070
g99
g100
ssg81
g1059
sg74
(lp1071
S':'
asbag67
(g88
g69
NtRp1072
(dp1073
g72
(dp1074
sg81
g1059
sg74
(lp1075
g67
(g68
g69
NtRp1076
(dp1077
g72
(dp1078
g80
I4
ssg81
g1072
sg74
(lp1079
S'keep-alive'
p1080
asbasbasbag67
(g83
g69
NtRp1081
(dp1082
g72
(dp1083
sg81
g832
sg74
(lp1084
g67
(g88
g69
NtRp1085
(dp1086
g72
(dp1087
g92
g93
ssg81
g1081
sg74
(lp1088
S'http_cookie'
p1089
asbag67
(g88
g69
NtRp1090
(dp1091
g72
(dp1092
g99
g100
ssg81
g1081
sg74
(lp1093
S':'
asbag67
(g88
g69
NtRp1094
(dp1095
g72
(dp1096
sg81
g1081
sg74
(lp1097
g67
(g68
g69
NtRp1098
(dp1099
g72
(dp1100
g80
I4
ssg81
g1094
sg74
(lp1101
S'session_id_welcome=127.0.0.1-d16f61e8-c149-44b1-bfdd-382c940d8239; session_id_admin=127.0.0.1-1167085b-ba0a-485b-b3af-c0e08f151785; session_id_phyloshiny=127.0.0.1-0510cd75-1966-4d56-9ac2-5b385ef24644'
p1102
asbasbasbag67
(g83
g69
NtRp1103
(dp1104
g72
(dp1105
sg81
g832
sg74
(lp1106
g67
(g88
g69
NtRp1107
(dp1108
g72
(dp1109
g92
g93
ssg81
g1103
sg74
(lp1110
S'http_host'
p1111
asbag67
(g88
g69
NtRp1112
(dp1113
g72
(dp1114
g99
g100
ssg81
g1103
sg74
(lp1115
S':'
asbag67
(g88
g69
NtRp1116
(dp1117
g72
(dp1118
sg81
g1103
sg74
(lp1119
g67
(g68
g69
NtRp1120
(dp1121
g72
(dp1122
g80
I4
ssg81
g1116
sg74
(lp1123
S'127.0.0.1:8000'
p1124
asbasbasbag67
(g83
g69
NtRp1125
(dp1126
g72
(dp1127
sg81
g832
sg74
(lp1128
g67
(g88
g69
NtRp1129
(dp1130
g72
(dp1131
g92
g93
ssg81
g1125
sg74
(lp1132
S'http_referer'
p1133
asbag67
(g88
g69
NtRp1134
(dp1135
g72
(dp1136
g99
g100
ssg81
g1125
sg74
(lp1137
S':'
asbag67
(g88
g69
NtRp1138
(dp1139
g72
(dp1140
sg81
g1125
sg74
(lp1141
g67
(g68
g69
NtRp1142
(dp1143
g72
(dp1144
g80
I4
ssg81
g1138
sg74
(lp1145
S'http://127.0.0.1:8000/phyloShiny/reconciliotastic/'
p1146
asbasbasbag67
(g83
g69
NtRp1147
(dp1148
g72
(dp1149
sg81
g832
sg74
(lp1150
g67
(g88
g69
NtRp1151
(dp1152
g72
(dp1153
g92
g93
ssg81
g1147
sg74
(lp1154
S'http_user_agent'
p1155
asbag67
(g88
g69
NtRp1156
(dp1157
g72
(dp1158
g99
g100
ssg81
g1147
sg74
(lp1159
S':'
asbag67
(g88
g69
NtRp1160
(dp1161
g72
(dp1162
sg81
g1147
sg74
(lp1163
g67
(g68
g69
NtRp1164
(dp1165
g72
(dp1166
g80
I4
ssg81
g1160
sg74
(lp1167
S'Mozilla/5.0 (X11; Ubuntu; Linux i686; rv:20.0) Gecko/20100101 Firefox/20.0'
p1168
asbasbasbag67
(g83
g69
NtRp1169
(dp1170
g72
(dp1171
sg81
g832
sg74
(lp1172
g67
(g88
g69
NtRp1173
(dp1174
g72
(dp1175
g92
g93
ssg81
g1169
sg74
(lp1176
S'http_x_requested_with'
p1177
asbag67
(g88
g69
NtRp1178
(dp1179
g72
(dp1180
g99
g100
ssg81
g1169
sg74
(lp1181
S':'
asbag67
(g88
g69
NtRp1182
(dp1183
g72
(dp1184
sg81
g1169
sg74
(lp1185
g67
(g68
g69
NtRp1186
(dp1187
g72
(dp1188
g80
I4
ssg81
g1182
sg74
(lp1189
S'XMLHttpRequest'
p1190
asbasbasbag67
(g83
g69
NtRp1191
(dp1192
g72
(dp1193
sg81
g832
sg74
(lp1194
g67
(g88
g69
NtRp1195
(dp1196
g72
(dp1197
g92
g93
ssg81
g1191
sg74
(lp1198
S'is_jython'
p1199
asbag67
(g88
g69
NtRp1200
(dp1201
g72
(dp1202
g99
g100
ssg81
g1191
sg74
(lp1203
S':'
asbag67
(g88
g69
NtRp1204
(dp1205
g72
(dp1206
sg81
g1191
sg74
(lp1207
g67
(g68
g69
NtRp1208
(dp1209
g72
(dp1210
g80
I4
ssg81
g1204
sg74
(lp1211
g970
asbasbasbag67
(g83
g69
NtRp1212
(dp1213
g72
(dp1214
sg81
g832
sg74
(lp1215
g67
(g88
g69
NtRp1216
(dp1217
g72
(dp1218
g92
g93
ssg81
g1212
sg74
(lp1219
S'is_pypy'
p1220
asbag67
(g88
g69
NtRp1221
(dp1222
g72
(dp1223
g99
g100
ssg81
g1212
sg74
(lp1224
S':'
asbag67
(g88
g69
NtRp1225
(dp1226
g72
(dp1227
sg81
g1212
sg74
(lp1228
g67
(g68
g69
NtRp1229
(dp1230
g72
(dp1231
g80
I4
ssg81
g1225
sg74
(lp1232
g970
asbasbasbag67
(g83
g69
NtRp1233
(dp1234
g72
(dp1235
sg81
g832
sg74
(lp1236
g67
(g88
g69
NtRp1237
(dp1238
g72
(dp1239
g92
g93
ssg81
g1233
sg74
(lp1240
S'path_info'
p1241
asbag67
(g88
g69
NtRp1242
(dp1243
g72
(dp1244
g99
g100
ssg81
g1233
sg74
(lp1245
S':'
asbag67
(g88
g69
NtRp1246
(dp1247
g72
(dp1248
sg81
g1233
sg74
(lp1249
g67
(g68
g69
NtRp1250
(dp1251
g72
(dp1252
g80
I4
ssg81
g1246
sg74
(lp1253
S'/phyloShiny/reconciliotastic/getPhylotasticTree'
p1254
asbasbasbag67
(g83
g69
NtRp1255
(dp1256
g72
(dp1257
sg81
g832
sg74
(lp1258
g67
(g88
g69
NtRp1259
(dp1260
g72
(dp1261
g92
g93
ssg81
g1255
sg74
(lp1262
S'query_string'
p1263
asbag67
(g88
g69
NtRp1264
(dp1265
g72
(dp1266
g99
g100
ssg81
g1255
sg74
(lp1267
S':'
asbag67
(g88
g69
NtRp1268
(dp1269
g72
(dp1270
sg81
g1255
sg74
(lp1271
g67
(g68
g69
NtRp1272
(dp1273
g72
(dp1274
g80
I4
ssg81
g1268
sg74
(lp1275
S'treeFileName=static%2Fsample_data%2Fdemo_Primate_Tubulin1%2Finput_genetree.nwk.txt'
p1276
asbasbasbag67
(g83
g69
NtRp1277
(dp1278
g72
(dp1279
sg81
g832
sg74
(lp1280
g67
(g88
g69
NtRp1281
(dp1282
g72
(dp1283
g92
g93
ssg81
g1277
sg74
(lp1284
S'remote_addr'
p1285
asbag67
(g88
g69
NtRp1286
(dp1287
g72
(dp1288
g99
g100
ssg81
g1277
sg74
(lp1289
S':'
asbag67
(g88
g69
NtRp1290
(dp1291
g72
(dp1292
sg81
g1277
sg74
(lp1293
g67
(g68
g69
NtRp1294
(dp1295
g72
(dp1296
g80
I4
ssg81
g1290
sg74
(lp1297
g200
asbasbasbag67
(g83
g69
NtRp1298
(dp1299
g72
(dp1300
sg81
g832
sg74
(lp1301
g67
(g88
g69
NtRp1302
(dp1303
g72
(dp1304
g92
g93
ssg81
g1298
sg74
(lp1305
S'remote_port'
p1306
asbag67
(g88
g69
NtRp1307
(dp1308
g72
(dp1309
g99
g100
ssg81
g1298
sg74
(lp1310
S':'
asbag67
(g88
g69
NtRp1311
(dp1312
g72
(dp1313
sg81
g1298
sg74
(lp1314
g67
(g68
g69
NtRp1315
(dp1316
g72
(dp1317
g80
I4
ssg81
g1311
sg74
(lp1318
S'55703'
p1319
asbasbasbag67
(g83
g69
NtRp1320
(dp1321
g72
(dp1322
sg81
g832
sg74
(lp1323
g67
(g88
g69
NtRp1324
(dp1325
g72
(dp1326
g92
g93
ssg81
g1320
sg74
(lp1327
S'request_method'
p1328
asbag67
(g88
g69
NtRp1329
(dp1330
g72
(dp1331
g99
g100
ssg81
g1320
sg74
(lp1332
S':'
asbag67
(g88
g69
NtRp1333
(dp1334
g72
(dp1335
sg81
g1320
sg74
(lp1336
g67
(g68
g69
NtRp1337
(dp1338
g72
(dp1339
g80
I4
ssg81
g1333
sg74
(lp1340
S'GET'
p1341
asbasbasbag67
(g83
g69
NtRp1342
(dp1343
g72
(dp1344
sg81
g832
sg74
(lp1345
g67
(g88
g69
NtRp1346
(dp1347
g72
(dp1348
g92
g93
ssg81
g1342
sg74
(lp1349
S'script_name'
p1350
asbag67
(g88
g69
NtRp1351
(dp1352
g72
(dp1353
g99
g100
ssg81
g1342
sg74
(lp1354
S':'
asbag67
(g88
g69
NtRp1355
(dp1356
g72
(dp1357
sg81
g1342
sg74
(lp1358
g67
(g68
g69
NtRp1359
(dp1360
g72
(dp1361
g80
I4
ssg81
g1355
sg74
(lp1362
S''
asbasbasbag67
(g83
g69
NtRp1363
(dp1364
g72
(dp1365
sg81
g832
sg74
(lp1366
g67
(g88
g69
NtRp1367
(dp1368
g72
(dp1369
g92
g93
ssg81
g1363
sg74
(lp1370
S'server_name'
p1371
asbag67
(g88
g69
NtRp1372
(dp1373
g72
(dp1374
g99
g100
ssg81
g1363
sg74
(lp1375
S':'
asbag67
(g88
g69
NtRp1376
(dp1377
g72
(dp1378
sg81
g1363
sg74
(lp1379
g67
(g68
g69
NtRp1380
(dp1381
g72
(dp1382
g80
I4
ssg81
g1376
sg74
(lp1383
S'prateek-Inspiron-N5110'
p1384
asbasbasbag67
(g83
g69
NtRp1385
(dp1386
g72
(dp1387
sg81
g832
sg74
(lp1388
g67
(g88
g69
NtRp1389
(dp1390
g72
(dp1391
g92
g93
ssg81
g1385
sg74
(lp1392
S'server_port'
p1393
asbag67
(g88
g69
NtRp1394
(dp1395
g72
(dp1396
g99
g100
ssg81
g1385
sg74
(lp1397
S':'
asbag67
(g88
g69
NtRp1398
(dp1399
g72
(dp1400
sg81
g1385
sg74
(lp1401
g67
(g68
g69
NtRp1402
(dp1403
g72
(dp1404
g80
I4
ssg81
g1398
sg74
(lp1405
S'8000'
p1406
asbasbasbag67
(g83
g69
NtRp1407
(dp1408
g72
(dp1409
sg81
g832
sg74
(lp1410
g67
(g88
g69
NtRp1411
(dp1412
g72
(dp1413
g92
g93
ssg81
g1407
sg74
(lp1414
S'server_protocol'
p1415
asbag67
(g88
g69
NtRp1416
(dp1417
g72
(dp1418
g99
g100
ssg81
g1407
sg74
(lp1419
S':'
asbag67
(g88
g69
NtRp1420
(dp1421
g72
(dp1422
sg81
g1407
sg74
(lp1423
g67
(g68
g69
NtRp1424
(dp1425
g72
(dp1426
g80
I4
ssg81
g1420
sg74
(lp1427
S'HTTP/1.1'
p1428
asbasbasbag67
(g83
g69
NtRp1429
(dp1430
g72
(dp1431
sg81
g832
sg74
(lp1432
g67
(g88
g69
NtRp1433
(dp1434
g72
(dp1435
g92
g93
ssg81
g1429
sg74
(lp1436
S'server_software'
p1437
asbag67
(g88
g69
NtRp1438
(dp1439
g72
(dp1440
g99
g100
ssg81
g1429
sg74
(lp1441
S':'
asbag67
(g88
g69
NtRp1442
(dp1443
g72
(dp1444
sg81
g1429
sg74
(lp1445
g67
(g68
g69
NtRp1446
(dp1447
g72
(dp1448
g80
I4
ssg81
g1442
sg74
(lp1449
S'Rocket 1.2.4'
p1450
asbasbasbag67
(g83
g69
NtRp1451
(dp1452
g72
(dp1453
sg81
g832
sg74
(lp1454
g67
(g88
g69
NtRp1455
(dp1456
g72
(dp1457
g92
g93
ssg81
g1451
sg74
(lp1458
S'web2py_crontype'
p1459
asbag67
(g88
g69
NtRp1460
(dp1461
g72
(dp1462
g99
g100
ssg81
g1451
sg74
(lp1463
S':'
asbag67
(g88
g69
NtRp1464
(dp1465
g72
(dp1466
sg81
g1451
sg74
(lp1467
g67
(g68
g69
NtRp1468
(dp1469
g72
(dp1470
g80
I4
ssg81
g1464
sg74
(lp1471
S'hard'
p1472
asbasbasbag67
(g83
g69
NtRp1473
(dp1474
g72
(dp1475
sg81
g832
sg74
(lp1476
g67
(g88
g69
NtRp1477
(dp1478
g72
(dp1479
g92
g93
ssg81
g1473
sg74
(lp1480
S'web2py_path'
p1481
asbag67
(g88
g69
NtRp1482
(dp1483
g72
(dp1484
g99
g100
ssg81
g1473
sg74
(lp1485
S':'
asbag67
(g88
g69
NtRp1486
(dp1487
g72
(dp1488
sg81
g1473
sg74
(lp1489
g67
(g68
g69
NtRp1490
(dp1491
g72
(dp1492
g80
I4
ssg81
g1486
sg74
(lp1493
g879
asbasbasbag67
(g83
g69
NtRp1494
(dp1495
g72
(dp1496
sg81
g832
sg74
(lp1497
g67
(g88
g69
NtRp1498
(dp1499
g72
(dp1500
g92
g93
ssg81
g1494
sg74
(lp1501
S'web2py_version'
p1502
asbag67
(g88
g69
NtRp1503
(dp1504
g72
(dp1505
g99
g100
ssg81
g1494
sg74
(lp1506
S':'
asbag67
(g88
g69
NtRp1507
(dp1508
g72
(dp1509
sg81
g1494
sg74
(lp1510
g67
(g68
g69
NtRp1511
(dp1512
g72
(dp1513
g80
I4
ssg81
g1507
sg74
(lp1514
g67
(g76
g69
NtRp1515
(dp1516
g72
(dp1517
g80
I3
ssg81
Nsg74
(lp1518
g67
(g83
g69
NtRp1519
(dp1520
g72
(dp1521
sg81
g1515
sg74
(lp1522
g67
(g88
g69
NtRp1523
(dp1524
g72
(dp1525
sg81
g1519
sg74
(lp1526
g67
(g68
g69
NtRp1527
(dp1528
g72
(dp1529
g80
I3
ssg81
g1523
sg74
(lp1530
S'1'
asbasbasbag67
(g83
g69
NtRp1531
(dp1532
g72
(dp1533
sg81
g1515
sg74
(lp1534
g67
(g88
g69
NtRp1535
(dp1536
g72
(dp1537
sg81
g1531
sg74
(lp1538
g67
(g68
g69
NtRp1539
(dp1540
g72
(dp1541
g80
I3
ssg81
g1535
sg74
(lp1542
S'99'
p1543
asbasbasbag67
(g83
g69
NtRp1544
(dp1545
g72
(dp1546
sg81
g1515
sg74
(lp1547
g67
(g88
g69
NtRp1548
(dp1549
g72
(dp1550
sg81
g1544
sg74
(lp1551
g67
(g68
g69
NtRp1552
(dp1553
g72
(dp1554
g80
I3
ssg81
g1548
sg74
(lp1555
S'4'
asbasbasbag67
(g83
g69
NtRp1556
(dp1557
g72
(dp1558
sg81
g1515
sg74
(lp1559
g67
(g88
g69
NtRp1560
(dp1561
g72
(dp1562
sg81
g1556
sg74
(lp1563
g67
(g68
g69
NtRp1564
(dp1565
g72
(dp1566
g80
I3
ssg81
g1560
sg74
(lp1567
S'datetime.datetime(2011, 12, 14, 14, 46, 14)'
p1568
asbasbasbag67
(g83
g69
NtRp1569
(dp1570
g72
(dp1571
sg81
g1515
sg74
(lp1572
g67
(g88
g69
NtRp1573
(dp1574
g72
(dp1575
sg81
g1569
sg74
(lp1576
g67
(g68
g69
NtRp1577
(dp1578
g72
(dp1579
g80
I3
ssg81
g1573
sg74
(lp1580
S'stable'
p1581
asbasbasbasbasbasbasbag67
(g83
g69
NtRp1582
(dp1583
g72
(dp1584
sg81
g832
sg74
(lp1585
g67
(g88
g69
NtRp1586
(dp1587
g72
(dp1588
g92
g93
ssg81
g1582
sg74
(lp1589
S'wsgi_errors'
p1590
asbag67
(g88
g69
NtRp1591
(dp1592
g72
(dp1593
g99
g100
ssg81
g1582
sg74
(lp1594
S':'
asbag67
(g88
g69
NtRp1595
(dp1596
g72
(dp1597
sg81
g1582
sg74
(lp1598
g67
(g68
g69
NtRp1599
(dp1600
g72
(dp1601
g80
I4
ssg81
g1595
sg74
(lp1602
S"<open file '<stderr>', mode 'w' at 0xb72920d0>"
p1603
asbasbasbag67
(g83
g69
NtRp1604
(dp1605
g72
(dp1606
sg81
g832
sg74
(lp1607
g67
(g88
g69
NtRp1608
(dp1609
g72
(dp1610
g92
g93
ssg81
g1604
sg74
(lp1611
S'wsgi_file_wrapper'
p1612
asbag67
(g88
g69
NtRp1613
(dp1614
g72
(dp1615
g99
g100
ssg81
g1604
sg74
(lp1616
S':'
asbag67
(g88
g69
NtRp1617
(dp1618
g72
(dp1619
sg81
g1604
sg74
(lp1620
g67
(g68
g69
NtRp1621
(dp1622
g72
(dp1623
g80
I4
ssg81
g1617
sg74
(lp1624
S'<class wsgiref.util.FileWrapper at 0x902626c>'
p1625
asbasbasbag67
(g83
g69
NtRp1626
(dp1627
g72
(dp1628
sg81
g832
sg74
(lp1629
g67
(g88
g69
NtRp1630
(dp1631
g72
(dp1632
g92
g93
ssg81
g1626
sg74
(lp1633
S'wsgi_input'
p1634
asbag67
(g88
g69
NtRp1635
(dp1636
g72
(dp1637
g99
g100
ssg81
g1626
sg74
(lp1638
S':'
asbag67
(g88
g69
NtRp1639
(dp1640
g72
(dp1641
sg81
g1626
sg74
(lp1642
g67
(g68
g69
NtRp1643
(dp1644
g72
(dp1645
g80
I4
ssg81
g1639
sg74
(lp1646
S'<socket._fileobject object at 0xb33da62c>'
p1647
asbasbasbag67
(g83
g69
NtRp1648
(dp1649
g72
(dp1650
sg81
g832
sg74
(lp1651
g67
(g88
g69
NtRp1652
(dp1653
g72
(dp1654
g92
g93
ssg81
g1648
sg74
(lp1655
S'wsgi_multiprocess'
p1656
asbag67
(g88
g69
NtRp1657
(dp1658
g72
(dp1659
g99
g100
ssg81
g1648
sg74
(lp1660
S':'
asbag67
(g88
g69
NtRp1661
(dp1662
g72
(dp1663
sg81
g1648
sg74
(lp1664
g67
(g68
g69
NtRp1665
(dp1666
g72
(dp1667
g80
I4
ssg81
g1661
sg74
(lp1668
g970
asbasbasbag67
(g83
g69
NtRp1669
(dp1670
g72
(dp1671
sg81
g832
sg74
(lp1672
g67
(g88
g69
NtRp1673
(dp1674
g72
(dp1675
g92
g93
ssg81
g1669
sg74
(lp1676
S'wsgi_multithread'
p1677
asbag67
(g88
g69
NtRp1678
(dp1679
g72
(dp1680
g99
g100
ssg81
g1669
sg74
(lp1681
S':'
asbag67
(g88
g69
NtRp1682
(dp1683
g72
(dp1684
sg81
g1669
sg74
(lp1685
g67
(g68
g69
NtRp1686
(dp1687
g72
(dp1688
g80
I4
ssg81
g1682
sg74
(lp1689
g110
asbasbasbag67
(g83
g69
NtRp1690
(dp1691
g72
(dp1692
sg81
g832
sg74
(lp1693
g67
(g88
g69
NtRp1694
(dp1695
g72
(dp1696
g92
g93
ssg81
g1690
sg74
(lp1697
S'wsgi_run_once'
p1698
asbag67
(g88
g69
NtRp1699
(dp1700
g72
(dp1701
g99
g100
ssg81
g1690
sg74
(lp1702
S':'
asbag67
(g88
g69
NtRp1703
(dp1704
g72
(dp1705
sg81
g1690
sg74
(lp1706
g67
(g68
g69
NtRp1707
(dp1708
g72
(dp1709
g80
I4
ssg81
g1703
sg74
(lp1710
g970
asbasbasbag67
(g83
g69
NtRp1711
(dp1712
g72
(dp1713
sg81
g832
sg74
(lp1714
g67
(g88
g69
NtRp1715
(dp1716
g72
(dp1717
g92
g93
ssg81
g1711
sg74
(lp1718
S'wsgi_url_scheme'
p1719
asbag67
(g88
g69
NtRp1720
(dp1721
g72
(dp1722
g99
g100
ssg81
g1711
sg74
(lp1723
S':'
asbag67
(g88
g69
NtRp1724
(dp1725
g72
(dp1726
sg81
g1711
sg74
(lp1727
g67
(g68
g69
NtRp1728
(dp1729
g72
(dp1730
g80
I4
ssg81
g1724
sg74
(lp1731
S'http'
p1732
asbasbasbag67
(g83
g69
NtRp1733
(dp1734
g72
(dp1735
sg81
g832
sg74
(lp1736
g67
(g88
g69
NtRp1737
(dp1738
g72
(dp1739
g92
g93
ssg81
g1733
sg74
(lp1740
S'wsgi_version'
p1741
asbag67
(g88
g69
NtRp1742
(dp1743
g72
(dp1744
g99
g100
ssg81
g1733
sg74
(lp1745
S':'
asbag67
(g88
g69
NtRp1746
(dp1747
g72
(dp1748
sg81
g1733
sg74
(lp1749
g67
(g68
g69
NtRp1750
(dp1751
g72
(dp1752
g80
I4
ssg81
g1746
sg74
(lp1753
g67
(g76
g69
NtRp1754
(dp1755
g72
(dp1756
g80
I3
ssg81
Nsg74
(lp1757
g67
(g83
g69
NtRp1758
(dp1759
g72
(dp1760
sg81
g1754
sg74
(lp1761
g67
(g88
g69
NtRp1762
(dp1763
g72
(dp1764
sg81
g1758
sg74
(lp1765
g67
(g68
g69
NtRp1766
(dp1767
g72
(dp1768
g80
I3
ssg81
g1762
sg74
(lp1769
S'1'
asbasbasbag67
(g83
g69
NtRp1770
(dp1771
g72
(dp1772
sg81
g1754
sg74
(lp1773
g67
(g88
g69
NtRp1774
(dp1775
g72
(dp1776
sg81
g1770
sg74
(lp1777
g67
(g68
g69
NtRp1778
(dp1779
g72
(dp1780
g80
I3
ssg81
g1774
sg74
(lp1781
S'0'
asbasbasbasbasbasbasbasbasbasbasbag67
(g83
g69
NtRp1782
(dp1783
g72
(dp1784
sg81
g77
sg74
(lp1785
g67
(g88
g69
NtRp1786
(dp1787
g72
(dp1788
g92
g93
ssg81
g1782
sg74
(lp1789
S'extension'
p1790
asbag67
(g88
g69
NtRp1791
(dp1792
g72
(dp1793
g99
g100
ssg81
g1782
sg74
(lp1794
S':'
asbag67
(g88
g69
NtRp1795
(dp1796
g72
(dp1797
sg81
g1782
sg74
(lp1798
g67
(g68
g69
NtRp1799
(dp1800
g72
(dp1801
g80
I5
ssg81
g1795
sg74
(lp1802
S'html'
p1803
asbasbasbag67
(g83
g69
NtRp1804
(dp1805
g72
(dp1806
sg81
g77
sg74
(lp1807
g67
(g88
g69
NtRp1808
(dp1809
g72
(dp1810
g92
g93
ssg81
g1804
sg74
(lp1811
S'folder'
p1812
asbag67
(g88
g69
NtRp1813
(dp1814
g72
(dp1815
g99
g100
ssg81
g1804
sg74
(lp1816
S':'
asbag67
(g88
g69
NtRp1817
(dp1818
g72
(dp1819
sg81
g1804
sg74
(lp1820
g67
(g68
g69
NtRp1821
(dp1822
g72
(dp1823
g80
I5
ssg81
g1817
sg74
(lp1824
S'/home/prateek/web2py/applications/phyloShiny/'
p1825
asbasbasbag67
(g83
g69
NtRp1826
(dp1827
g72
(dp1828
sg81
g77
sg74
(lp1829
g67
(g88
g69
NtRp1830
(dp1831
g72
(dp1832
g92
g93
ssg81
g1826
sg74
(lp1833
S'function'
p1834
asbag67
(g88
g69
NtRp1835
(dp1836
g72
(dp1837
g99
g100
ssg81
g1826
sg74
(lp1838
S':'
asbag67
(g88
g69
NtRp1839
(dp1840
g72
(dp1841
sg81
g1826
sg74
(lp1842
g67
(g68
g69
NtRp1843
(dp1844
g72
(dp1845
g80
I5
ssg81
g1839
sg74
(lp1846
S'getPhylotasticTree'
p1847
asbasbasbag67
(g83
g69
NtRp1848
(dp1849
g72
(dp1850
sg81
g77
sg74
(lp1851
g67
(g88
g69
NtRp1852
(dp1853
g72
(dp1854
g92
g93
ssg81
g1848
sg74
(lp1855
S'get_vars'
p1856
asbag67
(g88
g69
NtRp1857
(dp1858
g72
(dp1859
g99
g100
ssg81
g1848
sg74
(lp1860
S':'
asbag67
(g88
g69
NtRp1861
(dp1862
g72
(dp1863
sg81
g1848
sg74
(lp1864
g67
(g68
g69
NtRp1865
(dp1866
g72
(dp1867
g80
I5
ssg81
g1861
sg74
(lp1868
g67
(g76
g69
NtRp1869
(dp1870
g72
(dp1871
g80
I4
ssg81
Nsg74
(lp1872
g67
(g83
g69
NtRp1873
(dp1874
g72
(dp1875
sg81
g1869
sg74
(lp1876
g67
(g88
g69
NtRp1877
(dp1878
g72
(dp1879
g92
g93
ssg81
g1873
sg74
(lp1880
S'treeFileName'
p1881
asbag67
(g88
g69
NtRp1882
(dp1883
g72
(dp1884
g99
g100
ssg81
g1873
sg74
(lp1885
S':'
asbag67
(g88
g69
NtRp1886
(dp1887
g72
(dp1888
sg81
g1873
sg74
(lp1889
g67
(g68
g69
NtRp1890
(dp1891
g72
(dp1892
g80
I4
ssg81
g1886
sg74
(lp1893
S'static/sample_data/demo_Primate_Tubulin1/input_genetree.nwk.txt'
p1894
asbasbasbasbasbasbasbag67
(g83
g69
NtRp1895
(dp1896
g72
(dp1897
sg81
g77
sg74
(lp1898
g67
(g88
g69
NtRp1899
(dp1900
g72
(dp1901
g92
g93
ssg81
g1895
sg74
(lp1902
S'global_settings'
p1903
asbag67
(g88
g69
NtRp1904
(dp1905
g72
(dp1906
g99
g100
ssg81
g1895
sg74
(lp1907
S':'
asbag67
(g88
g69
NtRp1908
(dp1909
g72
(dp1910
sg81
g1895
sg74
(lp1911
g67
(g68
g69
NtRp1912
(dp1913
g72
(dp1914
g80
I5
ssg81
g1908
sg74
(lp1915
g67
(g76
g69
NtRp1916
(dp1917
g72
(dp1918
g80
I4
ssg81
Nsg74
(lp1919
g67
(g83
g69
NtRp1920
(dp1921
g72
(dp1922
sg81
g1916
sg74
(lp1923
g67
(g88
g69
NtRp1924
(dp1925
g72
(dp1926
g92
g93
ssg81
g1920
sg74
(lp1927
g844
asbag67
(g88
g69
NtRp1928
(dp1929
g72
(dp1930
g99
g100
ssg81
g1920
sg74
(lp1931
S':'
asbag67
(g88
g69
NtRp1932
(dp1933
g72
(dp1934
sg81
g1920
sg74
(lp1935
g67
(g68
g69
NtRp1936
(dp1937
g72
(dp1938
g80
I4
ssg81
g1932
sg74
(lp1939
S"set(['/home/prateek/web2py/applications/phyloShiny/', '/home/prateek/web2py/applications/welcome/'])"
p1940
asbasbasbag67
(g83
g69
NtRp1941
(dp1942
g72
(dp1943
sg81
g1916
sg74
(lp1944
g67
(g88
g69
NtRp1945
(dp1946
g72
(dp1947
g92
g93
ssg81
g1941
sg74
(lp1948
g866
asbag67
(g88
g69
NtRp1949
(dp1950
g72
(dp1951
g99
g100
ssg81
g1941
sg74
(lp1952
S':'
asbag67
(g88
g69
NtRp1953
(dp1954
g72
(dp1955
sg81
g1941
sg74
(lp1956
g67
(g68
g69
NtRp1957
(dp1958
g72
(dp1959
g80
I4
ssg81
g1953
sg74
(lp1960
g879
asbasbasbag67
(g83
g69
NtRp1961
(dp1962
g72
(dp1963
sg81
g1916
sg74
(lp1964
g67
(g88
g69
NtRp1965
(dp1966
g72
(dp1967
g92
g93
ssg81
g1961
sg74
(lp1968
g888
asbag67
(g88
g69
NtRp1969
(dp1970
g72
(dp1971
g99
g100
ssg81
g1961
sg74
(lp1972
S':'
asbag67
(g88
g69
NtRp1973
(dp1974
g72
(dp1975
sg81
g1961
sg74
(lp1976
g67
(g68
g69
NtRp1977
(dp1978
g72
(dp1979
g80
I4
ssg81
g1973
sg74
(lp1980
g67
(g76
g69
NtRp1981
(dp1982
g72
(dp1983
g80
I3
ssg81
Nsg74
(lp1984
sbasbasbasbag67
(g83
g69
NtRp1985
(dp1986
g72
(dp1987
sg81
g1916
sg74
(lp1988
g67
(g88
g69
NtRp1989
(dp1990
g72
(dp1991
g92
g93
ssg81
g1985
sg74
(lp1992
g913
asbag67
(g88
g69
NtRp1993
(dp1994
g72
(dp1995
g99
g100
ssg81
g1985
sg74
(lp1996
S':'
asbag67
(g88
g69
NtRp1997
(dp1998
g72
(dp1999
sg81
g1985
sg74
(lp2000
g67
(g68
g69
NtRp2001
(dp2002
g72
(dp2003
g80
I4
ssg81
g1997
sg74
(lp2004
S"<Values at 0x926860c: {'verbose': False, 'ip': '127.0.0.1', 'shutdown_timeout': 5, 'taskbar': False, 'port': 8000, 'maxthreads': None, 'softcron': False, 'server_name': 'prateek-Inspiron-N5110', 'bpython': False, 'nogui': False, 'nocron': False, 'extcron': False, 'debuglevel': 30, 'test': None, 'folder': '/home/prateek/web2py', 'config': '', 'import_models': False, 'winservice': '', 'shell': None, 'run': '', 'log_filename': 'httpserver.log', 'args': [''], 'socket_timeout': 1, 'profiler_filename': None, 'ssl_private_key': '', 'password': '<ask>', 'request_queue_size': 5, 'ssl_certificate': '', 'cronjob': False, 'plain': False, 'quiet': False, 'interfaces': None, 'minthreads': None, 'timeout': 10, 'numthreads': None, 'nobanner': False, 'pid_filename': 'httpserver.pid'}>"
p2005
asbasbasbag67
(g83
g69
NtRp2006
(dp2007
g72
(dp2008
sg81
g1916
sg74
(lp2009
g67
(g88
g69
NtRp2010
(dp2011
g72
(dp2012
g92
g93
ssg81
g2006
sg74
(lp2013
g935
asbag67
(g88
g69
NtRp2014
(dp2015
g72
(dp2016
g99
g100
ssg81
g2006
sg74
(lp2017
S':'
asbag67
(g88
g69
NtRp2018
(dp2019
g72
(dp2020
sg81
g2006
sg74
(lp2021
g67
(g68
g69
NtRp2022
(dp2023
g72
(dp2024
g80
I4
ssg81
g2018
sg74
(lp2025
S'set([])'
p2026
asbasbasbag67
(g83
g69
NtRp2027
(dp2028
g72
(dp2029
sg81
g1916
sg74
(lp2030
g67
(g88
g69
NtRp2031
(dp2032
g72
(dp2033
g92
g93
ssg81
g2027
sg74
(lp2034
g957
asbag67
(g88
g69
NtRp2035
(dp2036
g72
(dp2037
g99
g100
ssg81
g2027
sg74
(lp2038
S':'
asbag67
(g88
g69
NtRp2039
(dp2040
g72
(dp2041
sg81
g2027
sg74
(lp2042
g67
(g68
g69
NtRp2043
(dp2044
g72
(dp2045
g80
I4
ssg81
g2039
sg74
(lp2046
g970
asbasbasbag67
(g83
g69
NtRp2047
(dp2048
g72
(dp2049
sg81
g1916
sg74
(lp2050
g67
(g88
g69
NtRp2051
(dp2052
g72
(dp2053
g92
g93
ssg81
g2047
sg74
(lp2054
g979
asbag67
(g88
g69
NtRp2055
(dp2056
g72
(dp2057
g99
g100
ssg81
g2047
sg74
(lp2058
S':'
asbag67
(g88
g69
NtRp2059
(dp2060
g72
(dp2061
sg81
g2047
sg74
(lp2062
g67
(g68
g69
NtRp2063
(dp2064
g72
(dp2065
g80
I4
ssg81
g2059
sg74
(lp2066
g992
asbasbasbag67
(g83
g69
NtRp2067
(dp2068
g72
(dp2069
sg81
g1916
sg74
(lp2070
g67
(g88
g69
NtRp2071
(dp2072
g72
(dp2073
g92
g93
ssg81
g2067
sg74
(lp2074
g1199
asbag67
(g88
g69
NtRp2075
(dp2076
g72
(dp2077
g99
g100
ssg81
g2067
sg74
(lp2078
S':'
asbag67
(g88
g69
NtRp2079
(dp2080
g72
(dp2081
sg81
g2067
sg74
(lp2082
g67
(g68
g69
NtRp2083
(dp2084
g72
(dp2085
g80
I4
ssg81
g2079
sg74
(lp2086
g970
asbasbasbag67
(g83
g69
NtRp2087
(dp2088
g72
(dp2089
sg81
g1916
sg74
(lp2090
g67
(g88
g69
NtRp2091
(dp2092
g72
(dp2093
g92
g93
ssg81
g2087
sg74
(lp2094
g1220
asbag67
(g88
g69
NtRp2095
(dp2096
g72
(dp2097
g99
g100
ssg81
g2087
sg74
(lp2098
S':'
asbag67
(g88
g69
NtRp2099
(dp2100
g72
(dp2101
sg81
g2087
sg74
(lp2102
g67
(g68
g69
NtRp2103
(dp2104
g72
(dp2105
g80
I4
ssg81
g2099
sg74
(lp2106
g970
asbasbasbag67
(g83
g69
NtRp2107
(dp2108
g72
(dp2109
sg81
g1916
sg74
(lp2110
g67
(g88
g69
NtRp2111
(dp2112
g72
(dp2113
g92
g93
ssg81
g2107
sg74
(lp2114
g1459
asbag67
(g88
g69
NtRp2115
(dp2116
g72
(dp2117
g99
g100
ssg81
g2107
sg74
(lp2118
S':'
asbag67
(g88
g69
NtRp2119
(dp2120
g72
(dp2121
sg81
g2107
sg74
(lp2122
g67
(g68
g69
NtRp2123
(dp2124
g72
(dp2125
g80
I4
ssg81
g2119
sg74
(lp2126
g1472
asbasbasbag67
(g83
g69
NtRp2127
(dp2128
g72
(dp2129
sg81
g1916
sg74
(lp2130
g67
(g88
g69
NtRp2131
(dp2132
g72
(dp2133
g92
g93
ssg81
g2127
sg74
(lp2134
g1502
asbag67
(g88
g69
NtRp2135
(dp2136
g72
(dp2137
g99
g100
ssg81
g2127
sg74
(lp2138
S':'
asbag67
(g88
g69
NtRp2139
(dp2140
g72
(dp2141
sg81
g2127
sg74
(lp2142
g67
(g68
g69
NtRp2143
(dp2144
g72
(dp2145
g80
I4
ssg81
g2139
sg74
(lp2146
g67
(g76
g69
NtRp2147
(dp2148
g72
(dp2149
g80
I3
ssg81
Nsg74
(lp2150
g67
(g83
g69
NtRp2151
(dp2152
g72
(dp2153
sg81
g2147
sg74
(lp2154
g67
(g88
g69
NtRp2155
(dp2156
g72
(dp2157
sg81
g2151
sg74
(lp2158
g67
(g68
g69
NtRp2159
(dp2160
g72
(dp2161
g80
I3
ssg81
g2155
sg74
(lp2162
S'1'
asbasbasbag67
(g83
g69
NtRp2163
(dp2164
g72
(dp2165
sg81
g2147
sg74
(lp2166
g67
(g88
g69
NtRp2167
(dp2168
g72
(dp2169
sg81
g2163
sg74
(lp2170
g67
(g68
g69
NtRp2171
(dp2172
g72
(dp2173
g80
I3
ssg81
g2167
sg74
(lp2174
S'99'
p2175
asbasbasbag67
(g83
g69
NtRp2176
(dp2177
g72
(dp2178
sg81
g2147
sg74
(lp2179
g67
(g88
g69
NtRp2180
(dp2181
g72
(dp2182
sg81
g2176
sg74
(lp2183
g67
(g68
g69
NtRp2184
(dp2185
g72
(dp2186
g80
I3
ssg81
g2180
sg74
(lp2187
S'4'
asbasbasbag67
(g83
g69
NtRp2188
(dp2189
g72
(dp2190
sg81
g2147
sg74
(lp2191
g67
(g88
g69
NtRp2192
(dp2193
g72
(dp2194
sg81
g2188
sg74
(lp2195
g67
(g68
g69
NtRp2196
(dp2197
g72
(dp2198
g80
I3
ssg81
g2192
sg74
(lp2199
S'datetime.datetime(2011, 12, 14, 14, 46, 14)'
p2200
asbasbasbag67
(g83
g69
NtRp2201
(dp2202
g72
(dp2203
sg81
g2147
sg74
(lp2204
g67
(g88
g69
NtRp2205
(dp2206
g72
(dp2207
sg81
g2201
sg74
(lp2208
g67
(g68
g69
NtRp2209
(dp2210
g72
(dp2211
g80
I3
ssg81
g2205
sg74
(lp2212
g1581
asbasbasbasbasbasbasbasbasbasbasbag67
(g83
g69
NtRp2213
(dp2214
g72
(dp2215
sg81
g77
sg74
(lp2216
g67
(g88
g69
NtRp2217
(dp2218
g72
(dp2219
g92
g93
ssg81
g2213
sg74
(lp2220
S'is_https'
p2221
asbag67
(g88
g69
NtRp2222
(dp2223
g72
(dp2224
g99
g100
ssg81
g2213
sg74
(lp2225
S':'
asbag67
(g88
g69
NtRp2226
(dp2227
g72
(dp2228
sg81
g2213
sg74
(lp2229
g67
(g68
g69
NtRp2230
(dp2231
g72
(dp2232
g80
I5
ssg81
g2226
sg74
(lp2233
g970
asbasbasbag67
(g83
g69
NtRp2234
(dp2235
g72
(dp2236
sg81
g77
sg74
(lp2237
g67
(g88
g69
NtRp2238
(dp2239
g72
(dp2240
g92
g93
ssg81
g2234
sg74
(lp2241
S'is_local'
p2242
asbag67
(g88
g69
NtRp2243
(dp2244
g72
(dp2245
g99
g100
ssg81
g2234
sg74
(lp2246
S':'
asbag67
(g88
g69
NtRp2247
(dp2248
g72
(dp2249
sg81
g2234
sg74
(lp2250
g67
(g68
g69
NtRp2251
(dp2252
g72
(dp2253
g80
I5
ssg81
g2247
sg74
(lp2254
g110
asbasbasbag67
(g83
g69
NtRp2255
(dp2256
g72
(dp2257
sg81
g77
sg74
(lp2258
g67
(g88
g69
NtRp2259
(dp2260
g72
(dp2261
g92
g93
ssg81
g2255
sg74
(lp2262
S'is_restful'
p2263
asbag67
(g88
g69
NtRp2264
(dp2265
g72
(dp2266
g99
g100
ssg81
g2255
sg74
(lp2267
S':'
asbag67
(g88
g69
NtRp2268
(dp2269
g72
(dp2270
sg81
g2255
sg74
(lp2271
g67
(g68
g69
NtRp2272
(dp2273
g72
(dp2274
g80
I5
ssg81
g2268
sg74
(lp2275
g970
asbasbasbag67
(g83
g69
NtRp2276
(dp2277
g72
(dp2278
sg81
g77
sg74
(lp2279
g67
(g88
g69
NtRp2280
(dp2281
g72
(dp2282
g92
g93
ssg81
g2276
sg74
(lp2283
S'now'
p2284
asbag67
(g88
g69
NtRp2285
(dp2286
g72
(dp2287
g99
g100
ssg81
g2276
sg74
(lp2288
S':'
asbag67
(g88
g69
NtRp2289
(dp2290
g72
(dp2291
sg81
g2276
sg74
(lp2292
g67
(g68
g69
NtRp2293
(dp2294
g72
(dp2295
g80
I5
ssg81
g2289
sg74
(lp2296
S'datetime.datetime(2013, 5, 17, 10, 58, 52, 645496)'
p2297
asbasbasbag67
(g83
g69
NtRp2298
(dp2299
g72
(dp2300
sg81
g77
sg74
(lp2301
g67
(g88
g69
NtRp2302
(dp2303
g72
(dp2304
g92
g93
ssg81
g2298
sg74
(lp2305
S'post_vars'
p2306
asbag67
(g88
g69
NtRp2307
(dp2308
g72
(dp2309
g99
g100
ssg81
g2298
sg74
(lp2310
S':'
asbag67
(g88
g69
NtRp2311
(dp2312
g72
(dp2313
sg81
g2298
sg74
(lp2314
g67
(g68
g69
NtRp2315
(dp2316
g72
(dp2317
g80
I5
ssg81
g2311
sg74
(lp2318
g67
(g76
g69
NtRp2319
(dp2320
g72
(dp2321
g80
I4
ssg81
Nsg74
(lp2322
sbasbasbasbag67
(g83
g69
NtRp2323
(dp2324
g72
(dp2325
sg81
g77
sg74
(lp2326
g67
(g88
g69
NtRp2327
(dp2328
g72
(dp2329
g92
g93
ssg81
g2323
sg74
(lp2330
S'url'
p2331
asbag67
(g88
g69
NtRp2332
(dp2333
g72
(dp2334
g99
g100
ssg81
g2323
sg74
(lp2335
S':'
asbag67
(g88
g69
NtRp2336
(dp2337
g72
(dp2338
sg81
g2323
sg74
(lp2339
g67
(g68
g69
NtRp2340
(dp2341
g72
(dp2342
g80
I5
ssg81
g2336
sg74
(lp2343
S'/phyloShiny/reconciliotastic/getPhylotasticTree'
p2344
asbasbasbag67
(g83
g69
NtRp2345
(dp2346
g72
(dp2347
sg81
g77
sg74
(lp2348
g67
(g88
g69
NtRp2349
(dp2350
g72
(dp2351
g92
g93
ssg81
g2345
sg74
(lp2352
S'utcnow'
p2353
asbag67
(g88
g69
NtRp2354
(dp2355
g72
(dp2356
g99
g100
ssg81
g2345
sg74
(lp2357
S':'
asbag67
(g88
g69
NtRp2358
(dp2359
g72
(dp2360
sg81
g2345
sg74
(lp2361
g67
(g68
g69
NtRp2362
(dp2363
g72
(dp2364
g80
I5
ssg81
g2358
sg74
(lp2365
S'datetime.datetime(2013, 5, 17, 5, 28, 52, 645518)'
p2366
asbasbasbag67
(g83
g69
NtRp2367
(dp2368
g72
(dp2369
sg81
g77
sg74
(lp2370
g67
(g88
g69
NtRp2371
(dp2372
g72
(dp2373
g92
g93
ssg81
g2367
sg74
(lp2374
S'uuid'
p2375
asbag67
(g88
g69
NtRp2376
(dp2377
g72
(dp2378
g99
g100
ssg81
g2367
sg74
(lp2379
S':'
asbag67
(g88
g69
NtRp2380
(dp2381
g72
(dp2382
sg81
g2367
sg74
(lp2383
g67
(g68
g69
NtRp2384
(dp2385
g72
(dp2386
g80
I5
ssg81
g2380
sg74
(lp2387
S'phyloShiny/127.0.0.1.2013-05-17.10-58-52.3c3ddf3f-c120-405b-8a7e-407d884e29a4'
p2388
asbasbasbag67
(g83
g69
NtRp2389
(dp2390
g72
(dp2391
sg81
g77
sg74
(lp2392
g67
(g88
g69
NtRp2393
(dp2394
g72
(dp2395
g92
g93
ssg81
g2389
sg74
(lp2396
S'vars'
p2397
asbag67
(g88
g69
NtRp2398
(dp2399
g72
(dp2400
g99
g100
ssg81
g2389
sg74
(lp2401
S':'
asbag67
(g88
g69
NtRp2402
(dp2403
g72
(dp2404
sg81
g2389
sg74
(lp2405
g67
(g68
g69
NtRp2406
(dp2407
g72
(dp2408
g80
I5
ssg81
g2402
sg74
(lp2409
g67
(g76
g69
NtRp2410
(dp2411
g72
(dp2412
g80
I4
ssg81
Nsg74
(lp2413
g67
(g83
g69
NtRp2414
(dp2415
g72
(dp2416
sg81
g2410
sg74
(lp2417
g67
(g88
g69
NtRp2418
(dp2419
g72
(dp2420
g92
g93
ssg81
g2414
sg74
(lp2421
g1881
asbag67
(g88
g69
NtRp2422
(dp2423
g72
(dp2424
g99
g100
ssg81
g2414
sg74
(lp2425
S':'
asbag67
(g88
g69
NtRp2426
(dp2427
g72
(dp2428
sg81
g2414
sg74
(lp2429
g67
(g68
g69
NtRp2430
(dp2431
g72
(dp2432
g80
I4
ssg81
g2426
sg74
(lp2433
g1894
asbasbasbasbasbasbasbag67
(g83
g69
NtRp2434
(dp2435
g72
(dp2436
sg81
g77
sg74
(lp2437
g67
(g88
g69
NtRp2438
(dp2439
g72
(dp2440
g92
g93
ssg81
g2434
sg74
(lp2441
S'wsgi'
p2442
asbag67
(g88
g69
NtRp2443
(dp2444
g72
(dp2445
g99
g100
ssg81
g2434
sg74
(lp2446
S':'
asbag67
(g88
g69
NtRp2447
(dp2448
g72
(dp2449
sg81
g2434
sg74
(lp2450
g67
(g68
g69
NtRp2451
(dp2452
g72
(dp2453
g80
I5
ssg81
g2447
sg74
(lp2454
g67
(g76
g69
NtRp2455
(dp2456
g72
(dp2457
g80
I4
ssg81
Nsg74
(lp2458
g67
(g83
g69
NtRp2459
(dp2460
g72
(dp2461
sg81
g2455
sg74
(lp2462
g67
(g88
g69
NtRp2463
(dp2464
g72
(dp2465
g92
g93
ssg81
g2459
sg74
(lp2466
S'environ'
p2467
asbag67
(g88
g69
NtRp2468
(dp2469
g72
(dp2470
g99
g100
ssg81
g2459
sg74
(lp2471
S':'
asbag67
(g88
g69
NtRp2472
(dp2473
g72
(dp2474
sg81
g2459
sg74
(lp2475
g67
(g68
g69
NtRp2476
(dp2477
g72
(dp2478
g80
I4
ssg81
g2472
sg74
(lp2479
g67
(g76
g69
NtRp2480
(dp2481
g72
(dp2482
g80
I3
ssg81
Nsg74
(lp2483
g67
(g83
g69
NtRp2484
(dp2485
g72
(dp2486
sg81
g2480
sg74
(lp2487
g67
(g88
g69
NtRp2488
(dp2489
g72
(dp2490
g92
g93
ssg81
g2484
sg74
(lp2491
S'HTTP_ACCEPT'
p2492
asbag67
(g88
g69
NtRp2493
(dp2494
g72
(dp2495
g99
g100
ssg81
g2484
sg74
(lp2496
S':'
asbag67
(g88
g69
NtRp2497
(dp2498
g72
(dp2499
sg81
g2484
sg74
(lp2500
g67
(g68
g69
NtRp2501
(dp2502
g72
(dp2503
g80
I3
ssg81
g2497
sg74
(lp2504
g1014
asbasbasbag67
(g83
g69
NtRp2505
(dp2506
g72
(dp2507
sg81
g2480
sg74
(lp2508
g67
(g88
g69
NtRp2509
(dp2510
g72
(dp2511
g92
g93
ssg81
g2505
sg74
(lp2512
S'HTTP_ACCEPT_ENCODING'
p2513
asbag67
(g88
g69
NtRp2514
(dp2515
g72
(dp2516
g99
g100
ssg81
g2505
sg74
(lp2517
S':'
asbag67
(g88
g69
NtRp2518
(dp2519
g72
(dp2520
sg81
g2505
sg74
(lp2521
g67
(g68
g69
NtRp2522
(dp2523
g72
(dp2524
g80
I3
ssg81
g2518
sg74
(lp2525
g1036
asbasbasbag67
(g83
g69
NtRp2526
(dp2527
g72
(dp2528
sg81
g2480
sg74
(lp2529
g67
(g88
g69
NtRp2530
(dp2531
g72
(dp2532
g92
g93
ssg81
g2526
sg74
(lp2533
S'HTTP_ACCEPT_LANGUAGE'
p2534
asbag67
(g88
g69
NtRp2535
(dp2536
g72
(dp2537
g99
g100
ssg81
g2526
sg74
(lp2538
S':'
asbag67
(g88
g69
NtRp2539
(dp2540
g72
(dp2541
sg81
g2526
sg74
(lp2542
g67
(g68
g69
NtRp2543
(dp2544
g72
(dp2545
g80
I3
ssg81
g2539
sg74
(lp2546
g1058
asbasbasbag67
(g83
g69
NtRp2547
(dp2548
g72
(dp2549
sg81
g2480
sg74
(lp2550
g67
(g88
g69
NtRp2551
(dp2552
g72
(dp2553
g92
g93
ssg81
g2547
sg74
(lp2554
S'HTTP_CONNECTION'
p2555
asbag67
(g88
g69
NtRp2556
(dp2557
g72
(dp2558
g99
g100
ssg81
g2547
sg74
(lp2559
S':'
asbag67
(g88
g69
NtRp2560
(dp2561
g72
(dp2562
sg81
g2547
sg74
(lp2563
g67
(g68
g69
NtRp2564
(dp2565
g72
(dp2566
g80
I3
ssg81
g2560
sg74
(lp2567
g1080
asbasbasbag67
(g83
g69
NtRp2568
(dp2569
g72
(dp2570
sg81
g2480
sg74
(lp2571
g67
(g88
g69
NtRp2572
(dp2573
g72
(dp2574
g92
g93
ssg81
g2568
sg74
(lp2575
S'HTTP_COOKIE'
p2576
asbag67
(g88
g69
NtRp2577
(dp2578
g72
(dp2579
g99
g100
ssg81
g2568
sg74
(lp2580
S':'
asbag67
(g88
g69
NtRp2581
(dp2582
g72
(dp2583
sg81
g2568
sg74
(lp2584
g67
(g68
g69
NtRp2585
(dp2586
g72
(dp2587
g80
I3
ssg81
g2581
sg74
(lp2588
g1102
asbasbasbag67
(g83
g69
NtRp2589
(dp2590
g72
(dp2591
sg81
g2480
sg74
(lp2592
g67
(g88
g69
NtRp2593
(dp2594
g72
(dp2595
g92
g93
ssg81
g2589
sg74
(lp2596
S'HTTP_HOST'
p2597
asbag67
(g88
g69
NtRp2598
(dp2599
g72
(dp2600
g99
g100
ssg81
g2589
sg74
(lp2601
S':'
asbag67
(g88
g69
NtRp2602
(dp2603
g72
(dp2604
sg81
g2589
sg74
(lp2605
g67
(g68
g69
NtRp2606
(dp2607
g72
(dp2608
g80
I3
ssg81
g2602
sg74
(lp2609
g1124
asbasbasbag67
(g83
g69
NtRp2610
(dp2611
g72
(dp2612
sg81
g2480
sg74
(lp2613
g67
(g88
g69
NtRp2614
(dp2615
g72
(dp2616
g92
g93
ssg81
g2610
sg74
(lp2617
S'HTTP_REFERER'
p2618
asbag67
(g88
g69
NtRp2619
(dp2620
g72
(dp2621
g99
g100
ssg81
g2610
sg74
(lp2622
S':'
asbag67
(g88
g69
NtRp2623
(dp2624
g72
(dp2625
sg81
g2610
sg74
(lp2626
g67
(g68
g69
NtRp2627
(dp2628
g72
(dp2629
g80
I3
ssg81
g2623
sg74
(lp2630
g1146
asbasbasbag67
(g83
g69
NtRp2631
(dp2632
g72
(dp2633
sg81
g2480
sg74
(lp2634
g67
(g88
g69
NtRp2635
(dp2636
g72
(dp2637
g92
g93
ssg81
g2631
sg74
(lp2638
S'HTTP_USER_AGENT'
p2639
asbag67
(g88
g69
NtRp2640
(dp2641
g72
(dp2642
g99
g100
ssg81
g2631
sg74
(lp2643
S':'
asbag67
(g88
g69
NtRp2644
(dp2645
g72
(dp2646
sg81
g2631
sg74
(lp2647
g67
(g68
g69
NtRp2648
(dp2649
g72
(dp2650
g80
I3
ssg81
g2644
sg74
(lp2651
g1168
asbasbasbag67
(g83
g69
NtRp2652
(dp2653
g72
(dp2654
sg81
g2480
sg74
(lp2655
g67
(g88
g69
NtRp2656
(dp2657
g72
(dp2658
g92
g93
ssg81
g2652
sg74
(lp2659
S'HTTP_X_REQUESTED_WITH'
p2660
asbag67
(g88
g69
NtRp2661
(dp2662
g72
(dp2663
g99
g100
ssg81
g2652
sg74
(lp2664
S':'
asbag67
(g88
g69
NtRp2665
(dp2666
g72
(dp2667
sg81
g2652
sg74
(lp2668
g67
(g68
g69
NtRp2669
(dp2670
g72
(dp2671
g80
I3
ssg81
g2665
sg74
(lp2672
g1190
asbasbasbag67
(g83
g69
NtRp2673
(dp2674
g72
(dp2675
sg81
g2480
sg74
(lp2676
g67
(g88
g69
NtRp2677
(dp2678
g72
(dp2679
g92
g93
ssg81
g2673
sg74
(lp2680
S'PATH_INFO'
p2681
asbag67
(g88
g69
NtRp2682
(dp2683
g72
(dp2684
g99
g100
ssg81
g2673
sg74
(lp2685
S':'
asbag67
(g88
g69
NtRp2686
(dp2687
g72
(dp2688
sg81
g2673
sg74
(lp2689
g67
(g68
g69
NtRp2690
(dp2691
g72
(dp2692
g80
I3
ssg81
g2686
sg74
(lp2693
g1254
asbasbasbag67
(g83
g69
NtRp2694
(dp2695
g72
(dp2696
sg81
g2480
sg74
(lp2697
g67
(g88
g69
NtRp2698
(dp2699
g72
(dp2700
g92
g93
ssg81
g2694
sg74
(lp2701
S'QUERY_STRING'
p2702
asbag67
(g88
g69
NtRp2703
(dp2704
g72
(dp2705
g99
g100
ssg81
g2694
sg74
(lp2706
S':'
asbag67
(g88
g69
NtRp2707
(dp2708
g72
(dp2709
sg81
g2694
sg74
(lp2710
g67
(g68
g69
NtRp2711
(dp2712
g72
(dp2713
g80
I3
ssg81
g2707
sg74
(lp2714
g1276
asbasbasbag67
(g83
g69
NtRp2715
(dp2716
g72
(dp2717
sg81
g2480
sg74
(lp2718
g67
(g88
g69
NtRp2719
(dp2720
g72
(dp2721
g92
g93
ssg81
g2715
sg74
(lp2722
S'REMOTE_ADDR'
p2723
asbag67
(g88
g69
NtRp2724
(dp2725
g72
(dp2726
g99
g100
ssg81
g2715
sg74
(lp2727
S':'
asbag67
(g88
g69
NtRp2728
(dp2729
g72
(dp2730
sg81
g2715
sg74
(lp2731
g67
(g68
g69
NtRp2732
(dp2733
g72
(dp2734
g80
I3
ssg81
g2728
sg74
(lp2735
g200
asbasbasbag67
(g83
g69
NtRp2736
(dp2737
g72
(dp2738
sg81
g2480
sg74
(lp2739
g67
(g88
g69
NtRp2740
(dp2741
g72
(dp2742
g92
g93
ssg81
g2736
sg74
(lp2743
S'REMOTE_PORT'
p2744
asbag67
(g88
g69
NtRp2745
(dp2746
g72
(dp2747
g99
g100
ssg81
g2736
sg74
(lp2748
S':'
asbag67
(g88
g69
NtRp2749
(dp2750
g72
(dp2751
sg81
g2736
sg74
(lp2752
g67
(g68
g69
NtRp2753
(dp2754
g72
(dp2755
g80
I3
ssg81
g2749
sg74
(lp2756
g1319
asbasbasbag67
(g83
g69
NtRp2757
(dp2758
g72
(dp2759
sg81
g2480
sg74
(lp2760
g67
(g88
g69
NtRp2761
(dp2762
g72
(dp2763
g92
g93
ssg81
g2757
sg74
(lp2764
S'REQUEST_METHOD'
p2765
asbag67
(g88
g69
NtRp2766
(dp2767
g72
(dp2768
g99
g100
ssg81
g2757
sg74
(lp2769
S':'
asbag67
(g88
g69
NtRp2770
(dp2771
g72
(dp2772
sg81
g2757
sg74
(lp2773
g67
(g68
g69
NtRp2774
(dp2775
g72
(dp2776
g80
I3
ssg81
g2770
sg74
(lp2777
g1341
asbasbasbag67
(g83
g69
NtRp2778
(dp2779
g72
(dp2780
sg81
g2480
sg74
(lp2781
g67
(g88
g69
NtRp2782
(dp2783
g72
(dp2784
g92
g93
ssg81
g2778
sg74
(lp2785
S'SCRIPT_NAME'
p2786
asbag67
(g88
g69
NtRp2787
(dp2788
g72
(dp2789
g99
g100
ssg81
g2778
sg74
(lp2790
S':'
asbag67
(g88
g69
NtRp2791
(dp2792
g72
(dp2793
sg81
g2778
sg74
(lp2794
g67
(g68
g69
NtRp2795
(dp2796
g72
(dp2797
g80
I3
ssg81
g2791
sg74
(lp2798
S''
asbasbasbag67
(g83
g69
NtRp2799
(dp2800
g72
(dp2801
sg81
g2480
sg74
(lp2802
g67
(g88
g69
NtRp2803
(dp2804
g72
(dp2805
g92
g93
ssg81
g2799
sg74
(lp2806
S'SERVER_NAME'
p2807
asbag67
(g88
g69
NtRp2808
(dp2809
g72
(dp2810
g99
g100
ssg81
g2799
sg74
(lp2811
S':'
asbag67
(g88
g69
NtRp2812
(dp2813
g72
(dp2814
sg81
g2799
sg74
(lp2815
g67
(g68
g69
NtRp2816
(dp2817
g72
(dp2818
g80
I3
ssg81
g2812
sg74
(lp2819
g1384
asbasbasbag67
(g83
g69
NtRp2820
(dp2821
g72
(dp2822
sg81
g2480
sg74
(lp2823
g67
(g88
g69
NtRp2824
(dp2825
g72
(dp2826
g92
g93
ssg81
g2820
sg74
(lp2827
S'SERVER_PORT'
p2828
asbag67
(g88
g69
NtRp2829
(dp2830
g72
(dp2831
g99
g100
ssg81
g2820
sg74
(lp2832
S':'
asbag67
(g88
g69
NtRp2833
(dp2834
g72
(dp2835
sg81
g2820
sg74
(lp2836
g67
(g68
g69
NtRp2837
(dp2838
g72
(dp2839
g80
I3
ssg81
g2833
sg74
(lp2840
g1406
asbasbasbag67
(g83
g69
NtRp2841
(dp2842
g72
(dp2843
sg81
g2480
sg74
(lp2844
g67
(g88
g69
NtRp2845
(dp2846
g72
(dp2847
g92
g93
ssg81
g2841
sg74
(lp2848
S'SERVER_PROTOCOL'
p2849
asbag67
(g88
g69
NtRp2850
(dp2851
g72
(dp2852
g99
g100
ssg81
g2841
sg74
(lp2853
S':'
asbag67
(g88
g69
NtRp2854
(dp2855
g72
(dp2856
sg81
g2841
sg74
(lp2857
g67
(g68
g69
NtRp2858
(dp2859
g72
(dp2860
g80
I3
ssg81
g2854
sg74
(lp2861
g1428
asbasbasbag67
(g83
g69
NtRp2862
(dp2863
g72
(dp2864
sg81
g2480
sg74
(lp2865
g67
(g88
g69
NtRp2866
(dp2867
g72
(dp2868
g92
g93
ssg81
g2862
sg74
(lp2869
S'SERVER_SOFTWARE'
p2870
asbag67
(g88
g69
NtRp2871
(dp2872
g72
(dp2873
g99
g100
ssg81
g2862
sg74
(lp2874
S':'
asbag67
(g88
g69
NtRp2875
(dp2876
g72
(dp2877
sg81
g2862
sg74
(lp2878
g67
(g68
g69
NtRp2879
(dp2880
g72
(dp2881
g80
I3
ssg81
g2875
sg74
(lp2882
g1450
asbasbasbag67
(g83
g69
NtRp2883
(dp2884
g72
(dp2885
sg81
g2480
sg74
(lp2886
g67
(g88
g69
NtRp2887
(dp2888
g72
(dp2889
g92
g93
ssg81
g2883
sg74
(lp2890
S'wsgi.errors'
p2891
asbag67
(g88
g69
NtRp2892
(dp2893
g72
(dp2894
g99
g100
ssg81
g2883
sg74
(lp2895
S':'
asbag67
(g88
g69
NtRp2896
(dp2897
g72
(dp2898
sg81
g2883
sg74
(lp2899
g67
(g68
g69
NtRp2900
(dp2901
g72
(dp2902
g80
I3
ssg81
g2896
sg74
(lp2903
S"<open file '<stderr>', mode 'w' at 0xb72920d0>"
p2904
asbasbasbag67
(g83
g69
NtRp2905
(dp2906
g72
(dp2907
sg81
g2480
sg74
(lp2908
g67
(g88
g69
NtRp2909
(dp2910
g72
(dp2911
g92
g93
ssg81
g2905
sg74
(lp2912
S'wsgi.file_wrapper'
p2913
asbag67
(g88
g69
NtRp2914
(dp2915
g72
(dp2916
g99
g100
ssg81
g2905
sg74
(lp2917
S':'
asbag67
(g88
g69
NtRp2918
(dp2919
g72
(dp2920
sg81
g2905
sg74
(lp2921
g67
(g68
g69
NtRp2922
(dp2923
g72
(dp2924
g80
I3
ssg81
g2918
sg74
(lp2925
S'<class wsgiref.util.FileWrapper at 0x902626c>'
p2926
asbasbasbag67
(g83
g69
NtRp2927
(dp2928
g72
(dp2929
sg81
g2480
sg74
(lp2930
g67
(g88
g69
NtRp2931
(dp2932
g72
(dp2933
g92
g93
ssg81
g2927
sg74
(lp2934
S'wsgi.input'
p2935
asbag67
(g88
g69
NtRp2936
(dp2937
g72
(dp2938
g99
g100
ssg81
g2927
sg74
(lp2939
S':'
asbag67
(g88
g69
NtRp2940
(dp2941
g72
(dp2942
sg81
g2927
sg74
(lp2943
g67
(g68
g69
NtRp2944
(dp2945
g72
(dp2946
g80
I3
ssg81
g2940
sg74
(lp2947
S'<cStringIO.StringO object at 0xb33c38a0>'
p2948
asbasbasbag67
(g83
g69
NtRp2949
(dp2950
g72
(dp2951
sg81
g2480
sg74
(lp2952
g67
(g88
g69
NtRp2953
(dp2954
g72
(dp2955
g92
g93
ssg81
g2949
sg74
(lp2956
S'wsgi.multiprocess'
p2957
asbag67
(g88
g69
NtRp2958
(dp2959
g72
(dp2960
g99
g100
ssg81
g2949
sg74
(lp2961
S':'
asbag67
(g88
g69
NtRp2962
(dp2963
g72
(dp2964
sg81
g2949
sg74
(lp2965
g67
(g68
g69
NtRp2966
(dp2967
g72
(dp2968
g80
I3
ssg81
g2962
sg74
(lp2969
g970
asbasbasbag67
(g83
g69
NtRp2970
(dp2971
g72
(dp2972
sg81
g2480
sg74
(lp2973
g67
(g88
g69
NtRp2974
(dp2975
g72
(dp2976
g92
g93
ssg81
g2970
sg74
(lp2977
S'wsgi.multithread'
p2978
asbag67
(g88
g69
NtRp2979
(dp2980
g72
(dp2981
g99
g100
ssg81
g2970
sg74
(lp2982
S':'
asbag67
(g88
g69
NtRp2983
(dp2984
g72
(dp2985
sg81
g2970
sg74
(lp2986
g67
(g68
g69
NtRp2987
(dp2988
g72
(dp2989
g80
I3
ssg81
g2983
sg74
(lp2990
g110
asbasbasbag67
(g83
g69
NtRp2991
(dp2992
g72
(dp2993
sg81
g2480
sg74
(lp2994
g67
(g88
g69
NtRp2995
(dp2996
g72
(dp2997
g92
g93
ssg81
g2991
sg74
(lp2998
S'wsgi.run_once'
p2999
asbag67
(g88
g69
NtRp3000
(dp3001
g72
(dp3002
g99
g100
ssg81
g2991
sg74
(lp3003
S':'
asbag67
(g88
g69
NtRp3004
(dp3005
g72
(dp3006
sg81
g2991
sg74
(lp3007
g67
(g68
g69
NtRp3008
(dp3009
g72
(dp3010
g80
I3
ssg81
g3004
sg74
(lp3011
g970
asbasbasbag67
(g83
g69
NtRp3012
(dp3013
g72
(dp3014
sg81
g2480
sg74
(lp3015
g67
(g88
g69
NtRp3016
(dp3017
g72
(dp3018
g92
g93
ssg81
g3012
sg74
(lp3019
S'wsgi.url_scheme'
p3020
asbag67
(g88
g69
NtRp3021
(dp3022
g72
(dp3023
g99
g100
ssg81
g3012
sg74
(lp3024
S':'
asbag67
(g88
g69
NtRp3025
(dp3026
g72
(dp3027
sg81
g3012
sg74
(lp3028
g67
(g68
g69
NtRp3029
(dp3030
g72
(dp3031
g80
I3
ssg81
g3025
sg74
(lp3032
g1732
asbasbasbag67
(g83
g69
NtRp3033
(dp3034
g72
(dp3035
sg81
g2480
sg74
(lp3036
g67
(g88
g69
NtRp3037
(dp3038
g72
(dp3039
g92
g93
ssg81
g3033
sg74
(lp3040
S'wsgi.version'
p3041
asbag67
(g88
g69
NtRp3042
(dp3043
g72
(dp3044
g99
g100
ssg81
g3033
sg74
(lp3045
S':'
asbag67
(g88
g69
NtRp3046
(dp3047
g72
(dp3048
sg81
g3033
sg74
(lp3049
g67
(g68
g69
NtRp3050
(dp3051
g72
(dp3052
g80
I3
ssg81
g3046
sg74
(lp3053
S'1'
asbasbasbasbasbasbasbasbasbasbasbasbasbsS'frames'
p3054
(lp3055
(dp3056
S'file'
p3057
S'/usr/lib/pymodules/python2.7/gluon/restricted.py'
p3058
sS'dump'
p3059
(dp3060
S'environment'
p3061
S"{'A': <class 'gluon.html.A'>, 'Auth': <class 'gluon.tools.Auth'>, 'B': <class 'gluon.html.B'>, 'BEAUTIFY': <class 'gluon.html.BEAUTIFY'>, 'BODY': <class 'gluon.html.BODY'>, 'BR': <class 'gluon.html.BR'>, 'BUTTON': <class 'gluon.html.BUTTON'>, 'CAT': <class 'gluon.html.CAT'>, 'CENTER': <class 'gluon.html.CENTER'>, 'CLEANUP': <class 'gluon.validators.CLEANUP'>, ...}"
p3062
sS'ccode'
p3063
S'<code object <module> at 0xab7894a0, file "/home...oShiny/controllers/reconciliotastic.py", line 11>'
p3064
ssS'lnum'
p3065
I204
sS'lines'
p3066
(dp3067
I199
S'    try:'
p3068
sI200
S'        if type(code) == types.CodeType:'
p3069
sI201
S'            ccode = code'
p3070
sI202
S'        else:'
p3071
sI203
S'            ccode = compile2(code,layer)'
p3072
sI204
S'        exec ccode in environment'
p3073
sI205
S'    except HTTP:'
p3074
sI206
S'        raise'
p3075
sI207
S'    except RestrictedError:'
p3076
sI208
S'        # do not encapsulate (obfuscate) the original RestrictedError'
p3077
ssS'call'
p3078
S"(code='# -*- coding: utf-8 -*-\\n# this file is released ...ponse._vars=response._caller(getPhylotasticTree)\\n', environment={'A': <class 'gluon.html.A'>, 'Auth': <class 'gluon.tools.Auth'>, 'B': <class 'gluon.html.B'>, 'BEAUTIFY': <class 'gluon.html.BEAUTIFY'>, 'BODY': <class 'gluon.html.BODY'>, 'BR': <class 'gluon.html.BR'>, 'BUTTON': <class 'gluon.html.BUTTON'>, 'CAT': <class 'gluon.html.CAT'>, 'CENTER': <class 'gluon.html.CENTER'>, 'CLEANUP': <class 'gluon.validators.CLEANUP'>, ...}, layer='/home/prateek/web2py/applications/phyloShiny/controllers/reconciliotastic.py')"
p3079
sS'func'
p3080
S'restricted'
p3081
sa(dp3082
g3057
S'/home/prateek/web2py/applications/phyloShiny/controllers/reconciliotastic.py'
p3083
sg3059
(dp3084
sg3065
I170
sg3066
(dp3085
I160
S"    shellCall += ' '+speciesTreeFile"
p3086
sI161
S''
sI162
S'    os.system(shellCall)'
p3087
sI163
S''
sI164
S"    reconciledTreeWebFile = getRelativeWebPath('_preprocessed_gene_tree.phylo_gsdi_out.phylo.xml')"
p3088
sI165
S''
sI166
S'    return response.json( dict(vizFile = reconciledTreeWebFile,'
p3089
sI167
S'                               vizLabel = "Reconciled Tree (red=duplication, green=speciation)"'
p3090
sI168
S'                               ) )'
p3091
sI159
S'    shellCall += geneTreeFile'
p3092
ssg3078
S'()'
p3093
sg3080
S'<module>'
p3094
sa(dp3095
g3057
S'/usr/lib/pymodules/python2.7/gluon/globals.py'
p3096
sg3059
(dp3097
S'self'
p3098
S'undefined'
p3099
sS'f'
S'<function getPhylotasticTree>'
p3100
ssg3065
I172
sg3066
(dp3101
I167
S'        self.meta = Storage()      # used by web2py_ajax.html'
p3102
sI168
S'        self.menu = []             # used by the default view layout'
p3103
sI169
S'        self.files = []            # used by web2py_ajax.html'
p3104
sI170
S'        self.generic_patterns = [] # patterns to allow generic views'
p3105
sI171
S'        self._vars = None'
p3106
sI172
S'        self._caller = lambda f: f()'
p3107
sI173
S'        self._view_environment = None'
p3108
sI174
S'        self._custom_commit = None'
p3109
sI175
S'        self._custom_rollback = None'
p3110
sI176
S''
ssg3078
S'(f=<function getPhylotasticTree>)'
p3111
sg3080
S'<lambda>'
p3112
sa(dp3113
g3057
S'/home/prateek/web2py/applications/phyloShiny/controllers/reconciliotastic.py'
p3114
sg3059
(dp3115
S'urllib2.urlopen'
p3116
S'<function urlopen>'
p3117
sS'global urllib2'
p3118
S"<module 'urllib2' from '/usr/lib/python2.7/urllib2.pyc'>"
p3119
sS'conn'
p3120
g3099
sS'speciesTreeUrl'
p3121
S"'http://phylotastic-wg.nescent.org/script/phylota...ulatta,Pan_troglodytes&tree=mammals&format=newick'"
p3122
ssg3065
I112
sg3066
(dp3123
I107
S"    speciesList = [x.replace(' ', '_') for x in speciesList]"
p3124
sI108
S"    speciesString = ','.join(speciesList)"
p3125
sI109
S''
sI110
S"    phylotasticUrlBase = 'http://phylotastic-wg.nescent.org/script/phylotastic.cgi?species='"
p3126
sI111
S"    speciesTreeUrl = phylotasticUrlBase+speciesString+'&tree=mammals&format=newick'"
p3127
sI112
S'    conn = urllib2.urlopen(speciesTreeUrl)'
p3128
sI113
S'    speciesTreeString = conn.read()'
p3129
sI114
S'    speciesTreeString = speciesTreeString.strip()'
p3130
sI115
S''
sI116
S"    speciesTreeFilename = filePrefix+'_species_tree.txt'"
p3131
ssg3078
S'()'
p3132
sg3080
S'getPhylotasticTree'
p3133
sa(dp3134
g3057
S'/usr/lib/python2.7/urllib2.py'
p3135
sg3059
(dp3136
S'_opener.open'
p3137
S'<bound method OpenerDirector.open of <urllib2.OpenerDirector instance>>'
p3138
sS'url'
p3139
S"'http://phylotastic-wg.nescent.org/script/phylota...ulatta,Pan_troglodytes&tree=mammals&format=newick'"
p3140
sS'data'
p3141
S'None'
p3142
sS'global _opener'
p3143
S'<urllib2.OpenerDirector instance>'
p3144
sS'timeout'
p3145
S'<object object>'
p3146
ssg3065
I126
sg3066
(dp3147
I128
S'def install_opener(opener):'
p3148
sI129
S'    global _opener'
p3149
sI130
S'    _opener = opener'
p3150
sI121
S'_opener = None'
p3151
sI122
S'def urlopen(url, data=None, timeout=socket._GLOBAL_DEFAULT_TIMEOUT):'
p3152
sI123
S'    global _opener'
p3153
sI124
S'    if _opener is None:'
p3154
sI125
S'        _opener = build_opener()'
p3155
sI126
S'    return _opener.open(url, data, timeout)'
p3156
sI127
S''
ssg3078
S"(url='http://phylotastic-wg.nescent.org/script/phylota...ulatta,Pan_troglodytes&tree=mammals&format=newick', data=None, timeout=<object object>)"
p3157
sg3080
S'urlopen'
p3158
sa(dp3159
g3057
S'/usr/lib/python2.7/urllib2.py'
p3160
sg3059
(dp3161
S'self'
p3162
S'<urllib2.OpenerDirector instance>'
p3163
sS'req'
p3164
S'<urllib2.Request instance>'
p3165
sS'data'
p3166
S'None'
p3167
sS'response'
p3168
g3099
sS'self._open'
p3169
S'<bound method OpenerDirector._open of <urllib2.OpenerDirector instance>>'
p3170
ssg3065
I400
sg3066
(dp3171
I395
S'        meth_name = protocol+"_request"'
p3172
sI396
S'        for processor in self.process_request.get(protocol, []):'
p3173
sI397
S'            meth = getattr(processor, meth_name)'
p3174
sI398
S'            req = meth(req)'
p3175
sI399
S''
sI400
S'        response = self._open(req, data)'
p3176
sI401
S''
sI402
S'        # post-process response'
p3177
sI403
S'        meth_name = protocol+"_response"'
p3178
sI404
S'        for processor in self.process_response.get(protocol, []):'
p3179
ssg3078
S"(self=<urllib2.OpenerDirector instance>, fullurl='http://phylotastic-wg.nescent.org/script/phylota...ulatta,Pan_troglodytes&tree=mammals&format=newick', data=None, timeout=<object object>)"
p3180
sg3080
S'open'
p3181
sa(dp3182
g3057
S'/usr/lib/python2.7/urllib2.py'
p3183
sg3059
(dp3184
S'req'
p3185
S'<urllib2.Request instance>'
p3186
ssg3065
I418
sg3066
(dp3187
I416
S'        protocol = req.get_type()'
p3188
sI417
S'        result = self._call_chain(self.handle_open, protocol, protocol +'
p3189
sI418
S"                                  '_open', req)"
p3190
sI419
S'        if result:'
p3191
sI420
S'            return result'
p3192
sI421
S''
sI422
S"        return self._call_chain(self.handle_open, 'unknown',"
p3193
sI413
S'        if result:'
p3194
sI414
S'            return result'
p3195
sI415
S''
ssg3078
S'(self=<urllib2.OpenerDirector instance>, req=<urllib2.Request instance>, data=None)'
p3196
sg3080
S'_open'
p3197
sa(dp3198
g3057
S'/usr/lib/python2.7/urllib2.py'
p3199
sg3059
(dp3200
S'args'
p3201
S'(<urllib2.Request instance>,)'
p3202
sS'result'
p3203
g3099
sS'func'
p3204
S'<bound method HTTPHandler.http_open of <urllib2.HTTPHandler instance>>'
p3205
ssg3065
I378
sg3066
(dp3206
I373
S'        # could.  Otherwise, they return the response.'
p3207
sI374
S'        handlers = chain.get(kind, ())'
p3208
sI375
S'        for handler in handlers:'
p3209
sI376
S'            func = getattr(handler, meth_name)'
p3210
sI377
S''
sI378
S'            result = func(*args)'
p3211
sI379
S'            if result is not None:'
p3212
sI380
S'                return result'
p3213
sI381
S''
sI382
S'    def open(self, fullurl, data=None, timeout=socket._GLOBAL_DEFAULT_TIMEOUT):'
p3214
ssg3078
S"(self=<urllib2.OpenerDirector instance>, chain={'file': [<urllib2.FileHandler instance>], 'ftp': [<urllib2.FTPHandler instance>], 'http': [<urllib2.HTTPHandler instance>], 'https': [<urllib2.HTTPSHandler instance>], 'unknown': [<urllib2.UnknownHandler instance>]}, kind='http', meth_name='http_open', *args=(<urllib2.Request instance>,))"
p3215
sg3080
S'_call_chain'
p3216
sa(dp3217
g3057
S'/usr/lib/python2.7/urllib2.py'
p3218
sg3059
(dp3219
S'self'
p3220
S'<urllib2.HTTPHandler instance>'
p3221
sS'req'
p3222
S'<urllib2.Request instance>'
p3223
sS'global httplib'
p3224
S"<module 'httplib' from '/usr/lib/python2.7/httplib.pyc'>"
p3225
sS'self.do_open'
p3226
S'<bound method HTTPHandler.do_open of <urllib2.HTTPHandler instance>>'
p3227
sS'httplib.HTTPConnection'
p3228
S'<class httplib.HTTPConnection>'
p3229
ssg3065
I1207
sg3066
(dp3230
I1202
S''
sI1203
S''
sI1204
S'class HTTPHandler(AbstractHTTPHandler):'
p3231
sI1205
S''
sI1206
S'    def http_open(self, req):'
p3232
sI1207
S'        return self.do_open(httplib.HTTPConnection, req)'
p3233
sI1208
S''
sI1209
S'    http_request = AbstractHTTPHandler.do_request_'
p3234
sI1210
S''
sI1211
S"if hasattr(httplib, 'HTTPS'):"
p3235
ssg3078
S'(self=<urllib2.HTTPHandler instance>, req=<urllib2.Request instance>)'
p3236
sg3080
S'http_open'
p3237
sa(dp3238
g3057
S'/usr/lib/python2.7/urllib2.py'
p3239
sg3059
(dp3240
S'h'
S'<httplib.HTTPConnection instance>'
p3241
sS'buffering'
p3242
g3099
sS'r'
g3099
sS'builtinTrue'
p3243
g110
sS'h.getresponse'
p3244
S'<bound method HTTPConnection.getresponse of <httplib.HTTPConnection instance>>'
p3245
ssg3065
I1180
sg3066
(dp3246
I1184
S'        # Pick apart the HTTPResponse object to get the addinfourl'
p3247
sI1175
S'        except socket.error, err: # XXX what error?'
p3248
sI1176
S'            h.close()'
p3249
sI1177
S'            raise URLError(err)'
p3250
sI1178
S'        else:'
p3251
sI1179
S'            try:'
p3252
sI1180
S'                r = h.getresponse(buffering=True)'
p3253
sI1181
S'            except TypeError: # buffering kw not supported'
p3254
sI1182
S'                r = h.getresponse()'
p3255
sI1183
S''
ssg3078
S'(self=<urllib2.HTTPHandler instance>, http_class=<class httplib.HTTPConnection>, req=<urllib2.Request instance>)'
p3256
sg3080
S'do_open'
p3257
sa(dp3258
g3057
S'/usr/lib/python2.7/httplib.py'
p3259
sg3059
(dp3260
S'response.begin'
p3261
S'<bound method HTTPResponse.begin of <httplib.HTTPResponse instance>>'
p3262
sS'response'
p3263
S'<httplib.HTTPResponse instance>'
p3264
ssg3065
I1030
sg3066
(dp3265
I1025
S'            #only add this keyword if non-default, for compatibility with'
p3266
sI1026
S'            #other response_classes.'
p3267
sI1027
S'            kwds["buffering"] = True;'
p3268
sI1028
S'        response = self.response_class(*args, **kwds)'
p3269
sI1029
S''
sI1030
S'        response.begin()'
p3270
sI1031
S'        assert response.will_close != _UNKNOWN'
p3271
sI1032
S'        self.__state = _CS_IDLE'
p3272
sI1033
S''
sI1034
S'        if response.will_close:'
p3273
ssg3078
S'(self=<httplib.HTTPConnection instance>, buffering=True)'
p3274
sg3080
S'getresponse'
p3275
sa(dp3276
g3057
S'/usr/lib/python2.7/httplib.py'
p3277
sg3059
(dp3278
S'status'
p3279
g3099
sS'reason'
p3280
g3099
sS'version'
p3281
g3099
sS'self'
p3282
S'<httplib.HTTPResponse instance>'
p3283
sS'self._read_status'
p3284
S'<bound method HTTPResponse._read_status of <httplib.HTTPResponse instance>>'
p3285
ssg3065
I407
sg3066
(dp3286
I402
S"            # we've already started reading the response"
p3287
sI403
S'            return'
p3288
sI404
S''
sI405
S'        # read until we get a non-100 response'
p3289
sI406
S'        while True:'
p3290
sI407
S'            version, status, reason = self._read_status()'
p3291
sI408
S'            if status != CONTINUE:'
p3292
sI409
S'                break'
p3293
sI410
S'            # skip the header from the 100 response'
p3294
sI411
S'            while True:'
p3295
ssg3078
S'(self=<httplib.HTTPResponse instance>)'
p3296
sg3080
S'begin'
p3297
sa(dp3298
g3057
S'/usr/lib/python2.7/httplib.py'
p3299
sg3059
(dp3300
S'self.fp'
p3301
S'<socket._fileobject object>'
p3302
sS'line'
p3303
g3099
sS'self'
p3304
S'<httplib.HTTPResponse instance>'
p3305
sS'self.fp.readline'
p3306
S'<bound method _fileobject.readline of <socket._fileobject object>>'
p3307
ssg3065
I365
sg3066
(dp3308
I360
S'        self.length = _UNKNOWN          # number of bytes left in response'
p3309
sI361
S'        self.will_close = _UNKNOWN      # conn will close at end of response'
p3310
sI362
S''
sI363
S'    def _read_status(self):'
p3311
sI364
S'        # Initialize with Simple-Response defaults'
p3312
sI365
S'        line = self.fp.readline()'
p3313
sI366
S'        if self.debuglevel > 0:'
p3314
sI367
S'            print "reply:", repr(line)'
p3315
sI368
S'        if not line:'
p3316
sI369
S'            # Presumably, the server closed the connection before'
p3317
ssg3078
S'(self=<httplib.HTTPResponse instance>)'
p3318
sg3080
S'_read_status'
p3319
sa(dp3320
g3057
S'/usr/lib/python2.7/socket.py'
p3321
sg3059
(dp3322
S'self._sock.recv'
p3323
S'<built-in method recv of _socket.socket object>'
p3324
sS'self._sock'
p3325
S'<socket object, fd=23, family=2, type=1, protocol=6>'
p3326
sS'self'
p3327
S'<socket._fileobject object>'
p3328
sS'self._rbufsize'
p3329
S'8192'
p3330
sS'data'
p3331
g3099
ssg3065
I447
sg3066
(dp3332
I448
S'                except error, e:'
p3333
sI449
S'                    if e.args[0] == EINTR:'
p3334
sI450
S'                        continue'
p3335
sI451
S'                    raise'
p3336
sI442
S''
sI443
S'            buf.seek(0, 2)  # seek end'
p3337
sI444
S'            self._rbuf = StringIO()  # reset _rbuf.  we consume it via buf.'
p3338
sI445
S'            while True:'
p3339
sI446
S'                try:'
p3340
sI447
S'                    data = self._sock.recv(self._rbufsize)'
p3341
ssg3078
S'(self=<socket._fileobject object>, size=-1)'
p3342
sg3080
S'readline'
p3343
sasS'pyver'
p3344
S'Python 2.7.3: /usr/bin/python'
p3345
sS'session'
p3346
g67
(g68
g69
NtRp3347
(dp3348
g72
(dp3349
sg74
(lp3350
g67
(g76
g69
NtRp3351
(dp3352
g72
(dp3353
g80
I5
ssg81
Nsg74
(lp3354
sbasbsS'etype'
p3355
S"<class 'socket.error'>"
p3356
sS'date'
p3357
S'Fri May 17 11:00:36 2013'
p3358
sS'response'
p3359
g67
(g68
g69
NtRp3360
(dp3361
g72
(dp3362
sg74
(lp3363
g67
(g76
g69
NtRp3364
(dp3365
g72
(dp3366
g80
I5
ssg81
Nsg74
(lp3367
g67
(g83
g69
NtRp3368
(dp3369
g72
(dp3370
sg81
g3364
sg74
(lp3371
g67
(g88
g69
NtRp3372
(dp3373
g72
(dp3374
g92
g93
ssg81
g3368
sg74
(lp3375
g165
asbag67
(g88
g69
NtRp3376
(dp3377
g72
(dp3378
g99
g100
ssg81
g3368
sg74
(lp3379
S':'
asbag67
(g88
g69
NtRp3380
(dp3381
g72
(dp3382
sg81
g3368
sg74
(lp3383
g67
(g68
g69
NtRp3384
(dp3385
g72
(dp3386
g80
I5
ssg81
g3380
sg74
(lp3387
S'<cStringIO.StringO object at 0xab94f720>'
p3388
asbasbasbag67
(g83
g69
NtRp3389
(dp3390
g72
(dp3391
sg81
g3364
sg74
(lp3392
g67
(g88
g69
NtRp3393
(dp3394
g72
(dp3395
g92
g93
ssg81
g3389
sg74
(lp3396
g231
asbag67
(g88
g69
NtRp3397
(dp3398
g72
(dp3399
g99
g100
ssg81
g3389
sg74
(lp3400
S':'
asbag67
(g88
g69
NtRp3401
(dp3402
g72
(dp3403
sg81
g3389
sg74
(lp3404
g67
(g68
g69
NtRp3405
(dp3406
g72
(dp3407
g80
I5
ssg81
g3401
sg74
(lp3408
g67
(g76
g69
NtRp3409
(dp3410
g72
(dp3411
g80
I4
ssg81
Nsg74
(lp3412
g67
(g83
g69
NtRp3413
(dp3414
g72
(dp3415
sg81
g3409
sg74
(lp3416
g67
(g88
g69
NtRp3417
(dp3418
g72
(dp3419
g92
g93
ssg81
g3413
sg74
(lp3420
S'session_id_phyloshiny'
p3421
asbag67
(g88
g69
NtRp3422
(dp3423
g72
(dp3424
g99
g100
ssg81
g3413
sg74
(lp3425
S':'
asbag67
(g88
g69
NtRp3426
(dp3427
g72
(dp3428
sg81
g3413
sg74
(lp3429
g67
(g68
g69
NtRp3430
(dp3431
g72
(dp3432
g80
I4
ssg81
g3426
sg74
(lp3433
g67
(g76
g69
NtRp3434
(dp3435
g72
(dp3436
g80
I3
ssg81
Nsg74
(lp3437
g67
(g83
g69
NtRp3438
(dp3439
g72
(dp3440
sg81
g3434
sg74
(lp3441
g67
(g88
g69
NtRp3442
(dp3443
g72
(dp3444
g92
g93
ssg81
g3438
sg74
(lp3445
g281
asbag67
(g88
g69
NtRp3446
(dp3447
g72
(dp3448
g99
g100
ssg81
g3438
sg74
(lp3449
S':'
asbag67
(g88
g69
NtRp3450
(dp3451
g72
(dp3452
sg81
g3438
sg74
(lp3453
g67
(g68
g69
NtRp3454
(dp3455
g72
(dp3456
g80
I3
ssg81
g3450
sg74
(lp3457
S''
asbasbasbag67
(g83
g69
NtRp3458
(dp3459
g72
(dp3460
sg81
g3434
sg74
(lp3461
g67
(g88
g69
NtRp3462
(dp3463
g72
(dp3464
g92
g93
ssg81
g3458
sg74
(lp3465
g302
asbag67
(g88
g69
NtRp3466
(dp3467
g72
(dp3468
g99
g100
ssg81
g3458
sg74
(lp3469
S':'
asbag67
(g88
g69
NtRp3470
(dp3471
g72
(dp3472
sg81
g3458
sg74
(lp3473
g67
(g68
g69
NtRp3474
(dp3475
g72
(dp3476
g80
I3
ssg81
g3470
sg74
(lp3477
S''
asbasbasbag67
(g83
g69
NtRp3478
(dp3479
g72
(dp3480
sg81
g3434
sg74
(lp3481
g67
(g88
g69
NtRp3482
(dp3483
g72
(dp3484
g92
g93
ssg81
g3478
sg74
(lp3485
g323
asbag67
(g88
g69
NtRp3486
(dp3487
g72
(dp3488
g99
g100
ssg81
g3478
sg74
(lp3489
S':'
asbag67
(g88
g69
NtRp3490
(dp3491
g72
(dp3492
sg81
g3478
sg74
(lp3493
g67
(g68
g69
NtRp3494
(dp3495
g72
(dp3496
g80
I3
ssg81
g3490
sg74
(lp3497
S''
asbasbasbag67
(g83
g69
NtRp3498
(dp3499
g72
(dp3500
sg81
g3434
sg74
(lp3501
g67
(g88
g69
NtRp3502
(dp3503
g72
(dp3504
g92
g93
ssg81
g3498
sg74
(lp3505
g344
asbag67
(g88
g69
NtRp3506
(dp3507
g72
(dp3508
g99
g100
ssg81
g3498
sg74
(lp3509
S':'
asbag67
(g88
g69
NtRp3510
(dp3511
g72
(dp3512
sg81
g3498
sg74
(lp3513
g67
(g68
g69
NtRp3514
(dp3515
g72
(dp3516
g80
I3
ssg81
g3510
sg74
(lp3517
S''
asbasbasbag67
(g83
g69
NtRp3518
(dp3519
g72
(dp3520
sg81
g3434
sg74
(lp3521
g67
(g88
g69
NtRp3522
(dp3523
g72
(dp3524
g92
g93
ssg81
g3518
sg74
(lp3525
g365
asbag67
(g88
g69
NtRp3526
(dp3527
g72
(dp3528
g99
g100
ssg81
g3518
sg74
(lp3529
S':'
asbag67
(g88
g69
NtRp3530
(dp3531
g72
(dp3532
sg81
g3518
sg74
(lp3533
g67
(g68
g69
NtRp3534
(dp3535
g72
(dp3536
g80
I3
ssg81
g3530
sg74
(lp3537
S''
asbasbasbag67
(g83
g69
NtRp3538
(dp3539
g72
(dp3540
sg81
g3434
sg74
(lp3541
g67
(g88
g69
NtRp3542
(dp3543
g72
(dp3544
g92
g93
ssg81
g3538
sg74
(lp3545
g386
asbag67
(g88
g69
NtRp3546
(dp3547
g72
(dp3548
g99
g100
ssg81
g3538
sg74
(lp3549
S':'
asbag67
(g88
g69
NtRp3550
(dp3551
g72
(dp3552
sg81
g3538
sg74
(lp3553
g67
(g68
g69
NtRp3554
(dp3555
g72
(dp3556
g80
I3
ssg81
g3550
sg74
(lp3557
S'/'
asbasbasbag67
(g83
g69
NtRp3558
(dp3559
g72
(dp3560
sg81
g3434
sg74
(lp3561
g67
(g88
g69
NtRp3562
(dp3563
g72
(dp3564
g92
g93
ssg81
g3558
sg74
(lp3565
g407
asbag67
(g88
g69
NtRp3566
(dp3567
g72
(dp3568
g99
g100
ssg81
g3558
sg74
(lp3569
S':'
asbag67
(g88
g69
NtRp3570
(dp3571
g72
(dp3572
sg81
g3558
sg74
(lp3573
g67
(g68
g69
NtRp3574
(dp3575
g72
(dp3576
g80
I3
ssg81
g3570
sg74
(lp3577
S''
asbasbasbag67
(g83
g69
NtRp3578
(dp3579
g72
(dp3580
sg81
g3434
sg74
(lp3581
g67
(g88
g69
NtRp3582
(dp3583
g72
(dp3584
g92
g93
ssg81
g3578
sg74
(lp3585
g428
asbag67
(g88
g69
NtRp3586
(dp3587
g72
(dp3588
g99
g100
ssg81
g3578
sg74
(lp3589
S':'
asbag67
(g88
g69
NtRp3590
(dp3591
g72
(dp3592
sg81
g3578
sg74
(lp3593
g67
(g68
g69
NtRp3594
(dp3595
g72
(dp3596
g80
I3
ssg81
g3590
sg74
(lp3597
S''
asbasbasbasbasbasbasbasbasbasbasbag67
(g83
g69
NtRp3598
(dp3599
g72
(dp3600
sg81
g3364
sg74
(lp3601
g67
(g88
g69
NtRp3602
(dp3603
g72
(dp3604
g92
g93
ssg81
g3598
sg74
(lp3605
S'files'
p3606
asbag67
(g88
g69
NtRp3607
(dp3608
g72
(dp3609
g99
g100
ssg81
g3598
sg74
(lp3610
S':'
asbag67
(g88
g69
NtRp3611
(dp3612
g72
(dp3613
sg81
g3598
sg74
(lp3614
g67
(g68
g69
NtRp3615
(dp3616
g72
(dp3617
g80
I5
ssg81
g3611
sg74
(lp3618
g67
(g76
g69
NtRp3619
(dp3620
g72
(dp3621
g80
I4
ssg81
Nsg74
(lp3622
sbasbasbasbag67
(g83
g69
NtRp3623
(dp3624
g72
(dp3625
sg81
g3364
sg74
(lp3626
g67
(g88
g69
NtRp3627
(dp3628
g72
(dp3629
g92
g93
ssg81
g3623
sg74
(lp3630
S'flash'
p3631
asbag67
(g88
g69
NtRp3632
(dp3633
g72
(dp3634
g99
g100
ssg81
g3623
sg74
(lp3635
S':'
asbag67
(g88
g69
NtRp3636
(dp3637
g72
(dp3638
sg81
g3623
sg74
(lp3639
g67
(g68
g69
NtRp3640
(dp3641
g72
(dp3642
g80
I5
ssg81
g3636
sg74
(lp3643
S''
asbasbasbag67
(g83
g69
NtRp3644
(dp3645
g72
(dp3646
sg81
g3364
sg74
(lp3647
g67
(g88
g69
NtRp3648
(dp3649
g72
(dp3650
g92
g93
ssg81
g3644
sg74
(lp3651
S'generic_patterns'
p3652
asbag67
(g88
g69
NtRp3653
(dp3654
g72
(dp3655
g99
g100
ssg81
g3644
sg74
(lp3656
S':'
asbag67
(g88
g69
NtRp3657
(dp3658
g72
(dp3659
sg81
g3644
sg74
(lp3660
g67
(g68
g69
NtRp3661
(dp3662
g72
(dp3663
g80
I5
ssg81
g3657
sg74
(lp3664
g67
(g76
g69
NtRp3665
(dp3666
g72
(dp3667
g80
I4
ssg81
Nsg74
(lp3668
g67
(g83
g69
NtRp3669
(dp3670
g72
(dp3671
sg81
g3665
sg74
(lp3672
g67
(g88
g69
NtRp3673
(dp3674
g72
(dp3675
sg81
g3669
sg74
(lp3676
g67
(g68
g69
NtRp3677
(dp3678
g72
(dp3679
g80
I4
ssg81
g3673
sg74
(lp3680
S'*'
asbasbasbasbasbasbasbag67
(g83
g69
NtRp3681
(dp3682
g72
(dp3683
sg81
g3364
sg74
(lp3684
g67
(g88
g69
NtRp3685
(dp3686
g72
(dp3687
g92
g93
ssg81
g3681
sg74
(lp3688
S'headers'
p3689
asbag67
(g88
g69
NtRp3690
(dp3691
g72
(dp3692
g99
g100
ssg81
g3681
sg74
(lp3693
S':'
asbag67
(g88
g69
NtRp3694
(dp3695
g72
(dp3696
sg81
g3681
sg74
(lp3697
g67
(g68
g69
NtRp3698
(dp3699
g72
(dp3700
g80
I5
ssg81
g3694
sg74
(lp3701
g67
(g76
g69
NtRp3702
(dp3703
g72
(dp3704
g80
I4
ssg81
Nsg74
(lp3705
g67
(g83
g69
NtRp3706
(dp3707
g72
(dp3708
sg81
g3702
sg74
(lp3709
g67
(g88
g69
NtRp3710
(dp3711
g72
(dp3712
g92
g93
ssg81
g3706
sg74
(lp3713
S'Cache-Control'
p3714
asbag67
(g88
g69
NtRp3715
(dp3716
g72
(dp3717
g99
g100
ssg81
g3706
sg74
(lp3718
S':'
asbag67
(g88
g69
NtRp3719
(dp3720
g72
(dp3721
sg81
g3706
sg74
(lp3722
g67
(g68
g69
NtRp3723
(dp3724
g72
(dp3725
g80
I4
ssg81
g3719
sg74
(lp3726
S'no-store, no-cache, must-revalidate, post-check=0, pre-check=0'
p3727
asbasbasbag67
(g83
g69
NtRp3728
(dp3729
g72
(dp3730
sg81
g3702
sg74
(lp3731
g67
(g88
g69
NtRp3732
(dp3733
g72
(dp3734
g92
g93
ssg81
g3728
sg74
(lp3735
S'Content-Type'
p3736
asbag67
(g88
g69
NtRp3737
(dp3738
g72
(dp3739
g99
g100
ssg81
g3728
sg74
(lp3740
S':'
asbag67
(g88
g69
NtRp3741
(dp3742
g72
(dp3743
sg81
g3728
sg74
(lp3744
g67
(g68
g69
NtRp3745
(dp3746
g72
(dp3747
g80
I4
ssg81
g3741
sg74
(lp3748
S'text/html; charset=utf-8'
p3749
asbasbasbag67
(g83
g69
NtRp3750
(dp3751
g72
(dp3752
sg81
g3702
sg74
(lp3753
g67
(g88
g69
NtRp3754
(dp3755
g72
(dp3756
g92
g93
ssg81
g3750
sg74
(lp3757
S'Expires'
p3758
asbag67
(g88
g69
NtRp3759
(dp3760
g72
(dp3761
g99
g100
ssg81
g3750
sg74
(lp3762
S':'
asbag67
(g88
g69
NtRp3763
(dp3764
g72
(dp3765
sg81
g3750
sg74
(lp3766
g67
(g68
g69
NtRp3767
(dp3768
g72
(dp3769
g80
I4
ssg81
g3763
sg74
(lp3770
S'Fri, 17 May 2013 05:28:52 GMT'
p3771
asbasbasbag67
(g83
g69
NtRp3772
(dp3773
g72
(dp3774
sg81
g3702
sg74
(lp3775
g67
(g88
g69
NtRp3776
(dp3777
g72
(dp3778
g92
g93
ssg81
g3772
sg74
(lp3779
S'Pragma'
p3780
asbag67
(g88
g69
NtRp3781
(dp3782
g72
(dp3783
g99
g100
ssg81
g3772
sg74
(lp3784
S':'
asbag67
(g88
g69
NtRp3785
(dp3786
g72
(dp3787
sg81
g3772
sg74
(lp3788
g67
(g68
g69
NtRp3789
(dp3790
g72
(dp3791
g80
I4
ssg81
g3785
sg74
(lp3792
S'no-cache'
p3793
asbasbasbag67
(g83
g69
NtRp3794
(dp3795
g72
(dp3796
sg81
g3702
sg74
(lp3797
g67
(g88
g69
NtRp3798
(dp3799
g72
(dp3800
g92
g93
ssg81
g3794
sg74
(lp3801
S'X-Powered-By'
p3802
asbag67
(g88
g69
NtRp3803
(dp3804
g72
(dp3805
g99
g100
ssg81
g3794
sg74
(lp3806
S':'
asbag67
(g88
g69
NtRp3807
(dp3808
g72
(dp3809
sg81
g3794
sg74
(lp3810
g67
(g68
g69
NtRp3811
(dp3812
g72
(dp3813
g80
I4
ssg81
g3807
sg74
(lp3814
S'web2py'
p3815
asbasbasbasbasbasbasbag67
(g83
g69
NtRp3816
(dp3817
g72
(dp3818
sg81
g3364
sg74
(lp3819
g67
(g88
g69
NtRp3820
(dp3821
g72
(dp3822
g92
g93
ssg81
g3816
sg74
(lp3823
S'menu'
p3824
asbag67
(g88
g69
NtRp3825
(dp3826
g72
(dp3827
g99
g100
ssg81
g3816
sg74
(lp3828
S':'
asbag67
(g88
g69
NtRp3829
(dp3830
g72
(dp3831
sg81
g3816
sg74
(lp3832
g67
(g68
g69
NtRp3833
(dp3834
g72
(dp3835
g80
I5
ssg81
g3829
sg74
(lp3836
g67
(g76
g69
NtRp3837
(dp3838
g72
(dp3839
g80
I4
ssg81
Nsg74
(lp3840
g67
(g83
g69
NtRp3841
(dp3842
g72
(dp3843
sg81
g3837
sg74
(lp3844
g67
(g88
g69
NtRp3845
(dp3846
g72
(dp3847
sg81
g3841
sg74
(lp3848
g67
(g68
g69
NtRp3849
(dp3850
g72
(dp3851
g80
I4
ssg81
g3845
sg74
(lp3852
g67
(g76
g69
NtRp3853
(dp3854
g72
(dp3855
g80
I3
ssg81
Nsg74
(lp3856
g67
(g83
g69
NtRp3857
(dp3858
g72
(dp3859
sg81
g3853
sg74
(lp3860
g67
(g88
g69
NtRp3861
(dp3862
g72
(dp3863
sg81
g3857
sg74
(lp3864
g67
(g68
g69
NtRp3865
(dp3866
g72
(dp3867
g80
I3
ssg81
g3861
sg74
(lp3868
cgluon.languages
lazyT_unpickle
p3869
(S't\x04\x00\x00\x00Home'
tRp3870
asbasbasbag67
(g83
g69
NtRp3871
(dp3872
g72
(dp3873
sg81
g3853
sg74
(lp3874
g67
(g88
g69
NtRp3875
(dp3876
g72
(dp3877
sg81
g3871
sg74
(lp3878
g67
(g68
g69
NtRp3879
(dp3880
g72
(dp3881
g80
I3
ssg81
g3875
sg74
(lp3882
g970
asbasbasbag67
(g83
g69
NtRp3883
(dp3884
g72
(dp3885
sg81
g3853
sg74
(lp3886
g67
(g88
g69
NtRp3887
(dp3888
g72
(dp3889
sg81
g3883
sg74
(lp3890
g67
(g68
g69
NtRp3891
(dp3892
g72
(dp3893
g80
I3
ssg81
g3887
sg74
(lp3894
S'/phyloShiny/default/index'
p3895
asbasbasbag67
(g83
g69
NtRp3896
(dp3897
g72
(dp3898
sg81
g3853
sg74
(lp3899
g67
(g88
g69
NtRp3900
(dp3901
g72
(dp3902
sg81
g3896
sg74
(lp3903
g67
(g68
g69
NtRp3904
(dp3905
g72
(dp3906
g80
I3
ssg81
g3900
sg74
(lp3907
g67
(g76
g69
NtRp3908
(dp3909
g72
(dp3910
g80
I2
ssg81
Nsg74
(lp3911
sbasbasbasbasbasbasbasbag67
(g83
g69
NtRp3912
(dp3913
g72
(dp3914
sg81
g3837
sg74
(lp3915
g67
(g88
g69
NtRp3916
(dp3917
g72
(dp3918
sg81
g3912
sg74
(lp3919
g67
(g68
g69
NtRp3920
(dp3921
g72
(dp3922
g80
I4
ssg81
g3916
sg74
(lp3923
g67
(g76
g69
NtRp3924
(dp3925
g72
(dp3926
g80
I3
ssg81
Nsg74
(lp3927
g67
(g83
g69
NtRp3928
(dp3929
g72
(dp3930
sg81
g3924
sg74
(lp3931
g67
(g88
g69
NtRp3932
(dp3933
g72
(dp3934
sg81
g3928
sg74
(lp3935
g67
(g68
g69
NtRp3936
(dp3937
g72
(dp3938
g80
I3
ssg81
g3932
sg74
(lp3939
g67
(cgluon.html
SPAN
p3940
g69
NtRp3941
(dp3942
g72
(dp3943
g92
S'color:yellow'
p3944
ssg81
Nsg74
(lp3945
g3815
asbasbasbasbag67
(g83
g69
NtRp3946
(dp3947
g72
(dp3948
sg81
g3924
sg74
(lp3949
g67
(g88
g69
NtRp3950
(dp3951
g72
(dp3952
sg81
g3946
sg74
(lp3953
g67
(g68
g69
NtRp3954
(dp3955
g72
(dp3956
g80
I3
ssg81
g3950
sg74
(lp3957
g970
asbasbasbag67
(g83
g69
NtRp3958
(dp3959
g72
(dp3960
sg81
g3924
sg74
(lp3961
g67
(g88
g69
NtRp3962
(dp3963
g72
(dp3964
sg81
g3958
sg74
(lp3965
g67
(g68
g69
NtRp3966
(dp3967
g72
(dp3968
g80
I3
ssg81
g3962
sg74
(lp3969
S'None'
p3970
asbasbasbag67
(g83
g69
NtRp3971
(dp3972
g72
(dp3973
sg81
g3924
sg74
(lp3974
g67
(g88
g69
NtRp3975
(dp3976
g72
(dp3977
sg81
g3971
sg74
(lp3978
g67
(g68
g69
NtRp3979
(dp3980
g72
(dp3981
g80
I3
ssg81
g3975
sg74
(lp3982
g67
(g76
g69
NtRp3983
(dp3984
g72
(dp3985
g80
I2
ssg81
Nsg74
(lp3986
g67
(g83
g69
NtRp3987
(dp3988
g72
(dp3989
sg81
g3983
sg74
(lp3990
g67
(g88
g69
NtRp3991
(dp3992
g72
(dp3993
sg81
g3987
sg74
(lp3994
g67
(g68
g69
NtRp3995
(dp3996
g72
(dp3997
g80
I2
ssg81
g3991
sg74
(lp3998
g67
(g76
g69
NtRp3999
(dp4000
g72
(dp4001
g80
I1
ssg81
Nsg74
(lp4002
g67
(g83
g69
NtRp4003
(dp4004
g72
(dp4005
sg81
g3999
sg74
(lp4006
g67
(g88
g69
NtRp4007
(dp4008
g72
(dp4009
sg81
g4003
sg74
(lp4010
g67
(g68
g69
NtRp4011
(dp4012
g72
(dp4013
g80
I1
ssg81
g4007
sg74
(lp4014
g3869
(S's\x08\x00\x00\x00My Sites'
tRp4015
asbasbasbag67
(g83
g69
NtRp4016
(dp4017
g72
(dp4018
sg81
g3999
sg74
(lp4019
g67
(g88
g69
NtRp4020
(dp4021
g72
(dp4022
sg81
g4016
sg74
(lp4023
g67
(g68
g69
NtRp4024
(dp4025
g72
(dp4026
g80
I1
ssg81
g4020
sg74
(lp4027
I00
asbasbasbag67
(g83
g69
NtRp4028
(dp4029
g72
(dp4030
sg81
g3999
sg74
(lp4031
g67
(g88
g69
NtRp4032
(dp4033
g72
(dp4034
sg81
g4028
sg74
(lp4035
g67
(g68
g69
NtRp4036
(dp4037
g72
(dp4038
g80
I1
ssg81
g4032
sg74
(lp4039
S'/admin/default/site'
p4040
asbasbasbasbasbasbasbag67
(g83
g69
NtRp4041
(dp4042
g72
(dp4043
sg81
g3983
sg74
(lp4044
g67
(g88
g69
NtRp4045
(dp4046
g72
(dp4047
sg81
g4041
sg74
(lp4048
g67
(g68
g69
NtRp4049
(dp4050
g72
(dp4051
g80
I2
ssg81
g4045
sg74
(lp4052
g67
(g76
g69
NtRp4053
(dp4054
g72
(dp4055
g80
I1
ssg81
Nsg74
(lp4056
g67
(g83
g69
NtRp4057
(dp4058
g72
(dp4059
sg81
g4053
sg74
(lp4060
g67
(g88
g69
NtRp4061
(dp4062
g72
(dp4063
sg81
g4057
sg74
(lp4064
g67
(g68
g69
NtRp4065
(dp4066
g72
(dp4067
g80
I1
ssg81
g4061
sg74
(lp4068
g3869
(S's\x08\x00\x00\x00This App'
tRp4069
asbasbasbag67
(g83
g69
NtRp4070
(dp4071
g72
(dp4072
sg81
g4053
sg74
(lp4073
g67
(g88
g69
NtRp4074
(dp4075
g72
(dp4076
sg81
g4070
sg74
(lp4077
g67
(g68
g69
NtRp4078
(dp4079
g72
(dp4080
g80
I1
ssg81
g4074
sg74
(lp4081
I00
asbasbasbag67
(g83
g69
NtRp4082
(dp4083
g72
(dp4084
sg81
g4053
sg74
(lp4085
g67
(g88
g69
NtRp4086
(dp4087
g72
(dp4088
sg81
g4082
sg74
(lp4089
g67
(g68
g69
NtRp4090
(dp4091
g72
(dp4092
g80
I1
ssg81
g4086
sg74
(lp4093
S'/admin/default/design/phyloShiny'
p4094
asbasbasbag67
(g83
g69
NtRp4095
(dp4096
g72
(dp4097
sg81
g4053
sg74
(lp4098
g67
(g88
g69
NtRp4099
(dp4100
g72
(dp4101
sg81
g4095
sg74
(lp4102
g67
(g68
g69
NtRp4103
(dp4104
g72
(dp4105
g80
I1
ssg81
g4099
sg74
(lp4106
(lp4107
(g3869
(S't\n\x00\x00\x00Controller'
tRp4108
I00
S'/admin/default/edit/phyloShiny/controllers/reconciliotastic.py'
tp4109
a(g3869
(S't\x04\x00\x00\x00View'
tRp4110
I00
S'/admin/default/edit/phyloShiny/views/reconciliotastic/getPhylotasticTree.html'
tp4111
a(g3869
(S't\x06\x00\x00\x00Layout'
tRp4112
I00
S'/admin/default/edit/phyloShiny/views/layout.html'
tp4113
a(g3869
(S't\n\x00\x00\x00Stylesheet'
tRp4114
I00
S'/admin/default/edit/phyloShiny/static/css/web2py.css'
tp4115
a(g3869
(S's\x08\x00\x00\x00DB Model'
tRp4116
I00
S'/admin/default/edit/phyloShiny/models/db.py'
tp4117
a(g3869
(S's\n\x00\x00\x00Menu Model'
tRp4118
I00
S'/admin/default/edit/phyloShiny/models/menu.py'
tp4119
a(g3869
(S't\x08\x00\x00\x00Database'
tRp4120
I00
S'/phyloShiny/appadmin/index'
tp4121
a(g3869
(S't\x06\x00\x00\x00Errors'
tRp4122
I00
S'/admin/default/errors/phyloShiny'
tp4123
a(g3869
(S't\x05\x00\x00\x00About'
tRp4124
I00
S'/admin/default/about/phyloShiny'
tp4125
aasbasbasbasbasbasbasbag67
(g83
g69
NtRp4126
(dp4127
g72
(dp4128
sg81
g3983
sg74
(lp4129
g67
(g88
g69
NtRp4130
(dp4131
g72
(dp4132
sg81
g4126
sg74
(lp4133
g67
(g68
g69
NtRp4134
(dp4135
g72
(dp4136
g80
I2
ssg81
g4130
sg74
(lp4137
g67
(g76
g69
NtRp4138
(dp4139
g72
(dp4140
g80
I1
ssg81
Nsg74
(lp4141
g67
(g83
g69
NtRp4142
(dp4143
g72
(dp4144
sg81
g4138
sg74
(lp4145
g67
(g88
g69
NtRp4146
(dp4147
g72
(dp4148
sg81
g4142
sg74
(lp4149
g67
(g68
g69
NtRp4150
(dp4151
g72
(dp4152
g80
I1
ssg81
g4146
sg74
(lp4153
S'web2py.com'
p4154
asbasbasbag67
(g83
g69
NtRp4155
(dp4156
g72
(dp4157
sg81
g4138
sg74
(lp4158
g67
(g88
g69
NtRp4159
(dp4160
g72
(dp4161
sg81
g4155
sg74
(lp4162
g67
(g68
g69
NtRp4163
(dp4164
g72
(dp4165
g80
I1
ssg81
g4159
sg74
(lp4166
I00
asbasbasbag67
(g83
g69
NtRp4167
(dp4168
g72
(dp4169
sg81
g4138
sg74
(lp4170
g67
(g88
g69
NtRp4171
(dp4172
g72
(dp4173
sg81
g4167
sg74
(lp4174
g67
(g68
g69
NtRp4175
(dp4176
g72
(dp4177
g80
I1
ssg81
g4171
sg74
(lp4178
S'http://www.web2py.com'
p4179
asbasbasbag67
(g83
g69
NtRp4180
(dp4181
g72
(dp4182
sg81
g4138
sg74
(lp4183
g67
(g88
g69
NtRp4184
(dp4185
g72
(dp4186
sg81
g4180
sg74
(lp4187
g67
(g68
g69
NtRp4188
(dp4189
g72
(dp4190
g80
I1
ssg81
g4184
sg74
(lp4191
(lp4192
(g3869
(S't\x08\x00\x00\x00Download'
tRp4193
I00
S'http://www.web2py.com/examples/default/download'
p4194
tp4195
a(g3869
(S't\x07\x00\x00\x00Support'
tRp4196
I00
S'http://www.web2py.com/examples/default/support'
p4197
tp4198
a(g3869
(S't\x04\x00\x00\x00Demo'
tRp4199
I00
S'http://web2py.com/demo_admin'
p4200
tp4201
a(g3869
(S's\x0e\x00\x00\x00Quick Examples'
tRp4202
I00
S'http://web2py.com/examples/default/examples'
p4203
tp4204
a(g3869
(S't\x03\x00\x00\x00FAQ'
tRp4205
I00
S'http://web2py.com/AlterEgo'
p4206
tp4207
a(g3869
(S't\x06\x00\x00\x00Videos'
tRp4208
I00
S'http://www.web2py.com/examples/default/videos/'
p4209
tp4210
a(g3869
(S's\x11\x00\x00\x00Free Applications'
tRp4211
I00
S'http://web2py.com/appliances'
p4212
tp4213
a(g3869
(S't\x07\x00\x00\x00Plugins'
tRp4214
I00
S'http://web2py.com/plugins'
p4215
tp4216
a(g3869
(S't\x07\x00\x00\x00Layouts'
tRp4217
I00
S'http://web2py.com/layouts'
p4218
tp4219
a(g3869
(S't\x07\x00\x00\x00Recipes'
tRp4220
I00
S'http://web2pyslices.com/'
p4221
tp4222
a(g3869
(S't\x08\x00\x00\x00Semantic'
tRp4223
I00
S'http://web2py.com/semantic'
p4224
tp4225
aasbasbasbasbasbasbasbag67
(g83
g69
NtRp4226
(dp4227
g72
(dp4228
sg81
g3983
sg74
(lp4229
g67
(g88
g69
NtRp4230
(dp4231
g72
(dp4232
sg81
g4226
sg74
(lp4233
g67
(g68
g69
NtRp4234
(dp4235
g72
(dp4236
g80
I2
ssg81
g4230
sg74
(lp4237
g67
(g76
g69
NtRp4238
(dp4239
g72
(dp4240
g80
I1
ssg81
Nsg74
(lp4241
g67
(g83
g69
NtRp4242
(dp4243
g72
(dp4244
sg81
g4238
sg74
(lp4245
g67
(g88
g69
NtRp4246
(dp4247
g72
(dp4248
sg81
g4242
sg74
(lp4249
g67
(g68
g69
NtRp4250
(dp4251
g72
(dp4252
g80
I1
ssg81
g4246
sg74
(lp4253
g3869
(S't\r\x00\x00\x00Documentation'
tRp4254
asbasbasbag67
(g83
g69
NtRp4255
(dp4256
g72
(dp4257
sg81
g4238
sg74
(lp4258
g67
(g88
g69
NtRp4259
(dp4260
g72
(dp4261
sg81
g4255
sg74
(lp4262
g67
(g68
g69
NtRp4263
(dp4264
g72
(dp4265
g80
I1
ssg81
g4259
sg74
(lp4266
I00
asbasbasbag67
(g83
g69
NtRp4267
(dp4268
g72
(dp4269
sg81
g4238
sg74
(lp4270
g67
(g88
g69
NtRp4271
(dp4272
g72
(dp4273
sg81
g4267
sg74
(lp4274
g67
(g68
g69
NtRp4275
(dp4276
g72
(dp4277
g80
I1
ssg81
g4271
sg74
(lp4278
S'http://www.web2py.com/book'
p4279
asbasbasbag67
(g83
g69
NtRp4280
(dp4281
g72
(dp4282
sg81
g4238
sg74
(lp4283
g67
(g88
g69
NtRp4284
(dp4285
g72
(dp4286
sg81
g4280
sg74
(lp4287
g67
(g68
g69
NtRp4288
(dp4289
g72
(dp4290
g80
I1
ssg81
g4284
sg74
(lp4291
(lp4292
(g3869
(S't\x07\x00\x00\x00Preface'
tRp4293
I00
S'http://www.web2py.com/book/default/chapter/00'
p4294
tp4295
a(g3869
(S't\x0c\x00\x00\x00Introduction'
tRp4296
I00
S'http://www.web2py.com/book/default/chapter/01'
p4297
tp4298
a(g3869
(S't\x06\x00\x00\x00Python'
tRp4299
I00
S'http://www.web2py.com/book/default/chapter/02'
p4300
tp4301
a(g3869
(S't\x08\x00\x00\x00Overview'
tRp4302
I00
S'http://www.web2py.com/book/default/chapter/03'
p4303
tp4304
a(g3869
(S's\x08\x00\x00\x00The Core'
tRp4305
I00
S'http://www.web2py.com/book/default/chapter/04'
p4306
tp4307
a(g3869
(S's\t\x00\x00\x00The Views'
tRp4308
I00
S'http://www.web2py.com/book/default/chapter/05'
p4309
tp4310
a(g3869
(S't\x08\x00\x00\x00Database'
tRp4311
I00
S'http://www.web2py.com/book/default/chapter/06'
p4312
tp4313
a(g3869
(S's\x14\x00\x00\x00Forms and Validators'
tRp4314
I00
S'http://www.web2py.com/book/default/chapter/07'
p4315
tp4316
a(g3869
(S's\r\x00\x00\x00Email and SMS'
tRp4317
I00
S'http://www.web2py.com/book/default/chapter/08'
p4318
tp4319
a(g3869
(S's\x0e\x00\x00\x00Access Control'
tRp4320
I00
S'http://www.web2py.com/book/default/chapter/09'
p4321
tp4322
a(g3869
(S't\x08\x00\x00\x00Services'
tRp4323
I00
S'http://www.web2py.com/book/default/chapter/10'
p4324
tp4325
a(g3869
(S's\x0c\x00\x00\x00Ajax Recipes'
tRp4326
I00
S'http://www.web2py.com/book/default/chapter/11'
p4327
tp4328
a(g3869
(S's\x16\x00\x00\x00Components and Plugins'
tRp4329
I00
S'http://www.web2py.com/book/default/chapter/12'
p4330
tp4331
a(g3869
(S's\x12\x00\x00\x00Deployment Recipes'
tRp4332
I00
S'http://www.web2py.com/book/default/chapter/13'
p4333
tp4334
a(g3869
(S's\r\x00\x00\x00Other Recipes'
tRp4335
I00
S'http://www.web2py.com/book/default/chapter/14'
p4336
tp4337
a(g3869
(S's\r\x00\x00\x00Buy this book'
tRp4338
I00
S'http://stores.lulu.com/web2py'
p4339
tp4340
aasbasbasbasbasbasbasbag67
(g83
g69
NtRp4341
(dp4342
g72
(dp4343
sg81
g3983
sg74
(lp4344
g67
(g88
g69
NtRp4345
(dp4346
g72
(dp4347
sg81
g4341
sg74
(lp4348
g67
(g68
g69
NtRp4349
(dp4350
g72
(dp4351
g80
I2
ssg81
g4345
sg74
(lp4352
g67
(g76
g69
NtRp4353
(dp4354
g72
(dp4355
g80
I1
ssg81
Nsg74
(lp4356
g67
(g83
g69
NtRp4357
(dp4358
g72
(dp4359
sg81
g4353
sg74
(lp4360
g67
(g88
g69
NtRp4361
(dp4362
g72
(dp4363
sg81
g4357
sg74
(lp4364
g67
(g68
g69
NtRp4365
(dp4366
g72
(dp4367
g80
I1
ssg81
g4361
sg74
(lp4368
g3869
(S't\t\x00\x00\x00Community'
tRp4369
asbasbasbag67
(g83
g69
NtRp4370
(dp4371
g72
(dp4372
sg81
g4353
sg74
(lp4373
g67
(g88
g69
NtRp4374
(dp4375
g72
(dp4376
sg81
g4370
sg74
(lp4377
g67
(g68
g69
NtRp4378
(dp4379
g72
(dp4380
g80
I1
ssg81
g4374
sg74
(lp4381
I00
asbasbasbag67
(g83
g69
NtRp4382
(dp4383
g72
(dp4384
sg81
g4353
sg74
(lp4385
g67
(g88
g69
NtRp4386
(dp4387
g72
(dp4388
sg81
g4382
sg74
(lp4389
g67
(g68
g69
NtRp4390
(dp4391
g72
(dp4392
g80
I1
ssg81
g4386
sg74
(lp4393
Nasbasbasbag67
(g83
g69
NtRp4394
(dp4395
g72
(dp4396
sg81
g4353
sg74
(lp4397
g67
(g88
g69
NtRp4398
(dp4399
g72
(dp4400
sg81
g4394
sg74
(lp4401
g67
(g68
g69
NtRp4402
(dp4403
g72
(dp4404
g80
I1
ssg81
g4398
sg74
(lp4405
(lp4406
(g3869
(S't\x06\x00\x00\x00Groups'
tRp4407
I00
S'http://www.web2py.com/examples/default/usergroups'
p4408
tp4409
a(g3869
(S't\x07\x00\x00\x00Twitter'
tRp4410
I00
S'http://twitter.com/web2py'
p4411
tp4412
a(g3869
(S's\t\x00\x00\x00Live Chat'
tRp4413
I00
S'http://webchat.freenode.net/?channels=web2py'
p4414
tp4415
aasbasbasbasbasbasbasbag67
(g83
g69
NtRp4416
(dp4417
g72
(dp4418
sg81
g3983
sg74
(lp4419
g67
(g88
g69
NtRp4420
(dp4421
g72
(dp4422
sg81
g4416
sg74
(lp4423
g67
(g68
g69
NtRp4424
(dp4425
g72
(dp4426
g80
I2
ssg81
g4420
sg74
(lp4427
g67
(g76
g69
NtRp4428
(dp4429
g72
(dp4430
g80
I1
ssg81
Nsg74
(lp4431
g67
(g83
g69
NtRp4432
(dp4433
g72
(dp4434
sg81
g4428
sg74
(lp4435
g67
(g88
g69
NtRp4436
(dp4437
g72
(dp4438
sg81
g4432
sg74
(lp4439
g67
(g68
g69
NtRp4440
(dp4441
g72
(dp4442
g80
I1
ssg81
g4436
sg74
(lp4443
g3869
(S't\x07\x00\x00\x00Plugins'
tRp4444
asbasbasbag67
(g83
g69
NtRp4445
(dp4446
g72
(dp4447
sg81
g4428
sg74
(lp4448
g67
(g88
g69
NtRp4449
(dp4450
g72
(dp4451
sg81
g4445
sg74
(lp4452
g67
(g68
g69
NtRp4453
(dp4454
g72
(dp4455
g80
I1
ssg81
g4449
sg74
(lp4456
I00
asbasbasbag67
(g83
g69
NtRp4457
(dp4458
g72
(dp4459
sg81
g4428
sg74
(lp4460
g67
(g88
g69
NtRp4461
(dp4462
g72
(dp4463
sg81
g4457
sg74
(lp4464
g67
(g68
g69
NtRp4465
(dp4466
g72
(dp4467
g80
I1
ssg81
g4461
sg74
(lp4468
Nasbasbasbag67
(g83
g69
NtRp4469
(dp4470
g72
(dp4471
sg81
g4428
sg74
(lp4472
g67
(g88
g69
NtRp4473
(dp4474
g72
(dp4475
sg81
g4469
sg74
(lp4476
g67
(g68
g69
NtRp4477
(dp4478
g72
(dp4479
g80
I1
ssg81
g4473
sg74
(lp4480
(lp4481
(S'plugin_wiki'
p4482
I00
S'http://web2py.com/examples/default/download'
p4483
tp4484
a(g3869
(S's\r\x00\x00\x00Other Plugins'
tRp4485
I00
g4215
tp4486
a(g3869
(S's\x0e\x00\x00\x00Layout Plugins'
tRp4487
I00
g4218
tp4488
aasbasbasbasbasbasbasbasbasbasbasbasbasbasbasbasbasbasbasbag67
(g83
g69
NtRp4489
(dp4490
g72
(dp4491
sg81
g3364
sg74
(lp4492
g67
(g88
g69
NtRp4493
(dp4494
g72
(dp4495
g92
g93
ssg81
g4489
sg74
(lp4496
S'meta'
p4497
asbag67
(g88
g69
NtRp4498
(dp4499
g72
(dp4500
g99
g100
ssg81
g4489
sg74
(lp4501
S':'
asbag67
(g88
g69
NtRp4502
(dp4503
g72
(dp4504
sg81
g4489
sg74
(lp4505
g67
(g68
g69
NtRp4506
(dp4507
g72
(dp4508
g80
I5
ssg81
g4502
sg74
(lp4509
g67
(g76
g69
NtRp4510
(dp4511
g72
(dp4512
g80
I4
ssg81
Nsg74
(lp4513
g67
(g83
g69
NtRp4514
(dp4515
g72
(dp4516
sg81
g4510
sg74
(lp4517
g67
(g88
g69
NtRp4518
(dp4519
g72
(dp4520
g92
g93
ssg81
g4514
sg74
(lp4521
S'author'
p4522
asbag67
(g88
g69
NtRp4523
(dp4524
g72
(dp4525
g99
g100
ssg81
g4514
sg74
(lp4526
S':'
asbag67
(g88
g69
NtRp4527
(dp4528
g72
(dp4529
sg81
g4514
sg74
(lp4530
g67
(g68
g69
NtRp4531
(dp4532
g72
(dp4533
g80
I4
ssg81
g4527
sg74
(lp4534
S'Your Name <you@example.com>'
p4535
asbasbasbag67
(g83
g69
NtRp4536
(dp4537
g72
(dp4538
sg81
g4510
sg74
(lp4539
g67
(g88
g69
NtRp4540
(dp4541
g72
(dp4542
g92
g93
ssg81
g4536
sg74
(lp4543
S'copyright'
p4544
asbag67
(g88
g69
NtRp4545
(dp4546
g72
(dp4547
g99
g100
ssg81
g4536
sg74
(lp4548
S':'
asbag67
(g88
g69
NtRp4549
(dp4550
g72
(dp4551
sg81
g4536
sg74
(lp4552
g67
(g68
g69
NtRp4553
(dp4554
g72
(dp4555
g80
I4
ssg81
g4549
sg74
(lp4556
S'Copyright 2011'
p4557
asbasbasbag67
(g83
g69
NtRp4558
(dp4559
g72
(dp4560
sg81
g4510
sg74
(lp4561
g67
(g88
g69
NtRp4562
(dp4563
g72
(dp4564
g92
g93
ssg81
g4558
sg74
(lp4565
S'description'
p4566
asbag67
(g88
g69
NtRp4567
(dp4568
g72
(dp4569
g99
g100
ssg81
g4558
sg74
(lp4570
S':'
asbag67
(g88
g69
NtRp4571
(dp4572
g72
(dp4573
sg81
g4558
sg74
(lp4574
g67
(g68
g69
NtRp4575
(dp4576
g72
(dp4577
g80
I4
ssg81
g4571
sg74
(lp4578
S'a cool new app'
p4579
asbasbasbag67
(g83
g69
NtRp4580
(dp4581
g72
(dp4582
sg81
g4510
sg74
(lp4583
g67
(g88
g69
NtRp4584
(dp4585
g72
(dp4586
g92
g93
ssg81
g4580
sg74
(lp4587
S'generator'
p4588
asbag67
(g88
g69
NtRp4589
(dp4590
g72
(dp4591
g99
g100
ssg81
g4580
sg74
(lp4592
S':'
asbag67
(g88
g69
NtRp4593
(dp4594
g72
(dp4595
sg81
g4580
sg74
(lp4596
g67
(g68
g69
NtRp4597
(dp4598
g72
(dp4599
g80
I4
ssg81
g4593
sg74
(lp4600
S'Web2py Web Framework'
p4601
asbasbasbag67
(g83
g69
NtRp4602
(dp4603
g72
(dp4604
sg81
g4510
sg74
(lp4605
g67
(g88
g69
NtRp4606
(dp4607
g72
(dp4608
g92
g93
ssg81
g4602
sg74
(lp4609
S'keywords'
p4610
asbag67
(g88
g69
NtRp4611
(dp4612
g72
(dp4613
g99
g100
ssg81
g4602
sg74
(lp4614
S':'
asbag67
(g88
g69
NtRp4615
(dp4616
g72
(dp4617
sg81
g4602
sg74
(lp4618
g67
(g68
g69
NtRp4619
(dp4620
g72
(dp4621
g80
I4
ssg81
g4615
sg74
(lp4622
S'web2py, python, framework'
p4623
asbasbasbasbasbasbasbag67
(g83
g69
NtRp4624
(dp4625
g72
(dp4626
sg81
g3364
sg74
(lp4627
g67
(g88
g69
NtRp4628
(dp4629
g72
(dp4630
g92
g93
ssg81
g4624
sg74
(lp4631
S'postprocessing'
p4632
asbag67
(g88
g69
NtRp4633
(dp4634
g72
(dp4635
g99
g100
ssg81
g4624
sg74
(lp4636
S':'
asbag67
(g88
g69
NtRp4637
(dp4638
g72
(dp4639
sg81
g4624
sg74
(lp4640
g67
(g68
g69
NtRp4641
(dp4642
g72
(dp4643
g80
I5
ssg81
g4637
sg74
(lp4644
g67
(g76
g69
NtRp4645
(dp4646
g72
(dp4647
g80
I4
ssg81
Nsg74
(lp4648
sbasbasbasbag67
(g83
g69
NtRp4649
(dp4650
g72
(dp4651
sg81
g3364
sg74
(lp4652
g67
(g88
g69
NtRp4653
(dp4654
g72
(dp4655
g92
g93
ssg81
g4649
sg74
(lp4656
S'session_filename'
p4657
asbag67
(g88
g69
NtRp4658
(dp4659
g72
(dp4660
g99
g100
ssg81
g4649
sg74
(lp4661
S':'
asbag67
(g88
g69
NtRp4662
(dp4663
g72
(dp4664
sg81
g4649
sg74
(lp4665
g67
(g68
g69
NtRp4666
(dp4667
g72
(dp4668
g80
I5
ssg81
g4662
sg74
(lp4669
S'/home/prateek/web2py/applications/phyloShiny/sessions/127.0.0.1-b4dcdd14-7d0b-4527-a4c6-dc43d57fa935'
p4670
asbasbasbag67
(g83
g69
NtRp4671
(dp4672
g72
(dp4673
sg81
g3364
sg74
(lp4674
g67
(g88
g69
NtRp4675
(dp4676
g72
(dp4677
g92
g93
ssg81
g4671
sg74
(lp4678
S'session_id'
p4679
asbag67
(g88
g69
NtRp4680
(dp4681
g72
(dp4682
g99
g100
ssg81
g4671
sg74
(lp4683
S':'
asbag67
(g88
g69
NtRp4684
(dp4685
g72
(dp4686
sg81
g4671
sg74
(lp4687
g67
(g68
g69
NtRp4688
(dp4689
g72
(dp4690
g80
I5
ssg81
g4684
sg74
(lp4691
S'127.0.0.1-b4dcdd14-7d0b-4527-a4c6-dc43d57fa935'
p4692
asbasbasbag67
(g83
g69
NtRp4693
(dp4694
g72
(dp4695
sg81
g3364
sg74
(lp4696
g67
(g88
g69
NtRp4697
(dp4698
g72
(dp4699
g92
g93
ssg81
g4693
sg74
(lp4700
S'session_id_name'
p4701
asbag67
(g88
g69
NtRp4702
(dp4703
g72
(dp4704
g99
g100
ssg81
g4693
sg74
(lp4705
S':'
asbag67
(g88
g69
NtRp4706
(dp4707
g72
(dp4708
sg81
g4693
sg74
(lp4709
g67
(g68
g69
NtRp4710
(dp4711
g72
(dp4712
g80
I5
ssg81
g4706
sg74
(lp4713
g3421
asbasbasbag67
(g83
g69
NtRp4714
(dp4715
g72
(dp4716
sg81
g3364
sg74
(lp4717
g67
(g88
g69
NtRp4718
(dp4719
g72
(dp4720
g92
g93
ssg81
g4714
sg74
(lp4721
S'session_new'
p4722
asbag67
(g88
g69
NtRp4723
(dp4724
g72
(dp4725
g99
g100
ssg81
g4714
sg74
(lp4726
S':'
asbag67
(g88
g69
NtRp4727
(dp4728
g72
(dp4729
sg81
g4714
sg74
(lp4730
g67
(g68
g69
NtRp4731
(dp4732
g72
(dp4733
g80
I5
ssg81
g4727
sg74
(lp4734
g110
asbasbasbag67
(g83
g69
NtRp4735
(dp4736
g72
(dp4737
sg81
g3364
sg74
(lp4738
g67
(g88
g69
NtRp4739
(dp4740
g72
(dp4741
g92
g93
ssg81
g4735
sg74
(lp4742
S'status'
p4743
asbag67
(g88
g69
NtRp4744
(dp4745
g72
(dp4746
g99
g100
ssg81
g4735
sg74
(lp4747
S':'
asbag67
(g88
g69
NtRp4748
(dp4749
g72
(dp4750
sg81
g4735
sg74
(lp4751
g67
(g68
g69
NtRp4752
(dp4753
g72
(dp4754
g80
I5
ssg81
g4748
sg74
(lp4755
S'200'
p4756
asbasbasbag67
(g83
g69
NtRp4757
(dp4758
g72
(dp4759
sg81
g3364
sg74
(lp4760
g67
(g88
g69
NtRp4761
(dp4762
g72
(dp4763
g92
g93
ssg81
g4757
sg74
(lp4764
S'subtitle'
p4765
asbag67
(g88
g69
NtRp4766
(dp4767
g72
(dp4768
g99
g100
ssg81
g4757
sg74
(lp4769
S':'
asbag67
(g88
g69
NtRp4770
(dp4771
g72
(dp4772
sg81
g4757
sg74
(lp4773
g67
(g68
g69
NtRp4774
(dp4775
g72
(dp4776
g80
I5
ssg81
g4770
sg74
(lp4777
g3869
(S's\r\x00\x00\x00customize me!'
tRp4778
asbasbasbag67
(g83
g69
NtRp4779
(dp4780
g72
(dp4781
sg81
g3364
sg74
(lp4782
g67
(g88
g69
NtRp4783
(dp4784
g72
(dp4785
g92
g93
ssg81
g4779
sg74
(lp4786
S'title'
p4787
asbag67
(g88
g69
NtRp4788
(dp4789
g72
(dp4790
g99
g100
ssg81
g4779
sg74
(lp4791
S':'
asbag67
(g88
g69
NtRp4792
(dp4793
g72
(dp4794
sg81
g4779
sg74
(lp4795
g67
(g68
g69
NtRp4796
(dp4797
g72
(dp4798
g80
I5
ssg81
g4792
sg74
(lp4799
S'Phyloshiny'
p4800
asbasbasbag67
(g83
g69
NtRp4801
(dp4802
g72
(dp4803
sg81
g3364
sg74
(lp4804
g67
(g88
g69
NtRp4805
(dp4806
g72
(dp4807
g92
g93
ssg81
g4801
sg74
(lp4808
g2375
asbag67
(g88
g69
NtRp4809
(dp4810
g72
(dp4811
g99
g100
ssg81
g4801
sg74
(lp4812
S':'
asbag67
(g88
g69
NtRp4813
(dp4814
g72
(dp4815
sg81
g4801
sg74
(lp4816
g67
(g68
g69
NtRp4817
(dp4818
g72
(dp4819
g80
I5
ssg81
g4813
sg74
(lp4820
g2388
asbasbasbag67
(g83
g69
NtRp4821
(dp4822
g72
(dp4823
sg81
g3364
sg74
(lp4824
g67
(g88
g69
NtRp4825
(dp4826
g72
(dp4827
g92
g93
ssg81
g4821
sg74
(lp4828
S'view'
p4829
asbag67
(g88
g69
NtRp4830
(dp4831
g72
(dp4832
g99
g100
ssg81
g4821
sg74
(lp4833
S':'
asbag67
(g88
g69
NtRp4834
(dp4835
g72
(dp4836
sg81
g4821
sg74
(lp4837
g67
(g68
g69
NtRp4838
(dp4839
g72
(dp4840
g80
I5
ssg81
g4834
sg74
(lp4841
S'reconciliotastic/getPhylotasticTree.html'
p4842
asbasbasbasbasbsS'locals'
p4843
(dp4844
S'e'
S"error(104, 'Connection reset by peer')"
p4845
sS'self'
p4846
S'<socket._fileobject object>'
p4847
sS'buf'
p4848
S'<cStringIO.StringO object>'
p4849
sS'size'
p4850
S'-1'
p4851
sssS'traceback'
p4852
S'Traceback (most recent call last):\n  File "/usr/lib/pymodules/python2.7/gluon/restricted.py", line 204, in restricted\n    exec ccode in environment\n  File "/home/prateek/web2py/applications/phyloShiny/controllers/reconciliotastic.py", line 170, in <module>\n  File "/usr/lib/pymodules/python2.7/gluon/globals.py", line 172, in <lambda>\n    self._caller = lambda f: f()\n  File "/home/prateek/web2py/applications/phyloShiny/controllers/reconciliotastic.py", line 112, in getPhylotasticTree\n    conn = urllib2.urlopen(speciesTreeUrl)\n  File "/usr/lib/python2.7/urllib2.py", line 126, in urlopen\n    return _opener.open(url, data, timeout)\n  File "/usr/lib/python2.7/urllib2.py", line 400, in open\n    response = self._open(req, data)\n  File "/usr/lib/python2.7/urllib2.py", line 418, in _open\n    \'_open\', req)\n  File "/usr/lib/python2.7/urllib2.py", line 378, in _call_chain\n    result = func(*args)\n  File "/usr/lib/python2.7/urllib2.py", line 1207, in http_open\n    return self.do_open(httplib.HTTPConnection, req)\n  File "/usr/lib/python2.7/urllib2.py", line 1180, in do_open\n    r = h.getresponse(buffering=True)\n  File "/usr/lib/python2.7/httplib.py", line 1030, in getresponse\n    response.begin()\n  File "/usr/lib/python2.7/httplib.py", line 407, in begin\n    version, status, reason = self._read_status()\n  File "/usr/lib/python2.7/httplib.py", line 365, in _read_status\n    line = self.fp.readline()\n  File "/usr/lib/python2.7/socket.py", line 447, in readline\n    data = self._sock.recv(self._rbufsize)\nerror: [Errno 104] Connection reset by peer\n'
p4853
s.